
/mnt/c/Users/roged/pi/blink_tutorial/build/ProjectFiles/blink.elf:     file format elf32-littlearm

Sections:
Idx Name          Size      VMA       LMA       File off  Algn
  0 .boot2        00000100  10000000  10000000  00001000  2**0
                  CONTENTS, ALLOC, LOAD, READONLY, CODE
  1 .text         00005920  10000100  10000100  00001100  2**4
                  CONTENTS, ALLOC, LOAD, READONLY, CODE
  2 .rodata       00000148  10005a20  10005a20  00006a20  2**2
                  CONTENTS, ALLOC, LOAD, READONLY, DATA
  3 .binary_info  00000024  10005b68  10005b68  00006b68  2**2
                  CONTENTS, ALLOC, LOAD, READONLY, DATA
  4 .ram_vector_table 000000c0  20000000  20000000  00008000  2**2
                  ALLOC
  5 .data         000009ec  200000c0  10005b8c  000070c0  2**4
                  CONTENTS, ALLOC, LOAD, READONLY, CODE
  6 .uninitialized_data 00000000  20000aac  20000aac  00007aac  2**0
                  CONTENTS
  7 .scratch_x    00000000  20040000  20040000  00007aac  2**0
                  CONTENTS
  8 .scratch_y    00000000  20041000  20041000  00007aac  2**0
                  CONTENTS
  9 .bss          000005a8  20000ab0  20000ab0  00008000  2**3
                  ALLOC
 10 .heap         00000800  20001058  20001058  00007aac  2**2
                  CONTENTS, READONLY
 11 .stack_dummy  00000800  20041000  20041000  000082c0  2**5
                  CONTENTS, READONLY
 12 .ARM.attributes 00000028  00000000  00000000  00008ac0  2**0
                  CONTENTS, READONLY
 13 .comment      00000033  00000000  00000000  00008ae8  2**0
                  CONTENTS, READONLY
 14 .debug_line   000016b9  00000000  00000000  00008b1b  2**0
                  CONTENTS, READONLY, DEBUGGING, OCTETS
 15 .debug_info   00004dec  00000000  00000000  0000a1d4  2**0
                  CONTENTS, READONLY, DEBUGGING, OCTETS
 16 .debug_abbrev 00001109  00000000  00000000  0000efc0  2**0
                  CONTENTS, READONLY, DEBUGGING, OCTETS
 17 .debug_aranges 00000118  00000000  00000000  000100d0  2**3
                  CONTENTS, READONLY, DEBUGGING, OCTETS
 18 .debug_str    00000a5c  00000000  00000000  000101e8  2**0
                  CONTENTS, READONLY, DEBUGGING, OCTETS
 19 .debug_loc    00001720  00000000  00000000  00010c44  2**0
                  CONTENTS, READONLY, DEBUGGING, OCTETS
 20 .debug_frame  000001a4  00000000  00000000  00012364  2**2
                  CONTENTS, READONLY, DEBUGGING, OCTETS
 21 .debug_ranges 00000050  00000000  00000000  00012508  2**0
                  CONTENTS, READONLY, DEBUGGING, OCTETS

/mnt/c/Users/roged/pi/blink_tutorial/build/ProjectFiles/blink.elf:     file format elf32-littlearm


Disassembly of section .boot2:

10000000 <__boot2_start__>:
10000000:	4b32b500 	.word	0x4b32b500
10000004:	60582021 	.word	0x60582021
10000008:	21026898 	.word	0x21026898
1000000c:	60984388 	.word	0x60984388
10000010:	611860d8 	.word	0x611860d8
10000014:	4b2e6158 	.word	0x4b2e6158
10000018:	60992100 	.word	0x60992100
1000001c:	61592102 	.word	0x61592102
10000020:	22f02101 	.word	0x22f02101
10000024:	492b5099 	.word	0x492b5099
10000028:	21016019 	.word	0x21016019
1000002c:	20356099 	.word	0x20356099
10000030:	f844f000 	.word	0xf844f000
10000034:	42902202 	.word	0x42902202
10000038:	2106d014 	.word	0x2106d014
1000003c:	f0006619 	.word	0xf0006619
10000040:	6e19f834 	.word	0x6e19f834
10000044:	66192101 	.word	0x66192101
10000048:	66182000 	.word	0x66182000
1000004c:	f000661a 	.word	0xf000661a
10000050:	6e19f82c 	.word	0x6e19f82c
10000054:	6e196e19 	.word	0x6e196e19
10000058:	f0002005 	.word	0xf0002005
1000005c:	2101f82f 	.word	0x2101f82f
10000060:	d1f94208 	.word	0xd1f94208
10000064:	60992100 	.word	0x60992100
10000068:	6019491b 	.word	0x6019491b
1000006c:	60592100 	.word	0x60592100
10000070:	481b491a 	.word	0x481b491a
10000074:	21016001 	.word	0x21016001
10000078:	21eb6099 	.word	0x21eb6099
1000007c:	21a06619 	.word	0x21a06619
10000080:	f0006619 	.word	0xf0006619
10000084:	2100f812 	.word	0x2100f812
10000088:	49166099 	.word	0x49166099
1000008c:	60014814 	.word	0x60014814
10000090:	60992101 	.word	0x60992101
10000094:	2800bc01 	.word	0x2800bc01
10000098:	4700d000 	.word	0x4700d000
1000009c:	49134812 	.word	0x49134812
100000a0:	c8036008 	.word	0xc8036008
100000a4:	8808f380 	.word	0x8808f380
100000a8:	b5034708 	.word	0xb5034708
100000ac:	20046a99 	.word	0x20046a99
100000b0:	d0fb4201 	.word	0xd0fb4201
100000b4:	42012001 	.word	0x42012001
100000b8:	bd03d1f8 	.word	0xbd03d1f8
100000bc:	6618b502 	.word	0x6618b502
100000c0:	f7ff6618 	.word	0xf7ff6618
100000c4:	6e18fff2 	.word	0x6e18fff2
100000c8:	bd026e18 	.word	0xbd026e18
100000cc:	40020000 	.word	0x40020000
100000d0:	18000000 	.word	0x18000000
100000d4:	00070000 	.word	0x00070000
100000d8:	005f0300 	.word	0x005f0300
100000dc:	00002221 	.word	0x00002221
100000e0:	180000f4 	.word	0x180000f4
100000e4:	a0002022 	.word	0xa0002022
100000e8:	10000100 	.word	0x10000100
100000ec:	e000ed08 	.word	0xe000ed08
	...
100000fc:	7a4eb274 	.word	0x7a4eb274

Disassembly of section .text:

10000100 <__VECTOR_TABLE>:
10000100:	20042000 	.word	0x20042000
10000104:	100001f7 	.word	0x100001f7
10000108:	100001c3 	.word	0x100001c3
1000010c:	100001c5 	.word	0x100001c5
10000110:	100001c1 	.word	0x100001c1
10000114:	100001c1 	.word	0x100001c1
10000118:	100001c1 	.word	0x100001c1
1000011c:	100001c1 	.word	0x100001c1
10000120:	100001c1 	.word	0x100001c1
10000124:	100001c1 	.word	0x100001c1
10000128:	100001c1 	.word	0x100001c1
1000012c:	10003da5 	.word	0x10003da5
10000130:	100001c1 	.word	0x100001c1
10000134:	100001c1 	.word	0x100001c1
10000138:	10003e01 	.word	0x10003e01
1000013c:	10003e45 	.word	0x10003e45
10000140:	100001cd 	.word	0x100001cd
10000144:	100001cd 	.word	0x100001cd
10000148:	100001cd 	.word	0x100001cd
1000014c:	100001cd 	.word	0x100001cd
10000150:	100001cd 	.word	0x100001cd
10000154:	100001cd 	.word	0x100001cd
10000158:	100001cd 	.word	0x100001cd
1000015c:	100001cd 	.word	0x100001cd
10000160:	100001cd 	.word	0x100001cd
10000164:	100001cd 	.word	0x100001cd
10000168:	100001cd 	.word	0x100001cd
1000016c:	100001cd 	.word	0x100001cd
10000170:	100001cd 	.word	0x100001cd
10000174:	100001cd 	.word	0x100001cd
10000178:	100001cd 	.word	0x100001cd
1000017c:	100001cd 	.word	0x100001cd
10000180:	100001cd 	.word	0x100001cd
10000184:	100001cd 	.word	0x100001cd
10000188:	100001cd 	.word	0x100001cd
1000018c:	100001cd 	.word	0x100001cd
10000190:	100001cd 	.word	0x100001cd
10000194:	100001cd 	.word	0x100001cd
10000198:	100001cd 	.word	0x100001cd
1000019c:	100001cd 	.word	0x100001cd
100001a0:	100001cd 	.word	0x100001cd
100001a4:	100001cd 	.word	0x100001cd
100001a8:	100001cd 	.word	0x100001cd
100001ac:	100001cd 	.word	0x100001cd
100001b0:	100001cd 	.word	0x100001cd
100001b4:	100001cd 	.word	0x100001cd
100001b8:	100001cd 	.word	0x100001cd
100001bc:	100001cd 	.word	0x100001cd

100001c0 <isr_invalid>:
100001c0:	be00      	bkpt	0x0000

100001c2 <isr_nmi>:
100001c2:	be00      	bkpt	0x0000

100001c4 <isr_hardfault>:
100001c4:	be00      	bkpt	0x0000
100001c6:	be00      	bkpt	0x0000
100001c8:	be00      	bkpt	0x0000
100001ca:	be00      	bkpt	0x0000

100001cc <__unhandled_user_irq>:
100001cc:	f3ef 8005 	mrs	r0, IPSR
100001d0:	3810      	subs	r0, #16

100001d2 <unhandled_user_irq_num_in_r0>:
100001d2:	be00      	bkpt	0x0000

100001d4 <binary_info_header>:
100001d4:	7188ebf2 	.word	0x7188ebf2
100001d8:	10005b68 	.word	0x10005b68
100001dc:	10005b8c 	.word	0x10005b8c
100001e0:	10000234 	.word	0x10000234
100001e4:	e71aa390 	.word	0xe71aa390

100001e8 <_entry_point>:
100001e8:	2000      	movs	r0, #0
100001ea:	491f      	ldr	r1, [pc, #124]	; (10000268 <hold_non_core0_in_bootrom+0xa>)
100001ec:	6008      	str	r0, [r1, #0]
100001ee:	c806      	ldmia	r0!, {r1, r2}
100001f0:	f381 8808 	msr	MSP, r1
100001f4:	4710      	bx	r2

100001f6 <_reset_handler>:
100001f6:	481d      	ldr	r0, [pc, #116]	; (1000026c <hold_non_core0_in_bootrom+0xe>)
100001f8:	6800      	ldr	r0, [r0, #0]
100001fa:	2800      	cmp	r0, #0
100001fc:	d12f      	bne.n	1000025e <hold_non_core0_in_bootrom>
100001fe:	a40d      	add	r4, pc, #52	; (adr r4, 10000234 <data_cpy_table>)
10000200:	cc0e      	ldmia	r4!, {r1, r2, r3}
10000202:	2900      	cmp	r1, #0
10000204:	d002      	beq.n	1000020c <_reset_handler+0x16>
10000206:	f000 f812 	bl	1000022e <data_cpy>
1000020a:	e7f9      	b.n	10000200 <_reset_handler+0xa>
1000020c:	4918      	ldr	r1, [pc, #96]	; (10000270 <hold_non_core0_in_bootrom+0x12>)
1000020e:	4a19      	ldr	r2, [pc, #100]	; (10000274 <hold_non_core0_in_bootrom+0x16>)
10000210:	2000      	movs	r0, #0
10000212:	e000      	b.n	10000216 <bss_fill_test>

10000214 <bss_fill_loop>:
10000214:	c101      	stmia	r1!, {r0}

10000216 <bss_fill_test>:
10000216:	4291      	cmp	r1, r2
10000218:	d1fc      	bne.n	10000214 <bss_fill_loop>

1000021a <platform_entry>:
1000021a:	4917      	ldr	r1, [pc, #92]	; (10000278 <hold_non_core0_in_bootrom+0x1a>)
1000021c:	4788      	blx	r1
1000021e:	4917      	ldr	r1, [pc, #92]	; (1000027c <hold_non_core0_in_bootrom+0x1e>)
10000220:	4788      	blx	r1
10000222:	4917      	ldr	r1, [pc, #92]	; (10000280 <hold_non_core0_in_bootrom+0x22>)
10000224:	4788      	blx	r1
10000226:	be00      	bkpt	0x0000
10000228:	e7fd      	b.n	10000226 <platform_entry+0xc>

1000022a <data_cpy_loop>:
1000022a:	c901      	ldmia	r1!, {r0}
1000022c:	c201      	stmia	r2!, {r0}

1000022e <data_cpy>:
1000022e:	429a      	cmp	r2, r3
10000230:	d3fb      	bcc.n	1000022a <data_cpy_loop>
10000232:	4770      	bx	lr

10000234 <data_cpy_table>:
10000234:	10005b8c 	.word	0x10005b8c
10000238:	200000c0 	.word	0x200000c0
1000023c:	20000aac 	.word	0x20000aac
10000240:	10006578 	.word	0x10006578
10000244:	20040000 	.word	0x20040000
10000248:	20040000 	.word	0x20040000
1000024c:	10006578 	.word	0x10006578
10000250:	20041000 	.word	0x20041000
10000254:	20041000 	.word	0x20041000
10000258:	00000000 	.word	0x00000000
1000025c:	4770      	bx	lr

1000025e <hold_non_core0_in_bootrom>:
1000025e:	4809      	ldr	r0, [pc, #36]	; (10000284 <hold_non_core0_in_bootrom+0x26>)
10000260:	f001 fc98 	bl	10001b94 <rom_func_lookup>
10000264:	4700      	bx	r0
10000266:	0000      	.short	0x0000
10000268:	e000ed08 	.word	0xe000ed08
1000026c:	d0000000 	.word	0xd0000000
10000270:	20000ab0 	.word	0x20000ab0
10000274:	20001058 	.word	0x20001058
10000278:	100019d9 	.word	0x100019d9
1000027c:	100003a5 	.word	0x100003a5
10000280:	10001b01 	.word	0x10001b01
10000284:	00005657 	.word	0x00005657

10000288 <__bi_50>:
10000288:	50520006 5360b3ab 10005aa4              ..RP..`S.Z..

10000294 <__bi_38>:
10000294:	50520006 02031c86 10005ab4              ..RP.....Z..

100002a0 <__bi_30>:
100002a0:	50520006 9da22254 10005abc              ..RPT"...Z..

100002ac <__bi_22>:
100002ac:	50520005 68f465de 10006578              ..RP.e.hxe..

100002b8 <_init>:
100002b8:	b5f8      	push	{r3, r4, r5, r6, r7, lr}
100002ba:	46c0      	nop			; (mov r8, r8)

100002bc <deregister_tm_clones>:
100002bc:	4804      	ldr	r0, [pc, #16]	; (100002d0 <deregister_tm_clones+0x14>)
100002be:	4b05      	ldr	r3, [pc, #20]	; (100002d4 <deregister_tm_clones+0x18>)
100002c0:	b510      	push	{r4, lr}
100002c2:	4283      	cmp	r3, r0
100002c4:	d003      	beq.n	100002ce <deregister_tm_clones+0x12>
100002c6:	4b04      	ldr	r3, [pc, #16]	; (100002d8 <deregister_tm_clones+0x1c>)
100002c8:	2b00      	cmp	r3, #0
100002ca:	d000      	beq.n	100002ce <deregister_tm_clones+0x12>
100002cc:	4798      	blx	r3
100002ce:	bd10      	pop	{r4, pc}
100002d0:	20000aac 	.word	0x20000aac
100002d4:	20000aac 	.word	0x20000aac
100002d8:	00000000 	.word	0x00000000

100002dc <register_tm_clones>:
100002dc:	4806      	ldr	r0, [pc, #24]	; (100002f8 <register_tm_clones+0x1c>)
100002de:	4907      	ldr	r1, [pc, #28]	; (100002fc <register_tm_clones+0x20>)
100002e0:	1a09      	subs	r1, r1, r0
100002e2:	108b      	asrs	r3, r1, #2
100002e4:	0fc9      	lsrs	r1, r1, #31
100002e6:	18c9      	adds	r1, r1, r3
100002e8:	b510      	push	{r4, lr}
100002ea:	1049      	asrs	r1, r1, #1
100002ec:	d003      	beq.n	100002f6 <register_tm_clones+0x1a>
100002ee:	4b04      	ldr	r3, [pc, #16]	; (10000300 <register_tm_clones+0x24>)
100002f0:	2b00      	cmp	r3, #0
100002f2:	d000      	beq.n	100002f6 <register_tm_clones+0x1a>
100002f4:	4798      	blx	r3
100002f6:	bd10      	pop	{r4, pc}
100002f8:	20000aac 	.word	0x20000aac
100002fc:	20000aac 	.word	0x20000aac
10000300:	00000000 	.word	0x00000000

10000304 <__do_global_dtors_aux>:
10000304:	b510      	push	{r4, lr}
10000306:	4c07      	ldr	r4, [pc, #28]	; (10000324 <__do_global_dtors_aux+0x20>)
10000308:	7823      	ldrb	r3, [r4, #0]
1000030a:	2b00      	cmp	r3, #0
1000030c:	d109      	bne.n	10000322 <__do_global_dtors_aux+0x1e>
1000030e:	f7ff ffd5 	bl	100002bc <deregister_tm_clones>
10000312:	4b05      	ldr	r3, [pc, #20]	; (10000328 <__do_global_dtors_aux+0x24>)
10000314:	2b00      	cmp	r3, #0
10000316:	d002      	beq.n	1000031e <__do_global_dtors_aux+0x1a>
10000318:	4804      	ldr	r0, [pc, #16]	; (1000032c <__do_global_dtors_aux+0x28>)
1000031a:	e000      	b.n	1000031e <__do_global_dtors_aux+0x1a>
1000031c:	bf00      	nop
1000031e:	2301      	movs	r3, #1
10000320:	7023      	strb	r3, [r4, #0]
10000322:	bd10      	pop	{r4, pc}
10000324:	20000e00 	.word	0x20000e00
10000328:	00000000 	.word	0x00000000
1000032c:	10005a20 	.word	0x10005a20

10000330 <frame_dummy>:
10000330:	4b05      	ldr	r3, [pc, #20]	; (10000348 <frame_dummy+0x18>)
10000332:	b510      	push	{r4, lr}
10000334:	2b00      	cmp	r3, #0
10000336:	d003      	beq.n	10000340 <frame_dummy+0x10>
10000338:	4904      	ldr	r1, [pc, #16]	; (1000034c <frame_dummy+0x1c>)
1000033a:	4805      	ldr	r0, [pc, #20]	; (10000350 <frame_dummy+0x20>)
1000033c:	e000      	b.n	10000340 <frame_dummy+0x10>
1000033e:	bf00      	nop
10000340:	f7ff ffcc 	bl	100002dc <register_tm_clones>
10000344:	bd10      	pop	{r4, pc}
10000346:	46c0      	nop			; (mov r8, r8)
10000348:	00000000 	.word	0x00000000
1000034c:	20000e04 	.word	0x20000e04
10000350:	10005a20 	.word	0x10005a20

10000354 <led_task>:
10000354:	b570      	push	{r4, r5, r6, lr}
10000356:	2000      	movs	r0, #0
10000358:	24d0      	movs	r4, #208	; 0xd0
1000035a:	f000 f85f 	bl	1000041c <gpio_init>
1000035e:	2301      	movs	r3, #1
10000360:	2601      	movs	r6, #1
10000362:	2501      	movs	r5, #1
10000364:	0624      	lsls	r4, r4, #24
10000366:	6263      	str	r3, [r4, #36]	; 0x24
10000368:	204b      	movs	r0, #75	; 0x4b
1000036a:	61a5      	str	r5, [r4, #24]
1000036c:	f002 fd2a 	bl	10002dc4 <vTaskDelay>
10000370:	204b      	movs	r0, #75	; 0x4b
10000372:	6166      	str	r6, [r4, #20]
10000374:	f002 fd26 	bl	10002dc4 <vTaskDelay>
10000378:	e7f6      	b.n	10000368 <led_task+0x14>
1000037a:	46c0      	nop			; (mov r8, r8)

1000037c <led_task2>:
1000037c:	b570      	push	{r4, r5, r6, lr}
1000037e:	2001      	movs	r0, #1
10000380:	24d0      	movs	r4, #208	; 0xd0
10000382:	f000 f84b 	bl	1000041c <gpio_init>
10000386:	2302      	movs	r3, #2
10000388:	2602      	movs	r6, #2
1000038a:	2502      	movs	r5, #2
1000038c:	0624      	lsls	r4, r4, #24
1000038e:	6263      	str	r3, [r4, #36]	; 0x24
10000390:	200a      	movs	r0, #10
10000392:	61a5      	str	r5, [r4, #24]
10000394:	f002 fd16 	bl	10002dc4 <vTaskDelay>
10000398:	200a      	movs	r0, #10
1000039a:	6166      	str	r6, [r4, #20]
1000039c:	f002 fd12 	bl	10002dc4 <vTaskDelay>
100003a0:	e7f6      	b.n	10000390 <led_task2+0x14>
100003a2:	46c0      	nop			; (mov r8, r8)

100003a4 <main>:
100003a4:	b530      	push	{r4, r5, lr}
100003a6:	b083      	sub	sp, #12
100003a8:	f001 fe80 	bl	100020ac <stdio_init_all>
100003ac:	2500      	movs	r5, #0
100003ae:	2401      	movs	r4, #1
100003b0:	2280      	movs	r2, #128	; 0x80
100003b2:	2300      	movs	r3, #0
100003b4:	4909      	ldr	r1, [pc, #36]	; (100003dc <main+0x38>)
100003b6:	0052      	lsls	r2, r2, #1
100003b8:	4809      	ldr	r0, [pc, #36]	; (100003e0 <main+0x3c>)
100003ba:	9501      	str	r5, [sp, #4]
100003bc:	9400      	str	r4, [sp, #0]
100003be:	f002 f84f 	bl	10002460 <xTaskCreate>
100003c2:	2280      	movs	r2, #128	; 0x80
100003c4:	2300      	movs	r3, #0
100003c6:	4907      	ldr	r1, [pc, #28]	; (100003e4 <main+0x40>)
100003c8:	0052      	lsls	r2, r2, #1
100003ca:	4807      	ldr	r0, [pc, #28]	; (100003e8 <main+0x44>)
100003cc:	9501      	str	r5, [sp, #4]
100003ce:	9400      	str	r4, [sp, #0]
100003d0:	f002 f846 	bl	10002460 <xTaskCreate>
100003d4:	f002 fb56 	bl	10002a84 <vTaskStartScheduler>
100003d8:	e7fe      	b.n	100003d8 <main+0x34>
100003da:	46c0      	nop			; (mov r8, r8)
100003dc:	10005a20 	.word	0x10005a20
100003e0:	10000355 	.word	0x10000355
100003e4:	10005a2c 	.word	0x10005a2c
100003e8:	1000037d 	.word	0x1000037d

100003ec <gpio_set_function>:
100003ec:	4a09      	ldr	r2, [pc, #36]	; (10000414 <gpio_set_function+0x28>)
100003ee:	0083      	lsls	r3, r0, #2
100003f0:	4694      	mov	ip, r2
100003f2:	2240      	movs	r2, #64	; 0x40
100003f4:	4463      	add	r3, ip
100003f6:	b510      	push	{r4, lr}
100003f8:	681c      	ldr	r4, [r3, #0]
100003fa:	00c0      	lsls	r0, r0, #3
100003fc:	4062      	eors	r2, r4
100003fe:	24c0      	movs	r4, #192	; 0xc0
10000400:	4014      	ands	r4, r2
10000402:	2280      	movs	r2, #128	; 0x80
10000404:	0152      	lsls	r2, r2, #5
10000406:	4313      	orrs	r3, r2
10000408:	601c      	str	r4, [r3, #0]
1000040a:	4b03      	ldr	r3, [pc, #12]	; (10000418 <gpio_set_function+0x2c>)
1000040c:	469c      	mov	ip, r3
1000040e:	4460      	add	r0, ip
10000410:	6041      	str	r1, [r0, #4]
10000412:	bd10      	pop	{r4, pc}
10000414:	4001c004 	.word	0x4001c004
10000418:	40014000 	.word	0x40014000

1000041c <gpio_init>:
1000041c:	2301      	movs	r3, #1
1000041e:	22d0      	movs	r2, #208	; 0xd0
10000420:	4083      	lsls	r3, r0
10000422:	0612      	lsls	r2, r2, #24
10000424:	6293      	str	r3, [r2, #40]	; 0x28
10000426:	6193      	str	r3, [r2, #24]
10000428:	4a09      	ldr	r2, [pc, #36]	; (10000450 <gpio_init+0x34>)
1000042a:	0083      	lsls	r3, r0, #2
1000042c:	4694      	mov	ip, r2
1000042e:	2240      	movs	r2, #64	; 0x40
10000430:	4463      	add	r3, ip
10000432:	6819      	ldr	r1, [r3, #0]
10000434:	00c0      	lsls	r0, r0, #3
10000436:	404a      	eors	r2, r1
10000438:	21c0      	movs	r1, #192	; 0xc0
1000043a:	4011      	ands	r1, r2
1000043c:	2280      	movs	r2, #128	; 0x80
1000043e:	0152      	lsls	r2, r2, #5
10000440:	4313      	orrs	r3, r2
10000442:	6019      	str	r1, [r3, #0]
10000444:	4b03      	ldr	r3, [pc, #12]	; (10000454 <gpio_init+0x38>)
10000446:	469c      	mov	ip, r3
10000448:	2305      	movs	r3, #5
1000044a:	4460      	add	r0, ip
1000044c:	6043      	str	r3, [r0, #4]
1000044e:	4770      	bx	lr
10000450:	4001c004 	.word	0x4001c004
10000454:	40014000 	.word	0x40014000

10000458 <running_on_fpga>:
10000458:	4b02      	ldr	r3, [pc, #8]	; (10000464 <running_on_fpga+0xc>)
1000045a:	6818      	ldr	r0, [r3, #0]
1000045c:	0780      	lsls	r0, r0, #30
1000045e:	0fc0      	lsrs	r0, r0, #31
10000460:	4770      	bx	lr
10000462:	46c0      	nop			; (mov r8, r8)
10000464:	4006c000 	.word	0x4006c000

10000468 <hw_claim_or_assert>:
10000468:	b570      	push	{r4, r5, r6, lr}
1000046a:	f3ef 8c10 	mrs	ip, PRIMASK
1000046e:	b672      	cpsid	i
10000470:	4d0d      	ldr	r5, [pc, #52]	; (100004a8 <hw_claim_or_assert+0x40>)
10000472:	682b      	ldr	r3, [r5, #0]
10000474:	2b00      	cmp	r3, #0
10000476:	d0fc      	beq.n	10000472 <hw_claim_or_assert+0xa>
10000478:	f3bf 8f5f 	dmb	sy
1000047c:	2407      	movs	r4, #7
1000047e:	08cb      	lsrs	r3, r1, #3
10000480:	18c6      	adds	r6, r0, r3
10000482:	5cc0      	ldrb	r0, [r0, r3]
10000484:	2301      	movs	r3, #1
10000486:	400c      	ands	r4, r1
10000488:	40a3      	lsls	r3, r4
1000048a:	001c      	movs	r4, r3
1000048c:	4004      	ands	r4, r0
1000048e:	4203      	tst	r3, r0
10000490:	d107      	bne.n	100004a2 <hw_claim_or_assert+0x3a>
10000492:	4303      	orrs	r3, r0
10000494:	7033      	strb	r3, [r6, #0]
10000496:	f3bf 8f5f 	dmb	sy
1000049a:	602c      	str	r4, [r5, #0]
1000049c:	f38c 8810 	msr	PRIMASK, ip
100004a0:	bd70      	pop	{r4, r5, r6, pc}
100004a2:	0010      	movs	r0, r2
100004a4:	f001 fb30 	bl	10001b08 <panic>
100004a8:	d000012c 	.word	0xd000012c

100004ac <spin_locks_reset>:
100004ac:	2100      	movs	r1, #0
100004ae:	4b04      	ldr	r3, [pc, #16]	; (100004c0 <spin_locks_reset+0x14>)
100004b0:	4a04      	ldr	r2, [pc, #16]	; (100004c4 <spin_locks_reset+0x18>)
100004b2:	f3bf 8f5f 	dmb	sy
100004b6:	c302      	stmia	r3!, {r1}
100004b8:	4293      	cmp	r3, r2
100004ba:	d1fa      	bne.n	100004b2 <spin_locks_reset+0x6>
100004bc:	4770      	bx	lr
100004be:	46c0      	nop			; (mov r8, r8)
100004c0:	d0000100 	.word	0xd0000100
100004c4:	d0000180 	.word	0xd0000180

100004c8 <next_striped_spin_lock_num>:
100004c8:	4a04      	ldr	r2, [pc, #16]	; (100004dc <next_striped_spin_lock_num+0x14>)
100004ca:	7810      	ldrb	r0, [r2, #0]
100004cc:	1c43      	adds	r3, r0, #1
100004ce:	b2db      	uxtb	r3, r3
100004d0:	2b17      	cmp	r3, #23
100004d2:	d900      	bls.n	100004d6 <next_striped_spin_lock_num+0xe>
100004d4:	2310      	movs	r3, #16
100004d6:	7013      	strb	r3, [r2, #0]
100004d8:	4770      	bx	lr
100004da:	46c0      	nop			; (mov r8, r8)
100004dc:	20000198 	.word	0x20000198

100004e0 <irq_set_enabled>:
100004e0:	2301      	movs	r3, #1
100004e2:	4083      	lsls	r3, r0
100004e4:	2900      	cmp	r1, #0
100004e6:	d004      	beq.n	100004f2 <irq_set_enabled+0x12>
100004e8:	4a03      	ldr	r2, [pc, #12]	; (100004f8 <irq_set_enabled+0x18>)
100004ea:	6013      	str	r3, [r2, #0]
100004ec:	4a03      	ldr	r2, [pc, #12]	; (100004fc <irq_set_enabled+0x1c>)
100004ee:	6013      	str	r3, [r2, #0]
100004f0:	4770      	bx	lr
100004f2:	4a03      	ldr	r2, [pc, #12]	; (10000500 <irq_set_enabled+0x20>)
100004f4:	6013      	str	r3, [r2, #0]
100004f6:	e7fb      	b.n	100004f0 <irq_set_enabled+0x10>
100004f8:	e000e280 	.word	0xe000e280
100004fc:	e000e100 	.word	0xe000e100
10000500:	e000e180 	.word	0xe000e180

10000504 <irq_get_vtable_handler>:
10000504:	4b02      	ldr	r3, [pc, #8]	; (10000510 <irq_get_vtable_handler+0xc>)
10000506:	3010      	adds	r0, #16
10000508:	689b      	ldr	r3, [r3, #8]
1000050a:	0080      	lsls	r0, r0, #2
1000050c:	58c0      	ldr	r0, [r0, r3]
1000050e:	4770      	bx	lr
10000510:	e000ed00 	.word	0xe000ed00

10000514 <irq_set_exclusive_handler>:
10000514:	b570      	push	{r4, r5, r6, lr}
10000516:	000d      	movs	r5, r1
10000518:	f3ef 8610 	mrs	r6, PRIMASK
1000051c:	b672      	cpsid	i
1000051e:	4a0f      	ldr	r2, [pc, #60]	; (1000055c <irq_set_exclusive_handler+0x48>)
10000520:	6813      	ldr	r3, [r2, #0]
10000522:	2b00      	cmp	r3, #0
10000524:	d0fc      	beq.n	10000520 <irq_set_exclusive_handler+0xc>
10000526:	f3bf 8f5f 	dmb	sy
1000052a:	4b0d      	ldr	r3, [pc, #52]	; (10000560 <irq_set_exclusive_handler+0x4c>)
1000052c:	3010      	adds	r0, #16
1000052e:	689b      	ldr	r3, [r3, #8]
10000530:	0084      	lsls	r4, r0, #2
10000532:	591b      	ldr	r3, [r3, r4]
10000534:	4a0b      	ldr	r2, [pc, #44]	; (10000564 <irq_set_exclusive_handler+0x50>)
10000536:	4293      	cmp	r3, r2
10000538:	d003      	beq.n	10000542 <irq_set_exclusive_handler+0x2e>
1000053a:	429d      	cmp	r5, r3
1000053c:	d001      	beq.n	10000542 <irq_set_exclusive_handler+0x2e>
1000053e:	f001 fafb 	bl	10001b38 <hard_assertion_failure>
10000542:	4b07      	ldr	r3, [pc, #28]	; (10000560 <irq_set_exclusive_handler+0x4c>)
10000544:	689b      	ldr	r3, [r3, #8]
10000546:	511d      	str	r5, [r3, r4]
10000548:	f3bf 8f5f 	dmb	sy
1000054c:	f3bf 8f5f 	dmb	sy
10000550:	2200      	movs	r2, #0
10000552:	4b02      	ldr	r3, [pc, #8]	; (1000055c <irq_set_exclusive_handler+0x48>)
10000554:	601a      	str	r2, [r3, #0]
10000556:	f386 8810 	msr	PRIMASK, r6
1000055a:	bd70      	pop	{r4, r5, r6, pc}
1000055c:	d0000124 	.word	0xd0000124
10000560:	e000ed00 	.word	0xe000ed00
10000564:	100001cd 	.word	0x100001cd

10000568 <irq_remove_handler>:
10000568:	b5f0      	push	{r4, r5, r6, r7, lr}
1000056a:	46de      	mov	lr, fp
1000056c:	4657      	mov	r7, sl
1000056e:	464e      	mov	r6, r9
10000570:	4645      	mov	r5, r8
10000572:	b5e0      	push	{r5, r6, r7, lr}
10000574:	000c      	movs	r4, r1
10000576:	b083      	sub	sp, #12
10000578:	f3ef 8910 	mrs	r9, PRIMASK
1000057c:	b672      	cpsid	i
1000057e:	4a58      	ldr	r2, [pc, #352]	; (100006e0 <irq_remove_handler+0x178>)
10000580:	6813      	ldr	r3, [r2, #0]
10000582:	2b00      	cmp	r3, #0
10000584:	d0fc      	beq.n	10000580 <irq_remove_handler+0x18>
10000586:	f3bf 8f5f 	dmb	sy
1000058a:	4b56      	ldr	r3, [pc, #344]	; (100006e4 <irq_remove_handler+0x17c>)
1000058c:	689a      	ldr	r2, [r3, #8]
1000058e:	0003      	movs	r3, r0
10000590:	3310      	adds	r3, #16
10000592:	009f      	lsls	r7, r3, #2
10000594:	59d5      	ldr	r5, [r2, r7]
10000596:	4a54      	ldr	r2, [pc, #336]	; (100006e8 <irq_remove_handler+0x180>)
10000598:	4690      	mov	r8, r2
1000059a:	4295      	cmp	r5, r2
1000059c:	d032      	beq.n	10000604 <irq_remove_handler+0x9c>
1000059e:	42a5      	cmp	r5, r4
100005a0:	d043      	beq.n	1000062a <irq_remove_handler+0xc2>
100005a2:	4e52      	ldr	r6, [pc, #328]	; (100006ec <irq_remove_handler+0x184>)
100005a4:	1baa      	subs	r2, r5, r6
100005a6:	2a2f      	cmp	r2, #47	; 0x2f
100005a8:	d82c      	bhi.n	10000604 <irq_remove_handler+0x9c>
100005aa:	2201      	movs	r2, #1
100005ac:	4082      	lsls	r2, r0
100005ae:	4692      	mov	sl, r2
100005b0:	4651      	mov	r1, sl
100005b2:	4a4f      	ldr	r2, [pc, #316]	; (100006f0 <irq_remove_handler+0x188>)
100005b4:	6812      	ldr	r2, [r2, #0]
100005b6:	4011      	ands	r1, r2
100005b8:	9101      	str	r1, [sp, #4]
100005ba:	4651      	mov	r1, sl
100005bc:	4a4d      	ldr	r2, [pc, #308]	; (100006f4 <irq_remove_handler+0x18c>)
100005be:	6011      	str	r1, [r2, #0]
100005c0:	f3bf 8f5f 	dmb	sy
100005c4:	f3ef 8205 	mrs	r2, IPSR
100005c8:	4693      	mov	fp, r2
100005ca:	2a00      	cmp	r2, #0
100005cc:	d133      	bne.n	10000636 <irq_remove_handler+0xce>
100005ce:	2301      	movs	r3, #1
100005d0:	002a      	movs	r2, r5
100005d2:	439a      	bics	r2, r3
100005d4:	6893      	ldr	r3, [r2, #8]
100005d6:	429c      	cmp	r4, r3
100005d8:	d108      	bne.n	100005ec <irq_remove_handler+0x84>
100005da:	e077      	b.n	100006cc <irq_remove_handler+0x164>
100005dc:	004b      	lsls	r3, r1, #1
100005de:	185b      	adds	r3, r3, r1
100005e0:	009b      	lsls	r3, r3, #2
100005e2:	18f3      	adds	r3, r6, r3
100005e4:	6899      	ldr	r1, [r3, #8]
100005e6:	42a1      	cmp	r1, r4
100005e8:	d02a      	beq.n	10000640 <irq_remove_handler+0xd8>
100005ea:	001a      	movs	r2, r3
100005ec:	2106      	movs	r1, #6
100005ee:	5651      	ldrsb	r1, [r2, r1]
100005f0:	2900      	cmp	r1, #0
100005f2:	daf3      	bge.n	100005dc <irq_remove_handler+0x74>
100005f4:	9b01      	ldr	r3, [sp, #4]
100005f6:	2b00      	cmp	r3, #0
100005f8:	d019      	beq.n	1000062e <irq_remove_handler+0xc6>
100005fa:	4652      	mov	r2, sl
100005fc:	4b3e      	ldr	r3, [pc, #248]	; (100006f8 <irq_remove_handler+0x190>)
100005fe:	601a      	str	r2, [r3, #0]
10000600:	4b3b      	ldr	r3, [pc, #236]	; (100006f0 <irq_remove_handler+0x188>)
10000602:	601a      	str	r2, [r3, #0]
10000604:	4b37      	ldr	r3, [pc, #220]	; (100006e4 <irq_remove_handler+0x17c>)
10000606:	689b      	ldr	r3, [r3, #8]
10000608:	51dd      	str	r5, [r3, r7]
1000060a:	f3bf 8f5f 	dmb	sy
1000060e:	f3bf 8f5f 	dmb	sy
10000612:	2200      	movs	r2, #0
10000614:	4b32      	ldr	r3, [pc, #200]	; (100006e0 <irq_remove_handler+0x178>)
10000616:	601a      	str	r2, [r3, #0]
10000618:	f389 8810 	msr	PRIMASK, r9
1000061c:	b003      	add	sp, #12
1000061e:	bcf0      	pop	{r4, r5, r6, r7}
10000620:	46bb      	mov	fp, r7
10000622:	46b2      	mov	sl, r6
10000624:	46a9      	mov	r9, r5
10000626:	46a0      	mov	r8, r4
10000628:	bdf0      	pop	{r4, r5, r6, r7, pc}
1000062a:	0015      	movs	r5, r2
1000062c:	e7ea      	b.n	10000604 <irq_remove_handler+0x9c>
1000062e:	4652      	mov	r2, sl
10000630:	4b30      	ldr	r3, [pc, #192]	; (100006f4 <irq_remove_handler+0x18c>)
10000632:	601a      	str	r2, [r3, #0]
10000634:	e7e6      	b.n	10000604 <irq_remove_handler+0x9c>
10000636:	4293      	cmp	r3, r2
10000638:	d0c9      	beq.n	100005ce <irq_remove_handler+0x66>
1000063a:	f001 fa7d 	bl	10001b38 <hard_assertion_failure>
1000063e:	e7c6      	b.n	100005ce <irq_remove_handler+0x66>
10000640:	2106      	movs	r1, #6
10000642:	5659      	ldrsb	r1, [r3, r1]
10000644:	2900      	cmp	r1, #0
10000646:	db21      	blt.n	1000068c <irq_remove_handler+0x124>
10000648:	004a      	lsls	r2, r1, #1
1000064a:	1850      	adds	r0, r2, r1
1000064c:	0080      	lsls	r0, r0, #2
1000064e:	1834      	adds	r4, r6, r0
10000650:	4680      	mov	r8, r0
10000652:	68a0      	ldr	r0, [r4, #8]
10000654:	6098      	str	r0, [r3, #8]
10000656:	79e0      	ldrb	r0, [r4, #7]
10000658:	71d8      	strb	r0, [r3, #7]
1000065a:	2006      	movs	r0, #6
1000065c:	5620      	ldrsb	r0, [r4, r0]
1000065e:	7198      	strb	r0, [r3, #6]
10000660:	2800      	cmp	r0, #0
10000662:	db24      	blt.n	100006ae <irq_remove_handler+0x146>
10000664:	88a4      	ldrh	r4, [r4, #4]
10000666:	1af0      	subs	r0, r6, r3
10000668:	0564      	lsls	r4, r4, #21
1000066a:	1524      	asrs	r4, r4, #20
1000066c:	4444      	add	r4, r8
1000066e:	1900      	adds	r0, r0, r4
10000670:	24e0      	movs	r4, #224	; 0xe0
10000672:	0500      	lsls	r0, r0, #20
10000674:	0d40      	lsrs	r0, r0, #21
10000676:	0224      	lsls	r4, r4, #8
10000678:	4320      	orrs	r0, r4
1000067a:	8098      	strh	r0, [r3, #4]
1000067c:	1852      	adds	r2, r2, r1
1000067e:	4b1f      	ldr	r3, [pc, #124]	; (100006fc <irq_remove_handler+0x194>)
10000680:	0092      	lsls	r2, r2, #2
10000682:	18b6      	adds	r6, r6, r2
10000684:	781a      	ldrb	r2, [r3, #0]
10000686:	7019      	strb	r1, [r3, #0]
10000688:	71b2      	strb	r2, [r6, #6]
1000068a:	e7b3      	b.n	100005f4 <irq_remove_handler+0x8c>
1000068c:	4659      	mov	r1, fp
1000068e:	2900      	cmp	r1, #0
10000690:	d10f      	bne.n	100006b2 <irq_remove_handler+0x14a>
10000692:	31ff      	adds	r1, #255	; 0xff
10000694:	7191      	strb	r1, [r2, #6]
10000696:	491a      	ldr	r1, [pc, #104]	; (10000700 <irq_remove_handler+0x198>)
10000698:	8091      	strh	r1, [r2, #4]
1000069a:	4918      	ldr	r1, [pc, #96]	; (100006fc <irq_remove_handler+0x194>)
1000069c:	780a      	ldrb	r2, [r1, #0]
1000069e:	719a      	strb	r2, [r3, #6]
100006a0:	4a18      	ldr	r2, [pc, #96]	; (10000704 <irq_remove_handler+0x19c>)
100006a2:	1b9b      	subs	r3, r3, r6
100006a4:	415b      	adcs	r3, r3
100006a6:	435a      	muls	r2, r3
100006a8:	0d12      	lsrs	r2, r2, #20
100006aa:	700a      	strb	r2, [r1, #0]
100006ac:	e7a2      	b.n	100005f4 <irq_remove_handler+0x8c>
100006ae:	4816      	ldr	r0, [pc, #88]	; (10000708 <irq_remove_handler+0x1a0>)
100006b0:	e7e3      	b.n	1000067a <irq_remove_handler+0x112>
100006b2:	4a16      	ldr	r2, [pc, #88]	; (1000070c <irq_remove_handler+0x1a4>)
100006b4:	4916      	ldr	r1, [pc, #88]	; (10000710 <irq_remove_handler+0x1a8>)
100006b6:	1ad2      	subs	r2, r2, r3
100006b8:	3a08      	subs	r2, #8
100006ba:	0250      	lsls	r0, r2, #9
100006bc:	0d40      	lsrs	r0, r0, #21
100006be:	4301      	orrs	r1, r0
100006c0:	8099      	strh	r1, [r3, #4]
100006c2:	4914      	ldr	r1, [pc, #80]	; (10000714 <irq_remove_handler+0x1ac>)
100006c4:	0852      	lsrs	r2, r2, #1
100006c6:	430a      	orrs	r2, r1
100006c8:	80da      	strh	r2, [r3, #6]
100006ca:	e793      	b.n	100005f4 <irq_remove_handler+0x8c>
100006cc:	2106      	movs	r1, #6
100006ce:	5651      	ldrsb	r1, [r2, r1]
100006d0:	0013      	movs	r3, r2
100006d2:	2900      	cmp	r1, #0
100006d4:	dab8      	bge.n	10000648 <irq_remove_handler+0xe0>
100006d6:	465a      	mov	r2, fp
100006d8:	2a00      	cmp	r2, #0
100006da:	d1ea      	bne.n	100006b2 <irq_remove_handler+0x14a>
100006dc:	4645      	mov	r5, r8
100006de:	e7dc      	b.n	1000069a <irq_remove_handler+0x132>
100006e0:	d0000124 	.word	0xd0000124
100006e4:	e000ed00 	.word	0xe000ed00
100006e8:	100001cd 	.word	0x100001cd
100006ec:	2000019c 	.word	0x2000019c
100006f0:	e000e100 	.word	0xe000e100
100006f4:	e000e180 	.word	0xe000e180
100006f8:	e000e280 	.word	0xe000e280
100006fc:	20001055 	.word	0x20001055
10000700:	ffffbd01 	.word	0xffffbd01
10000704:	0000aaaa 	.word	0x0000aaaa
10000708:	0000bd01 	.word	0x0000bd01
1000070c:	200001d6 	.word	0x200001d6
10000710:	fffff000 	.word	0xfffff000
10000714:	fffff800 	.word	0xfffff800

10000718 <irq_add_tail_to_free_list>:
10000718:	b570      	push	{r4, r5, r6, lr}
1000071a:	f3ef 8105 	mrs	r1, IPSR
1000071e:	2401      	movs	r4, #1
10000720:	4304      	orrs	r4, r0
10000722:	f3ef 8c10 	mrs	ip, PRIMASK
10000726:	b672      	cpsid	i
10000728:	4a21      	ldr	r2, [pc, #132]	; (100007b0 <irq_add_tail_to_free_list+0x98>)
1000072a:	6813      	ldr	r3, [r2, #0]
1000072c:	2b00      	cmp	r3, #0
1000072e:	d0fc      	beq.n	1000072a <irq_add_tail_to_free_list+0x12>
10000730:	f3bf 8f5f 	dmb	sy
10000734:	4b1f      	ldr	r3, [pc, #124]	; (100007b4 <irq_add_tail_to_free_list+0x9c>)
10000736:	0005      	movs	r5, r0
10000738:	4a1f      	ldr	r2, [pc, #124]	; (100007b8 <irq_add_tail_to_free_list+0xa0>)
1000073a:	1aed      	subs	r5, r5, r3
1000073c:	416d      	adcs	r5, r5
1000073e:	436a      	muls	r2, r5
10000740:	0d12      	lsrs	r2, r2, #20
10000742:	4d1e      	ldr	r5, [pc, #120]	; (100007bc <irq_add_tail_to_free_list+0xa4>)
10000744:	0089      	lsls	r1, r1, #2
10000746:	68ae      	ldr	r6, [r5, #8]
10000748:	b252      	sxtb	r2, r2
1000074a:	5876      	ldr	r6, [r6, r1]
1000074c:	42a6      	cmp	r6, r4
1000074e:	d01c      	beq.n	1000078a <irq_add_tail_to_free_list+0x72>
10000750:	2106      	movs	r1, #6
10000752:	5659      	ldrsb	r1, [r3, r1]
10000754:	4291      	cmp	r1, r2
10000756:	d01c      	beq.n	10000792 <irq_add_tail_to_free_list+0x7a>
10000758:	2112      	movs	r1, #18
1000075a:	5659      	ldrsb	r1, [r3, r1]
1000075c:	4291      	cmp	r1, r2
1000075e:	d022      	beq.n	100007a6 <irq_add_tail_to_free_list+0x8e>
10000760:	211e      	movs	r1, #30
10000762:	5659      	ldrsb	r1, [r3, r1]
10000764:	4291      	cmp	r1, r2
10000766:	d020      	beq.n	100007aa <irq_add_tail_to_free_list+0x92>
10000768:	212a      	movs	r1, #42	; 0x2a
1000076a:	5659      	ldrsb	r1, [r3, r1]
1000076c:	2403      	movs	r4, #3
1000076e:	4291      	cmp	r1, r2
10000770:	d010      	beq.n	10000794 <irq_add_tail_to_free_list+0x7c>
10000772:	4b13      	ldr	r3, [pc, #76]	; (100007c0 <irq_add_tail_to_free_list+0xa8>)
10000774:	7819      	ldrb	r1, [r3, #0]
10000776:	701a      	strb	r2, [r3, #0]
10000778:	7181      	strb	r1, [r0, #6]
1000077a:	f3bf 8f5f 	dmb	sy
1000077e:	2200      	movs	r2, #0
10000780:	4b0b      	ldr	r3, [pc, #44]	; (100007b0 <irq_add_tail_to_free_list+0x98>)
10000782:	601a      	str	r2, [r3, #0]
10000784:	f38c 8810 	msr	PRIMASK, ip
10000788:	bd70      	pop	{r4, r5, r6, pc}
1000078a:	68ab      	ldr	r3, [r5, #8]
1000078c:	4c0d      	ldr	r4, [pc, #52]	; (100007c4 <irq_add_tail_to_free_list+0xac>)
1000078e:	505c      	str	r4, [r3, r1]
10000790:	e7ef      	b.n	10000772 <irq_add_tail_to_free_list+0x5a>
10000792:	2400      	movs	r4, #0
10000794:	0061      	lsls	r1, r4, #1
10000796:	1909      	adds	r1, r1, r4
10000798:	0089      	lsls	r1, r1, #2
1000079a:	185b      	adds	r3, r3, r1
1000079c:	21ff      	movs	r1, #255	; 0xff
1000079e:	7199      	strb	r1, [r3, #6]
100007a0:	4909      	ldr	r1, [pc, #36]	; (100007c8 <irq_add_tail_to_free_list+0xb0>)
100007a2:	8099      	strh	r1, [r3, #4]
100007a4:	e7e5      	b.n	10000772 <irq_add_tail_to_free_list+0x5a>
100007a6:	2401      	movs	r4, #1
100007a8:	e7f4      	b.n	10000794 <irq_add_tail_to_free_list+0x7c>
100007aa:	2402      	movs	r4, #2
100007ac:	e7f2      	b.n	10000794 <irq_add_tail_to_free_list+0x7c>
100007ae:	46c0      	nop			; (mov r8, r8)
100007b0:	d0000124 	.word	0xd0000124
100007b4:	2000019c 	.word	0x2000019c
100007b8:	0000aaaa 	.word	0x0000aaaa
100007bc:	e000ed00 	.word	0xe000ed00
100007c0:	20001055 	.word	0x20001055
100007c4:	100001cd 	.word	0x100001cd
100007c8:	ffffbd01 	.word	0xffffbd01

100007cc <irq_init_priorities>:
100007cc:	4b05      	ldr	r3, [pc, #20]	; (100007e4 <irq_init_priorities+0x18>)
100007ce:	4a06      	ldr	r2, [pc, #24]	; (100007e8 <irq_init_priorities+0x1c>)
100007d0:	6013      	str	r3, [r2, #0]
100007d2:	4a06      	ldr	r2, [pc, #24]	; (100007ec <irq_init_priorities+0x20>)
100007d4:	6013      	str	r3, [r2, #0]
100007d6:	6053      	str	r3, [r2, #4]
100007d8:	6093      	str	r3, [r2, #8]
100007da:	60d3      	str	r3, [r2, #12]
100007dc:	6113      	str	r3, [r2, #16]
100007de:	6153      	str	r3, [r2, #20]
100007e0:	6193      	str	r3, [r2, #24]
100007e2:	4770      	bx	lr
100007e4:	80808080 	.word	0x80808080
100007e8:	e000e400 	.word	0xe000e400
100007ec:	e000e404 	.word	0xe000e404

100007f0 <lock_init>:
100007f0:	4b02      	ldr	r3, [pc, #8]	; (100007fc <lock_init+0xc>)
100007f2:	469c      	mov	ip, r3
100007f4:	4461      	add	r1, ip
100007f6:	0089      	lsls	r1, r1, #2
100007f8:	6001      	str	r1, [r0, #0]
100007fa:	4770      	bx	lr
100007fc:	34000040 	.word	0x34000040

10000800 <mutex_init>:
10000800:	b510      	push	{r4, lr}
10000802:	0004      	movs	r4, r0
10000804:	f7ff fe60 	bl	100004c8 <next_striped_spin_lock_num>
10000808:	0001      	movs	r1, r0
1000080a:	0020      	movs	r0, r4
1000080c:	f7ff fff0 	bl	100007f0 <lock_init>
10000810:	23ff      	movs	r3, #255	; 0xff
10000812:	7123      	strb	r3, [r4, #4]
10000814:	f3bf 8f5f 	dmb	sy
10000818:	bd10      	pop	{r4, pc}
1000081a:	46c0      	nop			; (mov r8, r8)

1000081c <recursive_mutex_init>:
1000081c:	b510      	push	{r4, lr}
1000081e:	0004      	movs	r4, r0
10000820:	f7ff fe52 	bl	100004c8 <next_striped_spin_lock_num>
10000824:	0001      	movs	r1, r0
10000826:	0020      	movs	r0, r4
10000828:	f7ff ffe2 	bl	100007f0 <lock_init>
1000082c:	23ff      	movs	r3, #255	; 0xff
1000082e:	80a3      	strh	r3, [r4, #4]
10000830:	f3bf 8f5f 	dmb	sy
10000834:	bd10      	pop	{r4, pc}
10000836:	46c0      	nop			; (mov r8, r8)

10000838 <timer_pool_entry_comparator>:
10000838:	6883      	ldr	r3, [r0, #8]
1000083a:	480b      	ldr	r0, [pc, #44]	; (10000868 <timer_pool_entry_comparator+0x30>)
1000083c:	b510      	push	{r4, lr}
1000083e:	4684      	mov	ip, r0
10000840:	4461      	add	r1, ip
10000842:	4462      	add	r2, ip
10000844:	0109      	lsls	r1, r1, #4
10000846:	0112      	lsls	r2, r2, #4
10000848:	189a      	adds	r2, r3, r2
1000084a:	1859      	adds	r1, r3, r1
1000084c:	6854      	ldr	r4, [r2, #4]
1000084e:	684b      	ldr	r3, [r1, #4]
10000850:	2001      	movs	r0, #1
10000852:	429c      	cmp	r4, r3
10000854:	d801      	bhi.n	1000085a <timer_pool_entry_comparator+0x22>
10000856:	d002      	beq.n	1000085e <timer_pool_entry_comparator+0x26>
10000858:	2000      	movs	r0, #0
1000085a:	b2c0      	uxtb	r0, r0
1000085c:	bd10      	pop	{r4, pc}
1000085e:	6812      	ldr	r2, [r2, #0]
10000860:	680b      	ldr	r3, [r1, #0]
10000862:	429a      	cmp	r2, r3
10000864:	d8f9      	bhi.n	1000085a <timer_pool_entry_comparator+0x22>
10000866:	e7f7      	b.n	10000858 <timer_pool_entry_comparator+0x20>
10000868:	0fffffff 	.word	0x0fffffff

1000086c <sleep_until_callback>:
1000086c:	4b0a      	ldr	r3, [pc, #40]	; (10000898 <sleep_until_callback+0x2c>)
1000086e:	6819      	ldr	r1, [r3, #0]
10000870:	f3ef 8010 	mrs	r0, PRIMASK
10000874:	b672      	cpsid	i
10000876:	680a      	ldr	r2, [r1, #0]
10000878:	2a00      	cmp	r2, #0
1000087a:	d0fc      	beq.n	10000876 <sleep_until_callback+0xa>
1000087c:	f3bf 8f5f 	dmb	sy
10000880:	681b      	ldr	r3, [r3, #0]
10000882:	f3bf 8f5f 	dmb	sy
10000886:	2200      	movs	r2, #0
10000888:	601a      	str	r2, [r3, #0]
1000088a:	f380 8810 	msr	PRIMASK, r0
1000088e:	bf40      	sev
10000890:	2000      	movs	r0, #0
10000892:	2100      	movs	r1, #0
10000894:	4770      	bx	lr
10000896:	46c0      	nop			; (mov r8, r8)
10000898:	20001038 	.word	0x20001038

1000089c <add_alarm_under_lock.isra.0>:
1000089c:	b5f8      	push	{r3, r4, r5, r6, r7, lr}
1000089e:	4657      	mov	r7, sl
100008a0:	464e      	mov	r6, r9
100008a2:	4645      	mov	r5, r8
100008a4:	46de      	mov	lr, fp
100008a6:	b5e0      	push	{r5, r6, r7, lr}
100008a8:	4699      	mov	r9, r3
100008aa:	ab0c      	add	r3, sp, #48	; 0x30
100008ac:	781c      	ldrb	r4, [r3, #0]
100008ae:	ab0d      	add	r3, sp, #52	; 0x34
100008b0:	781b      	ldrb	r3, [r3, #0]
100008b2:	0006      	movs	r6, r0
100008b4:	4690      	mov	r8, r2
100008b6:	469a      	mov	sl, r3
100008b8:	6807      	ldr	r7, [r0, #0]
100008ba:	2c00      	cmp	r4, #0
100008bc:	d111      	bne.n	100008e2 <add_alarm_under_lock.isra.0+0x46>
100008be:	7bbc      	ldrb	r4, [r7, #14]
100008c0:	2c00      	cmp	r4, #0
100008c2:	d042      	beq.n	1000094a <add_alarm_under_lock.isra.0+0xae>
100008c4:	0065      	lsls	r5, r4, #1
100008c6:	683b      	ldr	r3, [r7, #0]
100008c8:	192d      	adds	r5, r5, r4
100008ca:	3d03      	subs	r5, #3
100008cc:	1959      	adds	r1, r3, r5
100008ce:	784b      	ldrb	r3, [r1, #1]
100008d0:	73bb      	strb	r3, [r7, #14]
100008d2:	2b00      	cmp	r3, #0
100008d4:	d100      	bne.n	100008d8 <add_alarm_under_lock.isra.0+0x3c>
100008d6:	73fb      	strb	r3, [r7, #15]
100008d8:	2300      	movs	r3, #0
100008da:	708b      	strb	r3, [r1, #2]
100008dc:	704b      	strb	r3, [r1, #1]
100008de:	700b      	strb	r3, [r1, #0]
100008e0:	e004      	b.n	100008ec <add_alarm_under_lock.isra.0+0x50>
100008e2:	0065      	lsls	r5, r4, #1
100008e4:	683b      	ldr	r3, [r7, #0]
100008e6:	192d      	adds	r5, r5, r4
100008e8:	3d03      	subs	r5, #3
100008ea:	1959      	adds	r1, r3, r5
100008ec:	68b2      	ldr	r2, [r6, #8]
100008ee:	4b2a      	ldr	r3, [pc, #168]	; (10000998 <add_alarm_under_lock.isra.0+0xfc>)
100008f0:	4694      	mov	ip, r2
100008f2:	4642      	mov	r2, r8
100008f4:	18e3      	adds	r3, r4, r3
100008f6:	011b      	lsls	r3, r3, #4
100008f8:	4463      	add	r3, ip
100008fa:	601a      	str	r2, [r3, #0]
100008fc:	464a      	mov	r2, r9
100008fe:	605a      	str	r2, [r3, #4]
10000900:	9a0a      	ldr	r2, [sp, #40]	; 0x28
10000902:	609a      	str	r2, [r3, #8]
10000904:	9a0b      	ldr	r2, [sp, #44]	; 0x2c
10000906:	60da      	str	r2, [r3, #12]
10000908:	2300      	movs	r3, #0
1000090a:	708b      	strb	r3, [r1, #2]
1000090c:	704b      	strb	r3, [r1, #1]
1000090e:	700b      	strb	r3, [r1, #0]
10000910:	7b7b      	ldrb	r3, [r7, #13]
10000912:	469b      	mov	fp, r3
10000914:	2b00      	cmp	r3, #0
10000916:	d02b      	beq.n	10000970 <add_alarm_under_lock.isra.0+0xd4>
10000918:	0022      	movs	r2, r4
1000091a:	4659      	mov	r1, fp
1000091c:	68b8      	ldr	r0, [r7, #8]
1000091e:	687b      	ldr	r3, [r7, #4]
10000920:	4798      	blx	r3
10000922:	683a      	ldr	r2, [r7, #0]
10000924:	2800      	cmp	r0, #0
10000926:	d016      	beq.n	10000956 <add_alarm_under_lock.isra.0+0xba>
10000928:	465b      	mov	r3, fp
1000092a:	4658      	mov	r0, fp
1000092c:	005b      	lsls	r3, r3, #1
1000092e:	445b      	add	r3, fp
10000930:	1955      	adds	r5, r2, r5
10000932:	3b03      	subs	r3, #3
10000934:	70a8      	strb	r0, [r5, #2]
10000936:	18d1      	adds	r1, r2, r3
10000938:	5cd3      	ldrb	r3, [r2, r3]
1000093a:	2b00      	cmp	r3, #0
1000093c:	d000      	beq.n	10000940 <add_alarm_under_lock.isra.0+0xa4>
1000093e:	706b      	strb	r3, [r5, #1]
10000940:	465b      	mov	r3, fp
10000942:	700c      	strb	r4, [r1, #0]
10000944:	737b      	strb	r3, [r7, #13]
10000946:	45a3      	cmp	fp, r4
10000948:	d013      	beq.n	10000972 <add_alarm_under_lock.isra.0+0xd6>
1000094a:	bcf0      	pop	{r4, r5, r6, r7}
1000094c:	46bb      	mov	fp, r7
1000094e:	46b2      	mov	sl, r6
10000950:	46a9      	mov	r9, r5
10000952:	46a0      	mov	r8, r4
10000954:	bdf8      	pop	{r3, r4, r5, r6, r7, pc}
10000956:	465b      	mov	r3, fp
10000958:	005b      	lsls	r3, r3, #1
1000095a:	445b      	add	r3, fp
1000095c:	3b03      	subs	r3, #3
1000095e:	18d3      	adds	r3, r2, r3
10000960:	709c      	strb	r4, [r3, #2]
10000962:	1951      	adds	r1, r2, r5
10000964:	5d52      	ldrb	r2, [r2, r5]
10000966:	2a00      	cmp	r2, #0
10000968:	d000      	beq.n	1000096c <add_alarm_under_lock.isra.0+0xd0>
1000096a:	705a      	strb	r2, [r3, #1]
1000096c:	465b      	mov	r3, fp
1000096e:	700b      	strb	r3, [r1, #0]
10000970:	737c      	strb	r4, [r7, #13]
10000972:	4642      	mov	r2, r8
10000974:	464b      	mov	r3, r9
10000976:	7d30      	ldrb	r0, [r6, #20]
10000978:	f000 fb2e 	bl	10000fd8 <hardware_alarm_set_target>
1000097c:	1e05      	subs	r5, r0, #0
1000097e:	d006      	beq.n	1000098e <add_alarm_under_lock.isra.0+0xf2>
10000980:	4653      	mov	r3, sl
10000982:	2b00      	cmp	r3, #0
10000984:	d103      	bne.n	1000098e <add_alarm_under_lock.isra.0+0xf2>
10000986:	0021      	movs	r1, r4
10000988:	6830      	ldr	r0, [r6, #0]
1000098a:	f000 fd49 	bl	10001420 <ph_remove_and_free_node>
1000098e:	9b0e      	ldr	r3, [sp, #56]	; 0x38
10000990:	2b00      	cmp	r3, #0
10000992:	d0da      	beq.n	1000094a <add_alarm_under_lock.isra.0+0xae>
10000994:	701d      	strb	r5, [r3, #0]
10000996:	e7d8      	b.n	1000094a <add_alarm_under_lock.isra.0+0xae>
10000998:	0fffffff 	.word	0x0fffffff

1000099c <alarm_pool_alarm_callback>:
1000099c:	b5f0      	push	{r4, r5, r6, r7, lr}
1000099e:	46de      	mov	lr, fp
100009a0:	4657      	mov	r7, sl
100009a2:	464e      	mov	r6, r9
100009a4:	4645      	mov	r5, r8
100009a6:	2300      	movs	r3, #0
100009a8:	b5e0      	push	{r5, r6, r7, lr}
100009aa:	b08b      	sub	sp, #44	; 0x2c
100009ac:	9308      	str	r3, [sp, #32]
100009ae:	4b67      	ldr	r3, [pc, #412]	; (10000b4c <alarm_pool_alarm_callback+0x1b0>)
100009b0:	0082      	lsls	r2, r0, #2
100009b2:	58d4      	ldr	r4, [r2, r3]
100009b4:	2300      	movs	r3, #0
100009b6:	469b      	mov	fp, r3
100009b8:	9009      	str	r0, [sp, #36]	; 0x24
100009ba:	f000 fa93 	bl	10000ee4 <time_us_64>
100009be:	6862      	ldr	r2, [r4, #4]
100009c0:	0006      	movs	r6, r0
100009c2:	000f      	movs	r7, r1
100009c4:	f3ef 8510 	mrs	r5, PRIMASK
100009c8:	b672      	cpsid	i
100009ca:	6813      	ldr	r3, [r2, #0]
100009cc:	2b00      	cmp	r3, #0
100009ce:	d0fc      	beq.n	100009ca <alarm_pool_alarm_callback+0x2e>
100009d0:	f3bf 8f5f 	dmb	sy
100009d4:	6823      	ldr	r3, [r4, #0]
100009d6:	469c      	mov	ip, r3
100009d8:	7b5b      	ldrb	r3, [r3, #13]
100009da:	4699      	mov	r9, r3
100009dc:	2b00      	cmp	r3, #0
100009de:	d100      	bne.n	100009e2 <alarm_pool_alarm_callback+0x46>
100009e0:	e069      	b.n	10000ab6 <alarm_pool_alarm_callback+0x11a>
100009e2:	68a2      	ldr	r2, [r4, #8]
100009e4:	4b5a      	ldr	r3, [pc, #360]	; (10000b50 <alarm_pool_alarm_callback+0x1b4>)
100009e6:	4690      	mov	r8, r2
100009e8:	444b      	add	r3, r9
100009ea:	011b      	lsls	r3, r3, #4
100009ec:	4498      	add	r8, r3
100009ee:	4643      	mov	r3, r8
100009f0:	681a      	ldr	r2, [r3, #0]
100009f2:	685b      	ldr	r3, [r3, #4]
100009f4:	0010      	movs	r0, r2
100009f6:	0019      	movs	r1, r3
100009f8:	1b80      	subs	r0, r0, r6
100009fa:	41b9      	sbcs	r1, r7
100009fc:	2900      	cmp	r1, #0
100009fe:	dc00      	bgt.n	10000a02 <alarm_pool_alarm_callback+0x66>
10000a00:	e063      	b.n	10000aca <alarm_pool_alarm_callback+0x12e>
10000a02:	9809      	ldr	r0, [sp, #36]	; 0x24
10000a04:	f000 fae8 	bl	10000fd8 <hardware_alarm_set_target>
10000a08:	2300      	movs	r3, #0
10000a0a:	2200      	movs	r2, #0
10000a0c:	4698      	mov	r8, r3
10000a0e:	2300      	movs	r3, #0
10000a10:	9206      	str	r2, [sp, #24]
10000a12:	9307      	str	r3, [sp, #28]
10000a14:	2300      	movs	r3, #0
10000a16:	469a      	mov	sl, r3
10000a18:	6863      	ldr	r3, [r4, #4]
10000a1a:	f3bf 8f5f 	dmb	sy
10000a1e:	465a      	mov	r2, fp
10000a20:	601a      	str	r2, [r3, #0]
10000a22:	f385 8810 	msr	PRIMASK, r5
10000a26:	4653      	mov	r3, sl
10000a28:	2b00      	cmp	r3, #0
10000a2a:	d108      	bne.n	10000a3e <alarm_pool_alarm_callback+0xa2>
10000a2c:	2800      	cmp	r0, #0
10000a2e:	d1c4      	bne.n	100009ba <alarm_pool_alarm_callback+0x1e>
10000a30:	b00b      	add	sp, #44	; 0x2c
10000a32:	bcf0      	pop	{r4, r5, r6, r7}
10000a34:	46bb      	mov	fp, r7
10000a36:	46b2      	mov	sl, r6
10000a38:	46a9      	mov	r9, r5
10000a3a:	46a0      	mov	r8, r4
10000a3c:	bdf0      	pop	{r4, r5, r6, r7, pc}
10000a3e:	9b08      	ldr	r3, [sp, #32]
10000a40:	4641      	mov	r1, r8
10000a42:	0218      	lsls	r0, r3, #8
10000a44:	464b      	mov	r3, r9
10000a46:	4318      	orrs	r0, r3
10000a48:	47d0      	blx	sl
10000a4a:	6862      	ldr	r2, [r4, #4]
10000a4c:	0006      	movs	r6, r0
10000a4e:	000f      	movs	r7, r1
10000a50:	f3ef 8510 	mrs	r5, PRIMASK
10000a54:	b672      	cpsid	i
10000a56:	6813      	ldr	r3, [r2, #0]
10000a58:	2b00      	cmp	r3, #0
10000a5a:	d0fc      	beq.n	10000a56 <alarm_pool_alarm_callback+0xba>
10000a5c:	f3bf 8f5f 	dmb	sy
10000a60:	2f00      	cmp	r7, #0
10000a62:	db50      	blt.n	10000b06 <alarm_pool_alarm_callback+0x16a>
10000a64:	0033      	movs	r3, r6
10000a66:	433b      	orrs	r3, r7
10000a68:	d002      	beq.n	10000a70 <alarm_pool_alarm_callback+0xd4>
10000a6a:	6923      	ldr	r3, [r4, #16]
10000a6c:	2b00      	cmp	r3, #0
10000a6e:	d161      	bne.n	10000b34 <alarm_pool_alarm_callback+0x198>
10000a70:	6823      	ldr	r3, [r4, #0]
10000a72:	7bd9      	ldrb	r1, [r3, #15]
10000a74:	2900      	cmp	r1, #0
10000a76:	d007      	beq.n	10000a88 <alarm_pool_alarm_callback+0xec>
10000a78:	004a      	lsls	r2, r1, #1
10000a7a:	1852      	adds	r2, r2, r1
10000a7c:	6819      	ldr	r1, [r3, #0]
10000a7e:	468c      	mov	ip, r1
10000a80:	4649      	mov	r1, r9
10000a82:	4462      	add	r2, ip
10000a84:	3a03      	subs	r2, #3
10000a86:	7051      	strb	r1, [r2, #1]
10000a88:	7b9a      	ldrb	r2, [r3, #14]
10000a8a:	2a00      	cmp	r2, #0
10000a8c:	d101      	bne.n	10000a92 <alarm_pool_alarm_callback+0xf6>
10000a8e:	464a      	mov	r2, r9
10000a90:	739a      	strb	r2, [r3, #14]
10000a92:	464a      	mov	r2, r9
10000a94:	73da      	strb	r2, [r3, #15]
10000a96:	464b      	mov	r3, r9
10000a98:	68e1      	ldr	r1, [r4, #12]
10000a9a:	3b01      	subs	r3, #1
10000a9c:	5cca      	ldrb	r2, [r1, r3]
10000a9e:	3201      	adds	r2, #1
10000aa0:	54ca      	strb	r2, [r1, r3]
10000aa2:	465b      	mov	r3, fp
10000aa4:	6123      	str	r3, [r4, #16]
10000aa6:	6863      	ldr	r3, [r4, #4]
10000aa8:	f3bf 8f5f 	dmb	sy
10000aac:	465a      	mov	r2, fp
10000aae:	601a      	str	r2, [r3, #0]
10000ab0:	f385 8810 	msr	PRIMASK, r5
10000ab4:	e781      	b.n	100009ba <alarm_pool_alarm_callback+0x1e>
10000ab6:	2300      	movs	r3, #0
10000ab8:	2200      	movs	r2, #0
10000aba:	4698      	mov	r8, r3
10000abc:	2300      	movs	r3, #0
10000abe:	9206      	str	r2, [sp, #24]
10000ac0:	9307      	str	r3, [sp, #28]
10000ac2:	2300      	movs	r3, #0
10000ac4:	2000      	movs	r0, #0
10000ac6:	469a      	mov	sl, r3
10000ac8:	e7a6      	b.n	10000a18 <alarm_pool_alarm_callback+0x7c>
10000aca:	2900      	cmp	r1, #0
10000acc:	d102      	bne.n	10000ad4 <alarm_pool_alarm_callback+0x138>
10000ace:	2800      	cmp	r0, #0
10000ad0:	d000      	beq.n	10000ad4 <alarm_pool_alarm_callback+0x138>
10000ad2:	e796      	b.n	10000a02 <alarm_pool_alarm_callback+0x66>
10000ad4:	2100      	movs	r1, #0
10000ad6:	4660      	mov	r0, ip
10000ad8:	f000 fc20 	bl	1000131c <ph_remove_head>
10000adc:	4643      	mov	r3, r8
10000ade:	681a      	ldr	r2, [r3, #0]
10000ae0:	685b      	ldr	r3, [r3, #4]
10000ae2:	9206      	str	r2, [sp, #24]
10000ae4:	9307      	str	r3, [sp, #28]
10000ae6:	4643      	mov	r3, r8
10000ae8:	689b      	ldr	r3, [r3, #8]
10000aea:	469a      	mov	sl, r3
10000aec:	4643      	mov	r3, r8
10000aee:	68db      	ldr	r3, [r3, #12]
10000af0:	4698      	mov	r8, r3
10000af2:	68e3      	ldr	r3, [r4, #12]
10000af4:	444b      	add	r3, r9
10000af6:	3b01      	subs	r3, #1
10000af8:	781b      	ldrb	r3, [r3, #0]
10000afa:	9308      	str	r3, [sp, #32]
10000afc:	021b      	lsls	r3, r3, #8
10000afe:	4303      	orrs	r3, r0
10000b00:	6123      	str	r3, [r4, #16]
10000b02:	2000      	movs	r0, #0
10000b04:	e788      	b.n	10000a18 <alarm_pool_alarm_callback+0x7c>
10000b06:	6923      	ldr	r3, [r4, #16]
10000b08:	2b00      	cmp	r3, #0
10000b0a:	d0b1      	beq.n	10000a70 <alarm_pool_alarm_callback+0xd4>
10000b0c:	9a06      	ldr	r2, [sp, #24]
10000b0e:	9b07      	ldr	r3, [sp, #28]
10000b10:	1b92      	subs	r2, r2, r6
10000b12:	41bb      	sbcs	r3, r7
10000b14:	2b00      	cmp	r3, #0
10000b16:	db15      	blt.n	10000b44 <alarm_pool_alarm_callback+0x1a8>
10000b18:	4659      	mov	r1, fp
10000b1a:	9104      	str	r1, [sp, #16]
10000b1c:	2101      	movs	r1, #1
10000b1e:	9103      	str	r1, [sp, #12]
10000b20:	4649      	mov	r1, r9
10000b22:	9102      	str	r1, [sp, #8]
10000b24:	4641      	mov	r1, r8
10000b26:	9101      	str	r1, [sp, #4]
10000b28:	4651      	mov	r1, sl
10000b2a:	0020      	movs	r0, r4
10000b2c:	9100      	str	r1, [sp, #0]
10000b2e:	f7ff feb5 	bl	1000089c <add_alarm_under_lock.isra.0>
10000b32:	e7b6      	b.n	10000aa2 <alarm_pool_alarm_callback+0x106>
10000b34:	f000 f9d6 	bl	10000ee4 <time_us_64>
10000b38:	0032      	movs	r2, r6
10000b3a:	003b      	movs	r3, r7
10000b3c:	1812      	adds	r2, r2, r0
10000b3e:	414b      	adcs	r3, r1
10000b40:	2b00      	cmp	r3, #0
10000b42:	dae9      	bge.n	10000b18 <alarm_pool_alarm_callback+0x17c>
10000b44:	2201      	movs	r2, #1
10000b46:	4b03      	ldr	r3, [pc, #12]	; (10000b54 <alarm_pool_alarm_callback+0x1b8>)
10000b48:	4252      	negs	r2, r2
10000b4a:	e7e5      	b.n	10000b18 <alarm_pool_alarm_callback+0x17c>
10000b4c:	20001024 	.word	0x20001024
10000b50:	0fffffff 	.word	0x0fffffff
10000b54:	7fffffff 	.word	0x7fffffff

10000b58 <alarm_pool_init_default>:
10000b58:	b510      	push	{r4, lr}
10000b5a:	4c14      	ldr	r4, [pc, #80]	; (10000bac <alarm_pool_init_default+0x54>)
10000b5c:	6863      	ldr	r3, [r4, #4]
10000b5e:	2b00      	cmp	r3, #0
10000b60:	d004      	beq.n	10000b6c <alarm_pool_init_default+0x14>
10000b62:	210a      	movs	r1, #10
10000b64:	4812      	ldr	r0, [pc, #72]	; (10000bb0 <alarm_pool_init_default+0x58>)
10000b66:	f7ff fe43 	bl	100007f0 <lock_init>
10000b6a:	bd10      	pop	{r4, pc}
10000b6c:	0023      	movs	r3, r4
10000b6e:	4a11      	ldr	r2, [pc, #68]	; (10000bb4 <alarm_pool_init_default+0x5c>)
10000b70:	2110      	movs	r1, #16
10000b72:	6820      	ldr	r0, [r4, #0]
10000b74:	f000 faec 	bl	10001150 <ph_post_alloc_init>
10000b78:	2003      	movs	r0, #3
10000b7a:	f000 f9a7 	bl	10000ecc <hardware_alarm_claim>
10000b7e:	2003      	movs	r0, #3
10000b80:	f000 fa94 	bl	100010ac <hardware_alarm_cancel>
10000b84:	2003      	movs	r0, #3
10000b86:	490c      	ldr	r1, [pc, #48]	; (10000bb8 <alarm_pool_init_default+0x60>)
10000b88:	f000 f9e0 	bl	10000f4c <hardware_alarm_set_callback>
10000b8c:	f7ff fc9c 	bl	100004c8 <next_striped_spin_lock_num>
10000b90:	4b0a      	ldr	r3, [pc, #40]	; (10000bbc <alarm_pool_init_default+0x64>)
10000b92:	469c      	mov	ip, r3
10000b94:	2303      	movs	r3, #3
10000b96:	7523      	strb	r3, [r4, #20]
10000b98:	23d0      	movs	r3, #208	; 0xd0
10000b9a:	061b      	lsls	r3, r3, #24
10000b9c:	681b      	ldr	r3, [r3, #0]
10000b9e:	4460      	add	r0, ip
10000ba0:	7563      	strb	r3, [r4, #21]
10000ba2:	4b07      	ldr	r3, [pc, #28]	; (10000bc0 <alarm_pool_init_default+0x68>)
10000ba4:	0080      	lsls	r0, r0, #2
10000ba6:	6060      	str	r0, [r4, #4]
10000ba8:	60dc      	str	r4, [r3, #12]
10000baa:	e7da      	b.n	10000b62 <alarm_pool_init_default+0xa>
10000bac:	200001e4 	.word	0x200001e4
10000bb0:	20001038 	.word	0x20001038
10000bb4:	10000839 	.word	0x10000839
10000bb8:	1000099d 	.word	0x1000099d
10000bbc:	34000040 	.word	0x34000040
10000bc0:	20001024 	.word	0x20001024

10000bc4 <alarm_pool_add_alarm_at>:
10000bc4:	b5f0      	push	{r4, r5, r6, r7, lr}
10000bc6:	464e      	mov	r6, r9
10000bc8:	4645      	mov	r5, r8
10000bca:	46de      	mov	lr, fp
10000bcc:	4657      	mov	r7, sl
10000bce:	b5e0      	push	{r5, r6, r7, lr}
10000bd0:	b085      	sub	sp, #20
10000bd2:	9301      	str	r3, [sp, #4]
10000bd4:	ab10      	add	r3, sp, #64	; 0x40
10000bd6:	781b      	ldrb	r3, [r3, #0]
10000bd8:	0006      	movs	r6, r0
10000bda:	9303      	str	r3, [sp, #12]
10000bdc:	2300      	movs	r3, #0
10000bde:	4699      	mov	r9, r3
10000be0:	4698      	mov	r8, r3
10000be2:	9200      	str	r2, [sp, #0]
10000be4:	6872      	ldr	r2, [r6, #4]
10000be6:	f3ef 8b10 	mrs	fp, PRIMASK
10000bea:	b672      	cpsid	i
10000bec:	6813      	ldr	r3, [r2, #0]
10000bee:	2b00      	cmp	r3, #0
10000bf0:	d0fc      	beq.n	10000bec <alarm_pool_add_alarm_at+0x28>
10000bf2:	f3bf 8f5f 	dmb	sy
10000bf6:	6835      	ldr	r5, [r6, #0]
10000bf8:	7bac      	ldrb	r4, [r5, #14]
10000bfa:	2c00      	cmp	r4, #0
10000bfc:	d03d      	beq.n	10000c7a <alarm_pool_add_alarm_at+0xb6>
10000bfe:	0067      	lsls	r7, r4, #1
10000c00:	682b      	ldr	r3, [r5, #0]
10000c02:	193f      	adds	r7, r7, r4
10000c04:	3f03      	subs	r7, #3
10000c06:	19db      	adds	r3, r3, r7
10000c08:	785a      	ldrb	r2, [r3, #1]
10000c0a:	73aa      	strb	r2, [r5, #14]
10000c0c:	2a00      	cmp	r2, #0
10000c0e:	d100      	bne.n	10000c12 <alarm_pool_add_alarm_at+0x4e>
10000c10:	73ea      	strb	r2, [r5, #15]
10000c12:	68b1      	ldr	r1, [r6, #8]
10000c14:	4a47      	ldr	r2, [pc, #284]	; (10000d34 <alarm_pool_add_alarm_at+0x170>)
10000c16:	468c      	mov	ip, r1
10000c18:	9800      	ldr	r0, [sp, #0]
10000c1a:	9901      	ldr	r1, [sp, #4]
10000c1c:	18a2      	adds	r2, r4, r2
10000c1e:	0112      	lsls	r2, r2, #4
10000c20:	4462      	add	r2, ip
10000c22:	6010      	str	r0, [r2, #0]
10000c24:	6051      	str	r1, [r2, #4]
10000c26:	990e      	ldr	r1, [sp, #56]	; 0x38
10000c28:	6091      	str	r1, [r2, #8]
10000c2a:	990f      	ldr	r1, [sp, #60]	; 0x3c
10000c2c:	60d1      	str	r1, [r2, #12]
10000c2e:	4642      	mov	r2, r8
10000c30:	709a      	strb	r2, [r3, #2]
10000c32:	705a      	strb	r2, [r3, #1]
10000c34:	701a      	strb	r2, [r3, #0]
10000c36:	7b6b      	ldrb	r3, [r5, #13]
10000c38:	469a      	mov	sl, r3
10000c3a:	2b00      	cmp	r3, #0
10000c3c:	d067      	beq.n	10000d0e <alarm_pool_add_alarm_at+0x14a>
10000c3e:	0022      	movs	r2, r4
10000c40:	0019      	movs	r1, r3
10000c42:	68a8      	ldr	r0, [r5, #8]
10000c44:	686b      	ldr	r3, [r5, #4]
10000c46:	4798      	blx	r3
10000c48:	682a      	ldr	r2, [r5, #0]
10000c4a:	2800      	cmp	r0, #0
10000c4c:	d052      	beq.n	10000cf4 <alarm_pool_add_alarm_at+0x130>
10000c4e:	4653      	mov	r3, sl
10000c50:	4650      	mov	r0, sl
10000c52:	005b      	lsls	r3, r3, #1
10000c54:	4453      	add	r3, sl
10000c56:	19d7      	adds	r7, r2, r7
10000c58:	3b03      	subs	r3, #3
10000c5a:	70b8      	strb	r0, [r7, #2]
10000c5c:	18d1      	adds	r1, r2, r3
10000c5e:	5cd3      	ldrb	r3, [r2, r3]
10000c60:	2b00      	cmp	r3, #0
10000c62:	d000      	beq.n	10000c66 <alarm_pool_add_alarm_at+0xa2>
10000c64:	707b      	strb	r3, [r7, #1]
10000c66:	4653      	mov	r3, sl
10000c68:	700c      	strb	r4, [r1, #0]
10000c6a:	736b      	strb	r3, [r5, #13]
10000c6c:	4554      	cmp	r4, sl
10000c6e:	d04f      	beq.n	10000d10 <alarm_pool_add_alarm_at+0x14c>
10000c70:	68f3      	ldr	r3, [r6, #12]
10000c72:	191b      	adds	r3, r3, r4
10000c74:	3b01      	subs	r3, #1
10000c76:	7818      	ldrb	r0, [r3, #0]
10000c78:	e000      	b.n	10000c7c <alarm_pool_add_alarm_at+0xb8>
10000c7a:	2000      	movs	r0, #0
10000c7c:	6873      	ldr	r3, [r6, #4]
10000c7e:	f3bf 8f5f 	dmb	sy
10000c82:	4642      	mov	r2, r8
10000c84:	601a      	str	r2, [r3, #0]
10000c86:	f38b 8810 	msr	PRIMASK, fp
10000c8a:	2c00      	cmp	r4, #0
10000c8c:	d04f      	beq.n	10000d2e <alarm_pool_add_alarm_at+0x16a>
10000c8e:	464b      	mov	r3, r9
10000c90:	2b00      	cmp	r3, #0
10000c92:	d108      	bne.n	10000ca6 <alarm_pool_add_alarm_at+0xe2>
10000c94:	0200      	lsls	r0, r0, #8
10000c96:	4320      	orrs	r0, r4
10000c98:	b005      	add	sp, #20
10000c9a:	bcf0      	pop	{r4, r5, r6, r7}
10000c9c:	46bb      	mov	fp, r7
10000c9e:	46b2      	mov	sl, r6
10000ca0:	46a9      	mov	r9, r5
10000ca2:	46a0      	mov	r8, r4
10000ca4:	bdf0      	pop	{r4, r5, r6, r7, pc}
10000ca6:	9b03      	ldr	r3, [sp, #12]
10000ca8:	2b00      	cmp	r3, #0
10000caa:	d03e      	beq.n	10000d2a <alarm_pool_add_alarm_at+0x166>
10000cac:	9b0e      	ldr	r3, [sp, #56]	; 0x38
10000cae:	2000      	movs	r0, #0
10000cb0:	990f      	ldr	r1, [sp, #60]	; 0x3c
10000cb2:	4798      	blx	r3
10000cb4:	0003      	movs	r3, r0
10000cb6:	0004      	movs	r4, r0
10000cb8:	000d      	movs	r5, r1
10000cba:	430b      	orrs	r3, r1
10000cbc:	d035      	beq.n	10000d2a <alarm_pool_add_alarm_at+0x166>
10000cbe:	2900      	cmp	r1, #0
10000cc0:	da0a      	bge.n	10000cd8 <alarm_pool_add_alarm_at+0x114>
10000cc2:	9a00      	ldr	r2, [sp, #0]
10000cc4:	9b01      	ldr	r3, [sp, #4]
10000cc6:	1b12      	subs	r2, r2, r4
10000cc8:	41ab      	sbcs	r3, r5
10000cca:	9200      	str	r2, [sp, #0]
10000ccc:	9301      	str	r3, [sp, #4]
10000cce:	2b00      	cmp	r3, #0
10000cd0:	db0a      	blt.n	10000ce8 <alarm_pool_add_alarm_at+0x124>
10000cd2:	9b03      	ldr	r3, [sp, #12]
10000cd4:	4699      	mov	r9, r3
10000cd6:	e785      	b.n	10000be4 <alarm_pool_add_alarm_at+0x20>
10000cd8:	f000 f904 	bl	10000ee4 <time_us_64>
10000cdc:	1824      	adds	r4, r4, r0
10000cde:	414d      	adcs	r5, r1
10000ce0:	9400      	str	r4, [sp, #0]
10000ce2:	9501      	str	r5, [sp, #4]
10000ce4:	2d00      	cmp	r5, #0
10000ce6:	daf4      	bge.n	10000cd2 <alarm_pool_add_alarm_at+0x10e>
10000ce8:	2301      	movs	r3, #1
10000cea:	4c13      	ldr	r4, [pc, #76]	; (10000d38 <alarm_pool_add_alarm_at+0x174>)
10000cec:	425b      	negs	r3, r3
10000cee:	9300      	str	r3, [sp, #0]
10000cf0:	9401      	str	r4, [sp, #4]
10000cf2:	e7ee      	b.n	10000cd2 <alarm_pool_add_alarm_at+0x10e>
10000cf4:	4653      	mov	r3, sl
10000cf6:	005b      	lsls	r3, r3, #1
10000cf8:	4453      	add	r3, sl
10000cfa:	3b03      	subs	r3, #3
10000cfc:	18d3      	adds	r3, r2, r3
10000cfe:	709c      	strb	r4, [r3, #2]
10000d00:	19d1      	adds	r1, r2, r7
10000d02:	5dd2      	ldrb	r2, [r2, r7]
10000d04:	2a00      	cmp	r2, #0
10000d06:	d000      	beq.n	10000d0a <alarm_pool_add_alarm_at+0x146>
10000d08:	705a      	strb	r2, [r3, #1]
10000d0a:	4653      	mov	r3, sl
10000d0c:	700b      	strb	r3, [r1, #0]
10000d0e:	736c      	strb	r4, [r5, #13]
10000d10:	7d30      	ldrb	r0, [r6, #20]
10000d12:	9a00      	ldr	r2, [sp, #0]
10000d14:	9b01      	ldr	r3, [sp, #4]
10000d16:	f000 f95f 	bl	10000fd8 <hardware_alarm_set_target>
10000d1a:	4681      	mov	r9, r0
10000d1c:	2800      	cmp	r0, #0
10000d1e:	d0a7      	beq.n	10000c70 <alarm_pool_add_alarm_at+0xac>
10000d20:	0021      	movs	r1, r4
10000d22:	6830      	ldr	r0, [r6, #0]
10000d24:	f000 fb7c 	bl	10001420 <ph_remove_and_free_node>
10000d28:	e7a2      	b.n	10000c70 <alarm_pool_add_alarm_at+0xac>
10000d2a:	2000      	movs	r0, #0
10000d2c:	e7b4      	b.n	10000c98 <alarm_pool_add_alarm_at+0xd4>
10000d2e:	2001      	movs	r0, #1
10000d30:	4240      	negs	r0, r0
10000d32:	e7b1      	b.n	10000c98 <alarm_pool_add_alarm_at+0xd4>
10000d34:	0fffffff 	.word	0x0fffffff
10000d38:	7fffffff 	.word	0x7fffffff

10000d3c <best_effort_wfe_or_timeout>:
10000d3c:	b5f0      	push	{r4, r5, r6, r7, lr}
10000d3e:	f3ef 8305 	mrs	r3, IPSR
10000d42:	46ce      	mov	lr, r9
10000d44:	4647      	mov	r7, r8
10000d46:	b580      	push	{r7, lr}
10000d48:	0005      	movs	r5, r0
10000d4a:	000c      	movs	r4, r1
10000d4c:	b085      	sub	sp, #20
10000d4e:	2b00      	cmp	r3, #0
10000d50:	d012      	beq.n	10000d78 <best_effort_wfe_or_timeout+0x3c>
10000d52:	4a2c      	ldr	r2, [pc, #176]	; (10000e04 <best_effort_wfe_or_timeout+0xc8>)
10000d54:	2000      	movs	r0, #0
10000d56:	6a53      	ldr	r3, [r2, #36]	; 0x24
10000d58:	429c      	cmp	r4, r3
10000d5a:	d803      	bhi.n	10000d64 <best_effort_wfe_or_timeout+0x28>
10000d5c:	6a92      	ldr	r2, [r2, #40]	; 0x28
10000d5e:	3001      	adds	r0, #1
10000d60:	42aa      	cmp	r2, r5
10000d62:	d304      	bcc.n	10000d6e <best_effort_wfe_or_timeout+0x32>
10000d64:	b005      	add	sp, #20
10000d66:	bcc0      	pop	{r6, r7}
10000d68:	46b9      	mov	r9, r7
10000d6a:	46b0      	mov	r8, r6
10000d6c:	bdf0      	pop	{r4, r5, r6, r7, pc}
10000d6e:	1ae0      	subs	r0, r4, r3
10000d70:	1e42      	subs	r2, r0, #1
10000d72:	4190      	sbcs	r0, r2
10000d74:	b2c0      	uxtb	r0, r0
10000d76:	e7f5      	b.n	10000d64 <best_effort_wfe_or_timeout+0x28>
10000d78:	4e23      	ldr	r6, [pc, #140]	; (10000e08 <best_effort_wfe_or_timeout+0xcc>)
10000d7a:	9302      	str	r3, [sp, #8]
10000d7c:	9301      	str	r3, [sp, #4]
10000d7e:	4b23      	ldr	r3, [pc, #140]	; (10000e0c <best_effort_wfe_or_timeout+0xd0>)
10000d80:	0002      	movs	r2, r0
10000d82:	9300      	str	r3, [sp, #0]
10000d84:	0030      	movs	r0, r6
10000d86:	000b      	movs	r3, r1
10000d88:	f7ff ff1c 	bl	10000bc4 <alarm_pool_add_alarm_at>
10000d8c:	1e03      	subs	r3, r0, #0
10000d8e:	dde0      	ble.n	10000d52 <best_effort_wfe_or_timeout+0x16>
10000d90:	bf20      	wfe
10000d92:	6871      	ldr	r1, [r6, #4]
10000d94:	f3ef 8710 	mrs	r7, PRIMASK
10000d98:	b672      	cpsid	i
10000d9a:	680a      	ldr	r2, [r1, #0]
10000d9c:	2a00      	cmp	r2, #0
10000d9e:	d0fc      	beq.n	10000d9a <best_effort_wfe_or_timeout+0x5e>
10000da0:	f3bf 8f5f 	dmb	sy
10000da4:	b2da      	uxtb	r2, r3
10000da6:	4694      	mov	ip, r2
10000da8:	6830      	ldr	r0, [r6, #0]
10000daa:	7b42      	ldrb	r2, [r0, #13]
10000dac:	4562      	cmp	r2, ip
10000dae:	d01d      	beq.n	10000dec <best_effort_wfe_or_timeout+0xb0>
10000db0:	22ff      	movs	r2, #255	; 0xff
10000db2:	401a      	ands	r2, r3
10000db4:	0051      	lsls	r1, r2, #1
10000db6:	4689      	mov	r9, r1
10000db8:	6801      	ldr	r1, [r0, #0]
10000dba:	4491      	add	r9, r2
10000dbc:	4688      	mov	r8, r1
10000dbe:	4649      	mov	r1, r9
10000dc0:	4441      	add	r1, r8
10000dc2:	3903      	subs	r1, #3
10000dc4:	7889      	ldrb	r1, [r1, #2]
10000dc6:	2900      	cmp	r1, #0
10000dc8:	d013      	beq.n	10000df2 <best_effort_wfe_or_timeout+0xb6>
10000dca:	68f1      	ldr	r1, [r6, #12]
10000dcc:	0a1b      	lsrs	r3, r3, #8
10000dce:	4688      	mov	r8, r1
10000dd0:	4442      	add	r2, r8
10000dd2:	3a01      	subs	r2, #1
10000dd4:	7812      	ldrb	r2, [r2, #0]
10000dd6:	b2db      	uxtb	r3, r3
10000dd8:	429a      	cmp	r2, r3
10000dda:	d00f      	beq.n	10000dfc <best_effort_wfe_or_timeout+0xc0>
10000ddc:	6873      	ldr	r3, [r6, #4]
10000dde:	f3bf 8f5f 	dmb	sy
10000de2:	2200      	movs	r2, #0
10000de4:	601a      	str	r2, [r3, #0]
10000de6:	f387 8810 	msr	PRIMASK, r7
10000dea:	e7b2      	b.n	10000d52 <best_effort_wfe_or_timeout+0x16>
10000dec:	22ff      	movs	r2, #255	; 0xff
10000dee:	401a      	ands	r2, r3
10000df0:	e7eb      	b.n	10000dca <best_effort_wfe_or_timeout+0x8e>
10000df2:	6932      	ldr	r2, [r6, #16]
10000df4:	4293      	cmp	r3, r2
10000df6:	d1f1      	bne.n	10000ddc <best_effort_wfe_or_timeout+0xa0>
10000df8:	6131      	str	r1, [r6, #16]
10000dfa:	e7ef      	b.n	10000ddc <best_effort_wfe_or_timeout+0xa0>
10000dfc:	4661      	mov	r1, ip
10000dfe:	f000 fb0f 	bl	10001420 <ph_remove_and_free_node>
10000e02:	e7eb      	b.n	10000ddc <best_effort_wfe_or_timeout+0xa0>
10000e04:	40054000 	.word	0x40054000
10000e08:	200001e4 	.word	0x200001e4
10000e0c:	1000086d 	.word	0x1000086d

10000e10 <hardware_alarm_irq_handler>:
10000e10:	b5f0      	push	{r4, r5, r6, r7, lr}
10000e12:	f3ef 8205 	mrs	r2, IPSR
10000e16:	46d6      	mov	lr, sl
10000e18:	464f      	mov	r7, r9
10000e1a:	4646      	mov	r6, r8
10000e1c:	0010      	movs	r0, r2
10000e1e:	b5c0      	push	{r6, r7, lr}
10000e20:	3810      	subs	r0, #16
10000e22:	f3ef 8810 	mrs	r8, PRIMASK
10000e26:	b672      	cpsid	i
10000e28:	4c21      	ldr	r4, [pc, #132]	; (10000eb0 <hardware_alarm_irq_handler+0xa0>)
10000e2a:	6823      	ldr	r3, [r4, #0]
10000e2c:	2b00      	cmp	r3, #0
10000e2e:	d0fc      	beq.n	10000e2a <hardware_alarm_irq_handler+0x1a>
10000e30:	f3bf 8f5f 	dmb	sy
10000e34:	2301      	movs	r3, #1
10000e36:	0019      	movs	r1, r3
10000e38:	4081      	lsls	r1, r0
10000e3a:	4d1e      	ldr	r5, [pc, #120]	; (10000eb4 <hardware_alarm_irq_handler+0xa4>)
10000e3c:	001f      	movs	r7, r3
10000e3e:	6369      	str	r1, [r5, #52]	; 0x34
10000e40:	46aa      	mov	sl, r5
10000e42:	4d1d      	ldr	r5, [pc, #116]	; (10000eb8 <hardware_alarm_irq_handler+0xa8>)
10000e44:	6029      	str	r1, [r5, #0]
10000e46:	4d1d      	ldr	r5, [pc, #116]	; (10000ebc <hardware_alarm_irq_handler+0xac>)
10000e48:	782e      	ldrb	r6, [r5, #0]
10000e4a:	46ac      	mov	ip, r5
10000e4c:	0035      	movs	r5, r6
10000e4e:	40c5      	lsrs	r5, r0
10000e50:	402f      	ands	r7, r5
10000e52:	422b      	tst	r3, r5
10000e54:	d109      	bne.n	10000e6a <hardware_alarm_irq_handler+0x5a>
10000e56:	f3bf 8f5f 	dmb	sy
10000e5a:	6027      	str	r7, [r4, #0]
10000e5c:	f388 8810 	msr	PRIMASK, r8
10000e60:	bce0      	pop	{r5, r6, r7}
10000e62:	46ba      	mov	sl, r7
10000e64:	46b1      	mov	r9, r6
10000e66:	46a8      	mov	r8, r5
10000e68:	bdf0      	pop	{r4, r5, r6, r7, pc}
10000e6a:	4653      	mov	r3, sl
10000e6c:	4d14      	ldr	r5, [pc, #80]	; (10000ec0 <hardware_alarm_irq_handler+0xb0>)
10000e6e:	6a5f      	ldr	r7, [r3, #36]	; 0x24
10000e70:	0083      	lsls	r3, r0, #2
10000e72:	595d      	ldr	r5, [r3, r5]
10000e74:	42af      	cmp	r7, r5
10000e76:	d30e      	bcc.n	10000e96 <hardware_alarm_irq_handler+0x86>
10000e78:	4a12      	ldr	r2, [pc, #72]	; (10000ec4 <hardware_alarm_irq_handler+0xb4>)
10000e7a:	438e      	bics	r6, r1
10000e7c:	589b      	ldr	r3, [r3, r2]
10000e7e:	4662      	mov	r2, ip
10000e80:	7016      	strb	r6, [r2, #0]
10000e82:	f3bf 8f5f 	dmb	sy
10000e86:	2200      	movs	r2, #0
10000e88:	6022      	str	r2, [r4, #0]
10000e8a:	f388 8810 	msr	PRIMASK, r8
10000e8e:	2b00      	cmp	r3, #0
10000e90:	d0e6      	beq.n	10000e60 <hardware_alarm_irq_handler+0x50>
10000e92:	4798      	blx	r3
10000e94:	e7e4      	b.n	10000e60 <hardware_alarm_irq_handler+0x50>
10000e96:	4b0c      	ldr	r3, [pc, #48]	; (10000ec8 <hardware_alarm_irq_handler+0xb8>)
10000e98:	0092      	lsls	r2, r2, #2
10000e9a:	469c      	mov	ip, r3
10000e9c:	4462      	add	r2, ip
10000e9e:	6813      	ldr	r3, [r2, #0]
10000ea0:	6013      	str	r3, [r2, #0]
10000ea2:	f3bf 8f5f 	dmb	sy
10000ea6:	2300      	movs	r3, #0
10000ea8:	6023      	str	r3, [r4, #0]
10000eaa:	f388 8810 	msr	PRIMASK, r8
10000eae:	e7d7      	b.n	10000e60 <hardware_alarm_irq_handler+0x50>
10000eb0:	d0000128 	.word	0xd0000128
10000eb4:	40054000 	.word	0x40054000
10000eb8:	4005703c 	.word	0x4005703c
10000ebc:	20001056 	.word	0x20001056
10000ec0:	2000103c 	.word	0x2000103c
10000ec4:	20000f94 	.word	0x20000f94
10000ec8:	40053fd0 	.word	0x40053fd0

10000ecc <hardware_alarm_claim>:
10000ecc:	b510      	push	{r4, lr}
10000ece:	0001      	movs	r1, r0
10000ed0:	4a02      	ldr	r2, [pc, #8]	; (10000edc <hardware_alarm_claim+0x10>)
10000ed2:	4803      	ldr	r0, [pc, #12]	; (10000ee0 <hardware_alarm_claim+0x14>)
10000ed4:	f7ff fac8 	bl	10000468 <hw_claim_or_assert>
10000ed8:	bd10      	pop	{r4, pc}
10000eda:	46c0      	nop			; (mov r8, r8)
10000edc:	10005a38 	.word	0x10005a38
10000ee0:	20001054 	.word	0x20001054

10000ee4 <time_us_64>:
10000ee4:	4b03      	ldr	r3, [pc, #12]	; (10000ef4 <time_us_64+0x10>)
10000ee6:	6a59      	ldr	r1, [r3, #36]	; 0x24
10000ee8:	000a      	movs	r2, r1
10000eea:	6a98      	ldr	r0, [r3, #40]	; 0x28
10000eec:	6a59      	ldr	r1, [r3, #36]	; 0x24
10000eee:	428a      	cmp	r2, r1
10000ef0:	d1fa      	bne.n	10000ee8 <time_us_64+0x4>
10000ef2:	4770      	bx	lr
10000ef4:	40054000 	.word	0x40054000

10000ef8 <busy_wait_us>:
10000ef8:	b570      	push	{r4, r5, r6, lr}
10000efa:	0004      	movs	r4, r0
10000efc:	000d      	movs	r5, r1
10000efe:	4a12      	ldr	r2, [pc, #72]	; (10000f48 <busy_wait_us+0x50>)
10000f00:	6a53      	ldr	r3, [r2, #36]	; 0x24
10000f02:	0019      	movs	r1, r3
10000f04:	6a96      	ldr	r6, [r2, #40]	; 0x28
10000f06:	6a53      	ldr	r3, [r2, #36]	; 0x24
10000f08:	428b      	cmp	r3, r1
10000f0a:	d1fa      	bne.n	10000f02 <busy_wait_us+0xa>
10000f0c:	0030      	movs	r0, r6
10000f0e:	0019      	movs	r1, r3
10000f10:	1824      	adds	r4, r4, r0
10000f12:	414d      	adcs	r5, r1
10000f14:	42ab      	cmp	r3, r5
10000f16:	d811      	bhi.n	10000f3c <busy_wait_us+0x44>
10000f18:	d00e      	beq.n	10000f38 <busy_wait_us+0x40>
10000f1a:	002b      	movs	r3, r5
10000f1c:	490a      	ldr	r1, [pc, #40]	; (10000f48 <busy_wait_us+0x50>)
10000f1e:	6a4a      	ldr	r2, [r1, #36]	; 0x24
10000f20:	429a      	cmp	r2, r3
10000f22:	d3fc      	bcc.n	10000f1e <busy_wait_us+0x26>
10000f24:	d107      	bne.n	10000f36 <busy_wait_us+0x3e>
10000f26:	4a08      	ldr	r2, [pc, #32]	; (10000f48 <busy_wait_us+0x50>)
10000f28:	e002      	b.n	10000f30 <busy_wait_us+0x38>
10000f2a:	6a51      	ldr	r1, [r2, #36]	; 0x24
10000f2c:	4299      	cmp	r1, r3
10000f2e:	d102      	bne.n	10000f36 <busy_wait_us+0x3e>
10000f30:	6a91      	ldr	r1, [r2, #40]	; 0x28
10000f32:	42a1      	cmp	r1, r4
10000f34:	d3f9      	bcc.n	10000f2a <busy_wait_us+0x32>
10000f36:	bd70      	pop	{r4, r5, r6, pc}
10000f38:	42a6      	cmp	r6, r4
10000f3a:	d9ee      	bls.n	10000f1a <busy_wait_us+0x22>
10000f3c:	2301      	movs	r3, #1
10000f3e:	2401      	movs	r4, #1
10000f40:	4264      	negs	r4, r4
10000f42:	17e5      	asrs	r5, r4, #31
10000f44:	425b      	negs	r3, r3
10000f46:	e7e9      	b.n	10000f1c <busy_wait_us+0x24>
10000f48:	40054000 	.word	0x40054000

10000f4c <hardware_alarm_set_callback>:
10000f4c:	b570      	push	{r4, r5, r6, lr}
10000f4e:	0004      	movs	r4, r0
10000f50:	000d      	movs	r5, r1
10000f52:	f3ef 8610 	mrs	r6, PRIMASK
10000f56:	b672      	cpsid	i
10000f58:	4a1a      	ldr	r2, [pc, #104]	; (10000fc4 <hardware_alarm_set_callback+0x78>)
10000f5a:	6813      	ldr	r3, [r2, #0]
10000f5c:	2b00      	cmp	r3, #0
10000f5e:	d0fc      	beq.n	10000f5a <hardware_alarm_set_callback+0xe>
10000f60:	f3bf 8f5f 	dmb	sy
10000f64:	2d00      	cmp	r5, #0
10000f66:	d01b      	beq.n	10000fa0 <hardware_alarm_set_callback+0x54>
10000f68:	0020      	movs	r0, r4
10000f6a:	f7ff facb 	bl	10000504 <irq_get_vtable_handler>
10000f6e:	4916      	ldr	r1, [pc, #88]	; (10000fc8 <hardware_alarm_set_callback+0x7c>)
10000f70:	4281      	cmp	r1, r0
10000f72:	d00a      	beq.n	10000f8a <hardware_alarm_set_callback+0x3e>
10000f74:	0020      	movs	r0, r4
10000f76:	f7ff facd 	bl	10000514 <irq_set_exclusive_handler>
10000f7a:	2101      	movs	r1, #1
10000f7c:	0020      	movs	r0, r4
10000f7e:	f7ff faaf 	bl	100004e0 <irq_set_enabled>
10000f82:	2301      	movs	r3, #1
10000f84:	40a3      	lsls	r3, r4
10000f86:	4a11      	ldr	r2, [pc, #68]	; (10000fcc <hardware_alarm_set_callback+0x80>)
10000f88:	6013      	str	r3, [r2, #0]
10000f8a:	4b11      	ldr	r3, [pc, #68]	; (10000fd0 <hardware_alarm_set_callback+0x84>)
10000f8c:	00a4      	lsls	r4, r4, #2
10000f8e:	50e5      	str	r5, [r4, r3]
10000f90:	f3bf 8f5f 	dmb	sy
10000f94:	2200      	movs	r2, #0
10000f96:	4b0b      	ldr	r3, [pc, #44]	; (10000fc4 <hardware_alarm_set_callback+0x78>)
10000f98:	601a      	str	r2, [r3, #0]
10000f9a:	f386 8810 	msr	PRIMASK, r6
10000f9e:	bd70      	pop	{r4, r5, r6, pc}
10000fa0:	4b0b      	ldr	r3, [pc, #44]	; (10000fd0 <hardware_alarm_set_callback+0x84>)
10000fa2:	00a2      	lsls	r2, r4, #2
10000fa4:	50d5      	str	r5, [r2, r3]
10000fa6:	2201      	movs	r2, #1
10000fa8:	40a2      	lsls	r2, r4
10000faa:	490a      	ldr	r1, [pc, #40]	; (10000fd4 <hardware_alarm_set_callback+0x88>)
10000fac:	0020      	movs	r0, r4
10000fae:	780b      	ldrb	r3, [r1, #0]
10000fb0:	4393      	bics	r3, r2
10000fb2:	700b      	strb	r3, [r1, #0]
10000fb4:	4904      	ldr	r1, [pc, #16]	; (10000fc8 <hardware_alarm_set_callback+0x7c>)
10000fb6:	f7ff fad7 	bl	10000568 <irq_remove_handler>
10000fba:	2100      	movs	r1, #0
10000fbc:	0020      	movs	r0, r4
10000fbe:	f7ff fa8f 	bl	100004e0 <irq_set_enabled>
10000fc2:	e7e5      	b.n	10000f90 <hardware_alarm_set_callback+0x44>
10000fc4:	d0000128 	.word	0xd0000128
10000fc8:	10000e11 	.word	0x10000e11
10000fcc:	40056038 	.word	0x40056038
10000fd0:	20000f94 	.word	0x20000f94
10000fd4:	20001056 	.word	0x20001056

10000fd8 <hardware_alarm_set_target>:
10000fd8:	b5f0      	push	{r4, r5, r6, r7, lr}
10000fda:	464f      	mov	r7, r9
10000fdc:	46d6      	mov	lr, sl
10000fde:	4646      	mov	r6, r8
10000fe0:	b5c0      	push	{r6, r7, lr}
10000fe2:	0007      	movs	r7, r0
10000fe4:	4c2c      	ldr	r4, [pc, #176]	; (10001098 <hardware_alarm_set_target+0xc0>)
10000fe6:	6a61      	ldr	r1, [r4, #36]	; 0x24
10000fe8:	000d      	movs	r5, r1
10000fea:	6aa6      	ldr	r6, [r4, #40]	; 0x28
10000fec:	6a61      	ldr	r1, [r4, #36]	; 0x24
10000fee:	42a9      	cmp	r1, r5
10000ff0:	d1fa      	bne.n	10000fe8 <hardware_alarm_set_target+0x10>
10000ff2:	428b      	cmp	r3, r1
10000ff4:	d808      	bhi.n	10001008 <hardware_alarm_set_target+0x30>
10000ff6:	d005      	beq.n	10001004 <hardware_alarm_set_target+0x2c>
10000ff8:	2001      	movs	r0, #1
10000ffa:	bce0      	pop	{r5, r6, r7}
10000ffc:	46ba      	mov	sl, r7
10000ffe:	46b1      	mov	r9, r6
10001000:	46a8      	mov	r8, r5
10001002:	bdf0      	pop	{r4, r5, r6, r7, pc}
10001004:	42b2      	cmp	r2, r6
10001006:	d9f7      	bls.n	10000ff8 <hardware_alarm_set_target+0x20>
10001008:	f3ef 8a10 	mrs	sl, PRIMASK
1000100c:	b672      	cpsid	i
1000100e:	4823      	ldr	r0, [pc, #140]	; (1000109c <hardware_alarm_set_target+0xc4>)
10001010:	6801      	ldr	r1, [r0, #0]
10001012:	2900      	cmp	r1, #0
10001014:	d0fc      	beq.n	10001010 <hardware_alarm_set_target+0x38>
10001016:	f3bf 8f5f 	dmb	sy
1000101a:	2501      	movs	r5, #1
1000101c:	40bd      	lsls	r5, r7
1000101e:	4920      	ldr	r1, [pc, #128]	; (100010a0 <hardware_alarm_set_target+0xc8>)
10001020:	4c1d      	ldr	r4, [pc, #116]	; (10001098 <hardware_alarm_set_target+0xc0>)
10001022:	4688      	mov	r8, r1
10001024:	7809      	ldrb	r1, [r1, #0]
10001026:	4689      	mov	r9, r1
10001028:	4329      	orrs	r1, r5
1000102a:	b2c9      	uxtb	r1, r1
1000102c:	468c      	mov	ip, r1
1000102e:	4641      	mov	r1, r8
10001030:	4660      	mov	r0, ip
10001032:	7008      	strb	r0, [r1, #0]
10001034:	1d39      	adds	r1, r7, #4
10001036:	481b      	ldr	r0, [pc, #108]	; (100010a4 <hardware_alarm_set_target+0xcc>)
10001038:	0089      	lsls	r1, r1, #2
1000103a:	6365      	str	r5, [r4, #52]	; 0x34
1000103c:	510a      	str	r2, [r1, r4]
1000103e:	00b9      	lsls	r1, r7, #2
10001040:	500b      	str	r3, [r1, r0]
10001042:	6a21      	ldr	r1, [r4, #32]
10001044:	2000      	movs	r0, #0
10001046:	4229      	tst	r1, r5
10001048:	d019      	beq.n	1000107e <hardware_alarm_set_target+0xa6>
1000104a:	6a61      	ldr	r1, [r4, #36]	; 0x24
1000104c:	0008      	movs	r0, r1
1000104e:	6aa6      	ldr	r6, [r4, #40]	; 0x28
10001050:	6a61      	ldr	r1, [r4, #36]	; 0x24
10001052:	4281      	cmp	r1, r0
10001054:	d1fa      	bne.n	1000104c <hardware_alarm_set_target+0x74>
10001056:	428b      	cmp	r3, r1
10001058:	d819      	bhi.n	1000108e <hardware_alarm_set_target+0xb6>
1000105a:	d101      	bne.n	10001060 <hardware_alarm_set_target+0x88>
1000105c:	42b2      	cmp	r2, r6
1000105e:	d816      	bhi.n	1000108e <hardware_alarm_set_target+0xb6>
10001060:	45cc      	cmp	ip, r9
10001062:	d016      	beq.n	10001092 <hardware_alarm_set_target+0xba>
10001064:	4b0c      	ldr	r3, [pc, #48]	; (10001098 <hardware_alarm_set_target+0xc0>)
10001066:	201f      	movs	r0, #31
10001068:	621d      	str	r5, [r3, #32]
1000106a:	635d      	str	r5, [r3, #52]	; 0x34
1000106c:	2301      	movs	r3, #1
1000106e:	4007      	ands	r7, r0
10001070:	40bb      	lsls	r3, r7
10001072:	4a0d      	ldr	r2, [pc, #52]	; (100010a8 <hardware_alarm_set_target+0xd0>)
10001074:	381e      	subs	r0, #30
10001076:	6013      	str	r3, [r2, #0]
10001078:	4643      	mov	r3, r8
1000107a:	464a      	mov	r2, r9
1000107c:	701a      	strb	r2, [r3, #0]
1000107e:	f3bf 8f5f 	dmb	sy
10001082:	2200      	movs	r2, #0
10001084:	4b05      	ldr	r3, [pc, #20]	; (1000109c <hardware_alarm_set_target+0xc4>)
10001086:	601a      	str	r2, [r3, #0]
10001088:	f38a 8810 	msr	PRIMASK, sl
1000108c:	e7b5      	b.n	10000ffa <hardware_alarm_set_target+0x22>
1000108e:	2000      	movs	r0, #0
10001090:	e7f5      	b.n	1000107e <hardware_alarm_set_target+0xa6>
10001092:	2001      	movs	r0, #1
10001094:	e7f3      	b.n	1000107e <hardware_alarm_set_target+0xa6>
10001096:	46c0      	nop			; (mov r8, r8)
10001098:	40054000 	.word	0x40054000
1000109c:	d0000128 	.word	0xd0000128
100010a0:	20001056 	.word	0x20001056
100010a4:	2000103c 	.word	0x2000103c
100010a8:	e000e280 	.word	0xe000e280

100010ac <hardware_alarm_cancel>:
100010ac:	f3ef 8c10 	mrs	ip, PRIMASK
100010b0:	b672      	cpsid	i
100010b2:	490a      	ldr	r1, [pc, #40]	; (100010dc <hardware_alarm_cancel+0x30>)
100010b4:	680b      	ldr	r3, [r1, #0]
100010b6:	2b00      	cmp	r3, #0
100010b8:	d0fc      	beq.n	100010b4 <hardware_alarm_cancel+0x8>
100010ba:	f3bf 8f5f 	dmb	sy
100010be:	2301      	movs	r3, #1
100010c0:	4083      	lsls	r3, r0
100010c2:	4a07      	ldr	r2, [pc, #28]	; (100010e0 <hardware_alarm_cancel+0x34>)
100010c4:	4807      	ldr	r0, [pc, #28]	; (100010e4 <hardware_alarm_cancel+0x38>)
100010c6:	6213      	str	r3, [r2, #32]
100010c8:	7802      	ldrb	r2, [r0, #0]
100010ca:	439a      	bics	r2, r3
100010cc:	7002      	strb	r2, [r0, #0]
100010ce:	f3bf 8f5f 	dmb	sy
100010d2:	2300      	movs	r3, #0
100010d4:	600b      	str	r3, [r1, #0]
100010d6:	f38c 8810 	msr	PRIMASK, ip
100010da:	4770      	bx	lr
100010dc:	d0000128 	.word	0xd0000128
100010e0:	40054000 	.word	0x40054000
100010e4:	20001056 	.word	0x20001056

100010e8 <ph_merge_nodes>:
100010e8:	b570      	push	{r4, r5, r6, lr}
100010ea:	0005      	movs	r5, r0
100010ec:	0014      	movs	r4, r2
100010ee:	0016      	movs	r6, r2
100010f0:	2900      	cmp	r1, #0
100010f2:	d015      	beq.n	10001120 <ph_merge_nodes+0x38>
100010f4:	000c      	movs	r4, r1
100010f6:	2a00      	cmp	r2, #0
100010f8:	d012      	beq.n	10001120 <ph_merge_nodes+0x38>
100010fa:	6880      	ldr	r0, [r0, #8]
100010fc:	686b      	ldr	r3, [r5, #4]
100010fe:	4798      	blx	r3
10001100:	6829      	ldr	r1, [r5, #0]
10001102:	2800      	cmp	r0, #0
10001104:	d00e      	beq.n	10001124 <ph_merge_nodes+0x3c>
10001106:	0073      	lsls	r3, r6, #1
10001108:	199b      	adds	r3, r3, r6
1000110a:	0062      	lsls	r2, r4, #1
1000110c:	3b03      	subs	r3, #3
1000110e:	1912      	adds	r2, r2, r4
10001110:	18cb      	adds	r3, r1, r3
10001112:	3a03      	subs	r2, #3
10001114:	709c      	strb	r4, [r3, #2]
10001116:	1888      	adds	r0, r1, r2
10001118:	5c8a      	ldrb	r2, [r1, r2]
1000111a:	2a00      	cmp	r2, #0
1000111c:	d115      	bne.n	1000114a <ph_merge_nodes+0x62>
1000111e:	7006      	strb	r6, [r0, #0]
10001120:	0020      	movs	r0, r4
10001122:	bd70      	pop	{r4, r5, r6, pc}
10001124:	0063      	lsls	r3, r4, #1
10001126:	191b      	adds	r3, r3, r4
10001128:	0072      	lsls	r2, r6, #1
1000112a:	3b03      	subs	r3, #3
1000112c:	1992      	adds	r2, r2, r6
1000112e:	18cb      	adds	r3, r1, r3
10001130:	3a03      	subs	r2, #3
10001132:	709e      	strb	r6, [r3, #2]
10001134:	1888      	adds	r0, r1, r2
10001136:	5c8a      	ldrb	r2, [r1, r2]
10001138:	2a00      	cmp	r2, #0
1000113a:	d102      	bne.n	10001142 <ph_merge_nodes+0x5a>
1000113c:	7004      	strb	r4, [r0, #0]
1000113e:	0034      	movs	r4, r6
10001140:	e7ee      	b.n	10001120 <ph_merge_nodes+0x38>
10001142:	705a      	strb	r2, [r3, #1]
10001144:	7004      	strb	r4, [r0, #0]
10001146:	0034      	movs	r4, r6
10001148:	e7ea      	b.n	10001120 <ph_merge_nodes+0x38>
1000114a:	705a      	strb	r2, [r3, #1]
1000114c:	7006      	strb	r6, [r0, #0]
1000114e:	e7e7      	b.n	10001120 <ph_merge_nodes+0x38>

10001150 <ph_post_alloc_init>:
10001150:	b530      	push	{r4, r5, lr}
10001152:	6083      	str	r3, [r0, #8]
10001154:	2300      	movs	r3, #0
10001156:	b2cc      	uxtb	r4, r1
10001158:	7343      	strb	r3, [r0, #13]
1000115a:	3301      	adds	r3, #1
1000115c:	7304      	strb	r4, [r0, #12]
1000115e:	6042      	str	r2, [r0, #4]
10001160:	7383      	strb	r3, [r0, #14]
10001162:	73c4      	strb	r4, [r0, #15]
10001164:	000d      	movs	r5, r1
10001166:	6800      	ldr	r0, [r0, #0]
10001168:	2c01      	cmp	r4, #1
1000116a:	d906      	bls.n	1000117a <ph_post_alloc_init+0x2a>
1000116c:	1c42      	adds	r2, r0, #1
1000116e:	3301      	adds	r3, #1
10001170:	b2db      	uxtb	r3, r3
10001172:	7013      	strb	r3, [r2, #0]
10001174:	3203      	adds	r2, #3
10001176:	429c      	cmp	r4, r3
10001178:	d1f9      	bne.n	1000116e <ph_post_alloc_init+0x1e>
1000117a:	21ff      	movs	r1, #255	; 0xff
1000117c:	4029      	ands	r1, r5
1000117e:	004b      	lsls	r3, r1, #1
10001180:	1859      	adds	r1, r3, r1
10001182:	2300      	movs	r3, #0
10001184:	1840      	adds	r0, r0, r1
10001186:	3803      	subs	r0, #3
10001188:	7043      	strb	r3, [r0, #1]
1000118a:	bd30      	pop	{r4, r5, pc}

1000118c <ph_merge_two_pass>:
1000118c:	b5f8      	push	{r3, r4, r5, r6, r7, lr}
1000118e:	46ce      	mov	lr, r9
10001190:	4647      	mov	r7, r8
10001192:	0006      	movs	r6, r0
10001194:	000c      	movs	r4, r1
10001196:	b580      	push	{r7, lr}
10001198:	2900      	cmp	r1, #0
1000119a:	d007      	beq.n	100011ac <ph_merge_two_pass+0x20>
1000119c:	004d      	lsls	r5, r1, #1
1000119e:	6803      	ldr	r3, [r0, #0]
100011a0:	186d      	adds	r5, r5, r1
100011a2:	3d03      	subs	r5, #3
100011a4:	195a      	adds	r2, r3, r5
100011a6:	7857      	ldrb	r7, [r2, #1]
100011a8:	2f00      	cmp	r7, #0
100011aa:	d104      	bne.n	100011b6 <ph_merge_two_pass+0x2a>
100011ac:	0020      	movs	r0, r4
100011ae:	bcc0      	pop	{r6, r7}
100011b0:	46b9      	mov	r9, r7
100011b2:	46b0      	mov	r8, r6
100011b4:	bdf8      	pop	{r3, r4, r5, r6, r7, pc}
100011b6:	0079      	lsls	r1, r7, #1
100011b8:	19c9      	adds	r1, r1, r7
100011ba:	3903      	subs	r1, #3
100011bc:	4688      	mov	r8, r1
100011be:	4443      	add	r3, r8
100011c0:	7859      	ldrb	r1, [r3, #1]
100011c2:	4689      	mov	r9, r1
100011c4:	2100      	movs	r1, #0
100011c6:	7059      	strb	r1, [r3, #1]
100011c8:	7051      	strb	r1, [r2, #1]
100011ca:	6873      	ldr	r3, [r6, #4]
100011cc:	003a      	movs	r2, r7
100011ce:	0021      	movs	r1, r4
100011d0:	6880      	ldr	r0, [r0, #8]
100011d2:	4798      	blx	r3
100011d4:	6833      	ldr	r3, [r6, #0]
100011d6:	2800      	cmp	r0, #0
100011d8:	d014      	beq.n	10001204 <ph_merge_two_pass+0x78>
100011da:	4642      	mov	r2, r8
100011dc:	189a      	adds	r2, r3, r2
100011de:	7094      	strb	r4, [r2, #2]
100011e0:	1959      	adds	r1, r3, r5
100011e2:	5d5b      	ldrb	r3, [r3, r5]
100011e4:	2b00      	cmp	r3, #0
100011e6:	d000      	beq.n	100011ea <ph_merge_two_pass+0x5e>
100011e8:	7053      	strb	r3, [r2, #1]
100011ea:	700f      	strb	r7, [r1, #0]
100011ec:	0027      	movs	r7, r4
100011ee:	4649      	mov	r1, r9
100011f0:	0030      	movs	r0, r6
100011f2:	f7ff ffcb 	bl	1000118c <ph_merge_two_pass>
100011f6:	0039      	movs	r1, r7
100011f8:	0002      	movs	r2, r0
100011fa:	0030      	movs	r0, r6
100011fc:	f7ff ff74 	bl	100010e8 <ph_merge_nodes>
10001200:	0004      	movs	r4, r0
10001202:	e7d3      	b.n	100011ac <ph_merge_two_pass+0x20>
10001204:	4642      	mov	r2, r8
10001206:	4641      	mov	r1, r8
10001208:	195d      	adds	r5, r3, r5
1000120a:	70af      	strb	r7, [r5, #2]
1000120c:	189a      	adds	r2, r3, r2
1000120e:	5c5b      	ldrb	r3, [r3, r1]
10001210:	2b00      	cmp	r3, #0
10001212:	d000      	beq.n	10001216 <ph_merge_two_pass+0x8a>
10001214:	706b      	strb	r3, [r5, #1]
10001216:	7014      	strb	r4, [r2, #0]
10001218:	e7e9      	b.n	100011ee <ph_merge_two_pass+0x62>
1000121a:	46c0      	nop			; (mov r8, r8)

1000121c <ph_remove_any_head>:
1000121c:	b5f0      	push	{r4, r5, r6, r7, lr}
1000121e:	4657      	mov	r7, sl
10001220:	4645      	mov	r5, r8
10001222:	46de      	mov	lr, fp
10001224:	464e      	mov	r6, r9
10001226:	b5e0      	push	{r5, r6, r7, lr}
10001228:	000d      	movs	r5, r1
1000122a:	006b      	lsls	r3, r5, #1
1000122c:	6801      	ldr	r1, [r0, #0]
1000122e:	195b      	adds	r3, r3, r5
10001230:	1edf      	subs	r7, r3, #3
10001232:	0004      	movs	r4, r0
10001234:	5dc8      	ldrb	r0, [r1, r7]
10001236:	b083      	sub	sp, #12
10001238:	9201      	str	r2, [sp, #4]
1000123a:	19ca      	adds	r2, r1, r7
1000123c:	2800      	cmp	r0, #0
1000123e:	d050      	beq.n	100012e2 <ph_remove_any_head+0xc6>
10001240:	0043      	lsls	r3, r0, #1
10001242:	181b      	adds	r3, r3, r0
10001244:	3b03      	subs	r3, #3
10001246:	18cb      	adds	r3, r1, r3
10001248:	785e      	ldrb	r6, [r3, #1]
1000124a:	46b4      	mov	ip, r6
1000124c:	2e00      	cmp	r6, #0
1000124e:	d11a      	bne.n	10001286 <ph_remove_any_head+0x6a>
10001250:	9e01      	ldr	r6, [sp, #4]
10001252:	2e00      	cmp	r6, #0
10001254:	d042      	beq.n	100012dc <ph_remove_any_head+0xc0>
10001256:	7be6      	ldrb	r6, [r4, #15]
10001258:	2e00      	cmp	r6, #0
1000125a:	d004      	beq.n	10001266 <ph_remove_any_head+0x4a>
1000125c:	0073      	lsls	r3, r6, #1
1000125e:	199b      	adds	r3, r3, r6
10001260:	18cb      	adds	r3, r1, r3
10001262:	3b03      	subs	r3, #3
10001264:	705d      	strb	r5, [r3, #1]
10001266:	7ba3      	ldrb	r3, [r4, #14]
10001268:	2b00      	cmp	r3, #0
1000126a:	d100      	bne.n	1000126e <ph_remove_any_head+0x52>
1000126c:	73a5      	strb	r5, [r4, #14]
1000126e:	73e5      	strb	r5, [r4, #15]
10001270:	2800      	cmp	r0, #0
10001272:	d12f      	bne.n	100012d4 <ph_remove_any_head+0xb8>
10001274:	2300      	movs	r3, #0
10001276:	7053      	strb	r3, [r2, #1]
10001278:	b003      	add	sp, #12
1000127a:	bcf0      	pop	{r4, r5, r6, r7}
1000127c:	46bb      	mov	fp, r7
1000127e:	46b2      	mov	sl, r6
10001280:	46a9      	mov	r9, r5
10001282:	46a0      	mov	r8, r4
10001284:	bdf0      	pop	{r4, r5, r6, r7, pc}
10001286:	0072      	lsls	r2, r6, #1
10001288:	4462      	add	r2, ip
1000128a:	3a03      	subs	r2, #3
1000128c:	1889      	adds	r1, r1, r2
1000128e:	784a      	ldrb	r2, [r1, #1]
10001290:	4690      	mov	r8, r2
10001292:	2200      	movs	r2, #0
10001294:	704a      	strb	r2, [r1, #1]
10001296:	4691      	mov	r9, r2
10001298:	705a      	strb	r2, [r3, #1]
1000129a:	0001      	movs	r1, r0
1000129c:	0032      	movs	r2, r6
1000129e:	0020      	movs	r0, r4
100012a0:	f7ff ff22 	bl	100010e8 <ph_merge_nodes>
100012a4:	4643      	mov	r3, r8
100012a6:	4682      	mov	sl, r0
100012a8:	2b00      	cmp	r3, #0
100012aa:	d007      	beq.n	100012bc <ph_remove_any_head+0xa0>
100012ac:	005b      	lsls	r3, r3, #1
100012ae:	6821      	ldr	r1, [r4, #0]
100012b0:	4443      	add	r3, r8
100012b2:	3b03      	subs	r3, #3
100012b4:	18cb      	adds	r3, r1, r3
100012b6:	785a      	ldrb	r2, [r3, #1]
100012b8:	2a00      	cmp	r2, #0
100012ba:	d116      	bne.n	100012ea <ph_remove_any_head+0xce>
100012bc:	4642      	mov	r2, r8
100012be:	4651      	mov	r1, sl
100012c0:	0020      	movs	r0, r4
100012c2:	f7ff ff11 	bl	100010e8 <ph_merge_nodes>
100012c6:	6821      	ldr	r1, [r4, #0]
100012c8:	9b01      	ldr	r3, [sp, #4]
100012ca:	19ca      	adds	r2, r1, r7
100012cc:	2b00      	cmp	r3, #0
100012ce:	d1c2      	bne.n	10001256 <ph_remove_any_head+0x3a>
100012d0:	2800      	cmp	r0, #0
100012d2:	d0cf      	beq.n	10001274 <ph_remove_any_head+0x58>
100012d4:	0043      	lsls	r3, r0, #1
100012d6:	181b      	adds	r3, r3, r0
100012d8:	3b03      	subs	r3, #3
100012da:	18cb      	adds	r3, r1, r3
100012dc:	2100      	movs	r1, #0
100012de:	7099      	strb	r1, [r3, #2]
100012e0:	e7c8      	b.n	10001274 <ph_remove_any_head+0x58>
100012e2:	9b01      	ldr	r3, [sp, #4]
100012e4:	2b00      	cmp	r3, #0
100012e6:	d1b6      	bne.n	10001256 <ph_remove_any_head+0x3a>
100012e8:	e7c4      	b.n	10001274 <ph_remove_any_head+0x58>
100012ea:	0050      	lsls	r0, r2, #1
100012ec:	1880      	adds	r0, r0, r2
100012ee:	3803      	subs	r0, #3
100012f0:	1809      	adds	r1, r1, r0
100012f2:	7848      	ldrb	r0, [r1, #1]
100012f4:	4683      	mov	fp, r0
100012f6:	4648      	mov	r0, r9
100012f8:	7048      	strb	r0, [r1, #1]
100012fa:	7058      	strb	r0, [r3, #1]
100012fc:	4641      	mov	r1, r8
100012fe:	0020      	movs	r0, r4
10001300:	f7ff fef2 	bl	100010e8 <ph_merge_nodes>
10001304:	4659      	mov	r1, fp
10001306:	4680      	mov	r8, r0
10001308:	0020      	movs	r0, r4
1000130a:	f7ff ff3f 	bl	1000118c <ph_merge_two_pass>
1000130e:	4641      	mov	r1, r8
10001310:	0002      	movs	r2, r0
10001312:	0020      	movs	r0, r4
10001314:	f7ff fee8 	bl	100010e8 <ph_merge_nodes>
10001318:	4680      	mov	r8, r0
1000131a:	e7cf      	b.n	100012bc <ph_remove_any_head+0xa0>

1000131c <ph_remove_head>:
1000131c:	b5f0      	push	{r4, r5, r6, r7, lr}
1000131e:	4657      	mov	r7, sl
10001320:	4645      	mov	r5, r8
10001322:	46de      	mov	lr, fp
10001324:	464e      	mov	r6, r9
10001326:	b5e0      	push	{r5, r6, r7, lr}
10001328:	b083      	sub	sp, #12
1000132a:	9101      	str	r1, [sp, #4]
1000132c:	7b45      	ldrb	r5, [r0, #13]
1000132e:	0004      	movs	r4, r0
10001330:	006b      	lsls	r3, r5, #1
10001332:	6800      	ldr	r0, [r0, #0]
10001334:	195b      	adds	r3, r3, r5
10001336:	1edf      	subs	r7, r3, #3
10001338:	5dc1      	ldrb	r1, [r0, r7]
1000133a:	19c2      	adds	r2, r0, r7
1000133c:	2900      	cmp	r1, #0
1000133e:	d052      	beq.n	100013e6 <ph_remove_head+0xca>
10001340:	004b      	lsls	r3, r1, #1
10001342:	185b      	adds	r3, r3, r1
10001344:	3b03      	subs	r3, #3
10001346:	18c3      	adds	r3, r0, r3
10001348:	785e      	ldrb	r6, [r3, #1]
1000134a:	46b4      	mov	ip, r6
1000134c:	2e00      	cmp	r6, #0
1000134e:	d11c      	bne.n	1000138a <ph_remove_head+0x6e>
10001350:	9e01      	ldr	r6, [sp, #4]
10001352:	2e00      	cmp	r6, #0
10001354:	d044      	beq.n	100013e0 <ph_remove_head+0xc4>
10001356:	7be6      	ldrb	r6, [r4, #15]
10001358:	2e00      	cmp	r6, #0
1000135a:	d004      	beq.n	10001366 <ph_remove_head+0x4a>
1000135c:	0073      	lsls	r3, r6, #1
1000135e:	199b      	adds	r3, r3, r6
10001360:	18c3      	adds	r3, r0, r3
10001362:	3b03      	subs	r3, #3
10001364:	705d      	strb	r5, [r3, #1]
10001366:	7ba3      	ldrb	r3, [r4, #14]
10001368:	2b00      	cmp	r3, #0
1000136a:	d100      	bne.n	1000136e <ph_remove_head+0x52>
1000136c:	73a5      	strb	r5, [r4, #14]
1000136e:	73e5      	strb	r5, [r4, #15]
10001370:	2900      	cmp	r1, #0
10001372:	d131      	bne.n	100013d8 <ph_remove_head+0xbc>
10001374:	2300      	movs	r3, #0
10001376:	0028      	movs	r0, r5
10001378:	7053      	strb	r3, [r2, #1]
1000137a:	7361      	strb	r1, [r4, #13]
1000137c:	b003      	add	sp, #12
1000137e:	bcf0      	pop	{r4, r5, r6, r7}
10001380:	46bb      	mov	fp, r7
10001382:	46b2      	mov	sl, r6
10001384:	46a9      	mov	r9, r5
10001386:	46a0      	mov	r8, r4
10001388:	bdf0      	pop	{r4, r5, r6, r7, pc}
1000138a:	0072      	lsls	r2, r6, #1
1000138c:	4462      	add	r2, ip
1000138e:	3a03      	subs	r2, #3
10001390:	1880      	adds	r0, r0, r2
10001392:	7842      	ldrb	r2, [r0, #1]
10001394:	4690      	mov	r8, r2
10001396:	2200      	movs	r2, #0
10001398:	7042      	strb	r2, [r0, #1]
1000139a:	4691      	mov	r9, r2
1000139c:	705a      	strb	r2, [r3, #1]
1000139e:	0020      	movs	r0, r4
100013a0:	0032      	movs	r2, r6
100013a2:	f7ff fea1 	bl	100010e8 <ph_merge_nodes>
100013a6:	4643      	mov	r3, r8
100013a8:	4682      	mov	sl, r0
100013aa:	2b00      	cmp	r3, #0
100013ac:	d007      	beq.n	100013be <ph_remove_head+0xa2>
100013ae:	005b      	lsls	r3, r3, #1
100013b0:	6821      	ldr	r1, [r4, #0]
100013b2:	4443      	add	r3, r8
100013b4:	3b03      	subs	r3, #3
100013b6:	18cb      	adds	r3, r1, r3
100013b8:	785a      	ldrb	r2, [r3, #1]
100013ba:	2a00      	cmp	r2, #0
100013bc:	d117      	bne.n	100013ee <ph_remove_head+0xd2>
100013be:	4642      	mov	r2, r8
100013c0:	4651      	mov	r1, sl
100013c2:	0020      	movs	r0, r4
100013c4:	f7ff fe90 	bl	100010e8 <ph_merge_nodes>
100013c8:	9b01      	ldr	r3, [sp, #4]
100013ca:	0001      	movs	r1, r0
100013cc:	6820      	ldr	r0, [r4, #0]
100013ce:	19c2      	adds	r2, r0, r7
100013d0:	2b00      	cmp	r3, #0
100013d2:	d1c0      	bne.n	10001356 <ph_remove_head+0x3a>
100013d4:	2900      	cmp	r1, #0
100013d6:	d0cd      	beq.n	10001374 <ph_remove_head+0x58>
100013d8:	004b      	lsls	r3, r1, #1
100013da:	185b      	adds	r3, r3, r1
100013dc:	3b03      	subs	r3, #3
100013de:	18c3      	adds	r3, r0, r3
100013e0:	2000      	movs	r0, #0
100013e2:	7098      	strb	r0, [r3, #2]
100013e4:	e7c6      	b.n	10001374 <ph_remove_head+0x58>
100013e6:	9b01      	ldr	r3, [sp, #4]
100013e8:	2b00      	cmp	r3, #0
100013ea:	d1b4      	bne.n	10001356 <ph_remove_head+0x3a>
100013ec:	e7c2      	b.n	10001374 <ph_remove_head+0x58>
100013ee:	0050      	lsls	r0, r2, #1
100013f0:	1880      	adds	r0, r0, r2
100013f2:	3803      	subs	r0, #3
100013f4:	1809      	adds	r1, r1, r0
100013f6:	7848      	ldrb	r0, [r1, #1]
100013f8:	4683      	mov	fp, r0
100013fa:	4648      	mov	r0, r9
100013fc:	7048      	strb	r0, [r1, #1]
100013fe:	7058      	strb	r0, [r3, #1]
10001400:	4641      	mov	r1, r8
10001402:	0020      	movs	r0, r4
10001404:	f7ff fe70 	bl	100010e8 <ph_merge_nodes>
10001408:	4659      	mov	r1, fp
1000140a:	4680      	mov	r8, r0
1000140c:	0020      	movs	r0, r4
1000140e:	f7ff febd 	bl	1000118c <ph_merge_two_pass>
10001412:	4641      	mov	r1, r8
10001414:	0002      	movs	r2, r0
10001416:	0020      	movs	r0, r4
10001418:	f7ff fe66 	bl	100010e8 <ph_merge_nodes>
1000141c:	4680      	mov	r8, r0
1000141e:	e7ce      	b.n	100013be <ph_remove_head+0xa2>

10001420 <ph_remove_and_free_node>:
10001420:	b570      	push	{r4, r5, r6, lr}
10001422:	0004      	movs	r4, r0
10001424:	2900      	cmp	r1, #0
10001426:	d02c      	beq.n	10001482 <ph_remove_and_free_node+0x62>
10001428:	7b43      	ldrb	r3, [r0, #13]
1000142a:	428b      	cmp	r3, r1
1000142c:	d02e      	beq.n	1000148c <ph_remove_and_free_node+0x6c>
1000142e:	6805      	ldr	r5, [r0, #0]
10001430:	0048      	lsls	r0, r1, #1
10001432:	1840      	adds	r0, r0, r1
10001434:	3803      	subs	r0, #3
10001436:	1828      	adds	r0, r5, r0
10001438:	7882      	ldrb	r2, [r0, #2]
1000143a:	2a00      	cmp	r2, #0
1000143c:	d021      	beq.n	10001482 <ph_remove_and_free_node+0x62>
1000143e:	0053      	lsls	r3, r2, #1
10001440:	189b      	adds	r3, r3, r2
10001442:	3b03      	subs	r3, #3
10001444:	5cea      	ldrb	r2, [r5, r3]
10001446:	18ee      	adds	r6, r5, r3
10001448:	428a      	cmp	r2, r1
1000144a:	d102      	bne.n	10001452 <ph_remove_and_free_node+0x32>
1000144c:	e01b      	b.n	10001486 <ph_remove_and_free_node+0x66>
1000144e:	2a00      	cmp	r2, #0
10001450:	d008      	beq.n	10001464 <ph_remove_and_free_node+0x44>
10001452:	0053      	lsls	r3, r2, #1
10001454:	189b      	adds	r3, r3, r2
10001456:	3b03      	subs	r3, #3
10001458:	18eb      	adds	r3, r5, r3
1000145a:	785a      	ldrb	r2, [r3, #1]
1000145c:	428a      	cmp	r2, r1
1000145e:	d1f6      	bne.n	1000144e <ph_remove_and_free_node+0x2e>
10001460:	7842      	ldrb	r2, [r0, #1]
10001462:	705a      	strb	r2, [r3, #1]
10001464:	2300      	movs	r3, #0
10001466:	2201      	movs	r2, #1
10001468:	7083      	strb	r3, [r0, #2]
1000146a:	7043      	strb	r3, [r0, #1]
1000146c:	0020      	movs	r0, r4
1000146e:	f7ff fed5 	bl	1000121c <ph_remove_any_head>
10001472:	7b61      	ldrb	r1, [r4, #13]
10001474:	0002      	movs	r2, r0
10001476:	0020      	movs	r0, r4
10001478:	f7ff fe36 	bl	100010e8 <ph_merge_nodes>
1000147c:	7360      	strb	r0, [r4, #13]
1000147e:	2001      	movs	r0, #1
10001480:	e000      	b.n	10001484 <ph_remove_and_free_node+0x64>
10001482:	2000      	movs	r0, #0
10001484:	bd70      	pop	{r4, r5, r6, pc}
10001486:	7843      	ldrb	r3, [r0, #1]
10001488:	7033      	strb	r3, [r6, #0]
1000148a:	e7eb      	b.n	10001464 <ph_remove_and_free_node+0x44>
1000148c:	2201      	movs	r2, #1
1000148e:	0019      	movs	r1, r3
10001490:	f7ff fec4 	bl	1000121c <ph_remove_any_head>
10001494:	7360      	strb	r0, [r4, #13]
10001496:	2001      	movs	r0, #1
10001498:	e7f4      	b.n	10001484 <ph_remove_and_free_node+0x64>
1000149a:	46c0      	nop			; (mov r8, r8)

1000149c <uart_init>:
1000149c:	b5f8      	push	{r3, r4, r5, r6, r7, lr}
1000149e:	46ce      	mov	lr, r9
100014a0:	4647      	mov	r7, r8
100014a2:	0004      	movs	r4, r0
100014a4:	b580      	push	{r7, lr}
100014a6:	2006      	movs	r0, #6
100014a8:	000e      	movs	r6, r1
100014aa:	f000 fa23 	bl	100018f4 <clock_get_hz>
100014ae:	1e05      	subs	r5, r0, #0
100014b0:	d051      	beq.n	10001556 <uart_init+0xba>
100014b2:	4b52      	ldr	r3, [pc, #328]	; (100015fc <uart_init+0x160>)
100014b4:	4952      	ldr	r1, [pc, #328]	; (10001600 <uart_init+0x164>)
100014b6:	18e2      	adds	r2, r4, r3
100014b8:	4253      	negs	r3, r2
100014ba:	415a      	adcs	r2, r3
100014bc:	2380      	movs	r3, #128	; 0x80
100014be:	03db      	lsls	r3, r3, #15
100014c0:	469c      	mov	ip, r3
100014c2:	0592      	lsls	r2, r2, #22
100014c4:	4b4f      	ldr	r3, [pc, #316]	; (10001604 <uart_init+0x168>)
100014c6:	4462      	add	r2, ip
100014c8:	601a      	str	r2, [r3, #0]
100014ca:	4b4f      	ldr	r3, [pc, #316]	; (10001608 <uart_init+0x16c>)
100014cc:	601a      	str	r2, [r3, #0]
100014ce:	0010      	movs	r0, r2
100014d0:	688b      	ldr	r3, [r1, #8]
100014d2:	4398      	bics	r0, r3
100014d4:	d1fb      	bne.n	100014ce <uart_init+0x32>
100014d6:	4b49      	ldr	r3, [pc, #292]	; (100015fc <uart_init+0x160>)
100014d8:	2180      	movs	r1, #128	; 0x80
100014da:	18e3      	adds	r3, r4, r3
100014dc:	425a      	negs	r2, r3
100014de:	4153      	adcs	r3, r2
100014e0:	4a4a      	ldr	r2, [pc, #296]	; (1000160c <uart_init+0x170>)
100014e2:	005b      	lsls	r3, r3, #1
100014e4:	0049      	lsls	r1, r1, #1
100014e6:	5299      	strh	r1, [r3, r2]
100014e8:	2006      	movs	r0, #6
100014ea:	f000 fa03 	bl	100018f4 <clock_get_hz>
100014ee:	0031      	movs	r1, r6
100014f0:	00c0      	lsls	r0, r0, #3
100014f2:	f000 fb81 	bl	10001bf8 <__wrap___aeabi_uidiv>
100014f6:	09c3      	lsrs	r3, r0, #7
100014f8:	d132      	bne.n	10001560 <uart_init+0xc4>
100014fa:	2240      	movs	r2, #64	; 0x40
100014fc:	2101      	movs	r1, #1
100014fe:	4690      	mov	r8, r2
10001500:	6261      	str	r1, [r4, #36]	; 0x24
10001502:	62a3      	str	r3, [r4, #40]	; 0x28
10001504:	6b25      	ldr	r5, [r4, #48]	; 0x30
10001506:	07eb      	lsls	r3, r5, #31
10001508:	d436      	bmi.n	10001578 <uart_init+0xdc>
1000150a:	0027      	movs	r7, r4
1000150c:	2680      	movs	r6, #128	; 0x80
1000150e:	6ae3      	ldr	r3, [r4, #44]	; 0x2c
10001510:	2300      	movs	r3, #0
10001512:	372c      	adds	r7, #44	; 0x2c
10001514:	0176      	lsls	r6, r6, #5
10001516:	433e      	orrs	r6, r7
10001518:	6033      	str	r3, [r6, #0]
1000151a:	2006      	movs	r0, #6
1000151c:	6325      	str	r5, [r4, #48]	; 0x30
1000151e:	f000 f9e9 	bl	100018f4 <clock_get_hz>
10001522:	4641      	mov	r1, r8
10001524:	0080      	lsls	r0, r0, #2
10001526:	f000 fb67 	bl	10001bf8 <__wrap___aeabi_uidiv>
1000152a:	6b23      	ldr	r3, [r4, #48]	; 0x30
1000152c:	0005      	movs	r5, r0
1000152e:	4698      	mov	r8, r3
10001530:	07db      	lsls	r3, r3, #31
10001532:	d43b      	bmi.n	100015ac <uart_init+0x110>
10001534:	2260      	movs	r2, #96	; 0x60
10001536:	6ae3      	ldr	r3, [r4, #44]	; 0x2c
10001538:	405a      	eors	r2, r3
1000153a:	236e      	movs	r3, #110	; 0x6e
1000153c:	4013      	ands	r3, r2
1000153e:	6033      	str	r3, [r6, #0]
10001540:	4643      	mov	r3, r8
10001542:	6323      	str	r3, [r4, #48]	; 0x30
10001544:	2380      	movs	r3, #128	; 0x80
10001546:	2210      	movs	r2, #16
10001548:	019b      	lsls	r3, r3, #6
1000154a:	433b      	orrs	r3, r7
1000154c:	601a      	str	r2, [r3, #0]
1000154e:	4b30      	ldr	r3, [pc, #192]	; (10001610 <uart_init+0x174>)
10001550:	6323      	str	r3, [r4, #48]	; 0x30
10001552:	2303      	movs	r3, #3
10001554:	64a3      	str	r3, [r4, #72]	; 0x48
10001556:	0028      	movs	r0, r5
10001558:	bcc0      	pop	{r6, r7}
1000155a:	46b9      	mov	r9, r7
1000155c:	46b0      	mov	r8, r6
1000155e:	bdf8      	pop	{r3, r4, r5, r6, r7, pc}
10001560:	4a2c      	ldr	r2, [pc, #176]	; (10001614 <uart_init+0x178>)
10001562:	4293      	cmp	r3, r2
10001564:	d93f      	bls.n	100015e6 <uart_init+0x14a>
10001566:	2300      	movs	r3, #0
10001568:	492b      	ldr	r1, [pc, #172]	; (10001618 <uart_init+0x17c>)
1000156a:	4a2c      	ldr	r2, [pc, #176]	; (1000161c <uart_init+0x180>)
1000156c:	6261      	str	r1, [r4, #36]	; 0x24
1000156e:	62a3      	str	r3, [r4, #40]	; 0x28
10001570:	6b25      	ldr	r5, [r4, #48]	; 0x30
10001572:	4690      	mov	r8, r2
10001574:	07eb      	lsls	r3, r5, #31
10001576:	d5c8      	bpl.n	1000150a <uart_init+0x6e>
10001578:	0022      	movs	r2, r4
1000157a:	23c0      	movs	r3, #192	; 0xc0
1000157c:	3230      	adds	r2, #48	; 0x30
1000157e:	019b      	lsls	r3, r3, #6
10001580:	4313      	orrs	r3, r2
10001582:	4a23      	ldr	r2, [pc, #140]	; (10001610 <uart_init+0x174>)
10001584:	2006      	movs	r0, #6
10001586:	601a      	str	r2, [r3, #0]
10001588:	6a66      	ldr	r6, [r4, #36]	; 0x24
1000158a:	6aa2      	ldr	r2, [r4, #40]	; 0x28
1000158c:	01b6      	lsls	r6, r6, #6
1000158e:	18b6      	adds	r6, r6, r2
10001590:	f000 f9b0 	bl	100018f4 <clock_get_hz>
10001594:	4922      	ldr	r1, [pc, #136]	; (10001620 <uart_init+0x184>)
10001596:	f000 fb2f 	bl	10001bf8 <__wrap___aeabi_uidiv>
1000159a:	02b6      	lsls	r6, r6, #10
1000159c:	0001      	movs	r1, r0
1000159e:	0030      	movs	r0, r6
100015a0:	f000 fb2a 	bl	10001bf8 <__wrap___aeabi_uidiv>
100015a4:	2100      	movs	r1, #0
100015a6:	f7ff fca7 	bl	10000ef8 <busy_wait_us>
100015aa:	e7ae      	b.n	1000150a <uart_init+0x6e>
100015ac:	0022      	movs	r2, r4
100015ae:	23c0      	movs	r3, #192	; 0xc0
100015b0:	3230      	adds	r2, #48	; 0x30
100015b2:	019b      	lsls	r3, r3, #6
100015b4:	4313      	orrs	r3, r2
100015b6:	4a16      	ldr	r2, [pc, #88]	; (10001610 <uart_init+0x174>)
100015b8:	2006      	movs	r0, #6
100015ba:	601a      	str	r2, [r3, #0]
100015bc:	6a63      	ldr	r3, [r4, #36]	; 0x24
100015be:	6aa2      	ldr	r2, [r4, #40]	; 0x28
100015c0:	019b      	lsls	r3, r3, #6
100015c2:	4699      	mov	r9, r3
100015c4:	4491      	add	r9, r2
100015c6:	f000 f995 	bl	100018f4 <clock_get_hz>
100015ca:	464b      	mov	r3, r9
100015cc:	4914      	ldr	r1, [pc, #80]	; (10001620 <uart_init+0x184>)
100015ce:	029b      	lsls	r3, r3, #10
100015d0:	4699      	mov	r9, r3
100015d2:	f000 fb11 	bl	10001bf8 <__wrap___aeabi_uidiv>
100015d6:	0001      	movs	r1, r0
100015d8:	4648      	mov	r0, r9
100015da:	f000 fb0d 	bl	10001bf8 <__wrap___aeabi_uidiv>
100015de:	2100      	movs	r1, #0
100015e0:	f7ff fc8a 	bl	10000ef8 <busy_wait_us>
100015e4:	e7a6      	b.n	10001534 <uart_init+0x98>
100015e6:	227f      	movs	r2, #127	; 0x7f
100015e8:	0199      	lsls	r1, r3, #6
100015ea:	4688      	mov	r8, r1
100015ec:	4010      	ands	r0, r2
100015ee:	3001      	adds	r0, #1
100015f0:	0840      	lsrs	r0, r0, #1
100015f2:	0019      	movs	r1, r3
100015f4:	4480      	add	r8, r0
100015f6:	0003      	movs	r3, r0
100015f8:	e782      	b.n	10001500 <uart_init+0x64>
100015fa:	46c0      	nop			; (mov r8, r8)
100015fc:	bffc8000 	.word	0xbffc8000
10001600:	4000c000 	.word	0x4000c000
10001604:	4000e000 	.word	0x4000e000
10001608:	4000f000 	.word	0x4000f000
1000160c:	2000104c 	.word	0x2000104c
10001610:	00000301 	.word	0x00000301
10001614:	0000fffe 	.word	0x0000fffe
10001618:	0000ffff 	.word	0x0000ffff
1000161c:	003fffc0 	.word	0x003fffc0
10001620:	00000e4e 	.word	0x00000e4e

10001624 <clocks_init>:
10001624:	b530      	push	{r4, r5, lr}
10001626:	200c      	movs	r0, #12
10001628:	b083      	sub	sp, #12
1000162a:	f000 f9b9 	bl	100019a0 <watchdog_start_tick>
1000162e:	f7fe ff13 	bl	10000458 <running_on_fpga>
10001632:	2800      	cmp	r0, #0
10001634:	d00e      	beq.n	10001654 <clocks_init+0x30>
10001636:	4b99      	ldr	r3, [pc, #612]	; (1000189c <clocks_init+0x278>)
10001638:	4a99      	ldr	r2, [pc, #612]	; (100018a0 <clocks_init+0x27c>)
1000163a:	601a      	str	r2, [r3, #0]
1000163c:	605a      	str	r2, [r3, #4]
1000163e:	609a      	str	r2, [r3, #8]
10001640:	60da      	str	r2, [r3, #12]
10001642:	611a      	str	r2, [r3, #16]
10001644:	615a      	str	r2, [r3, #20]
10001646:	619a      	str	r2, [r3, #24]
10001648:	61da      	str	r2, [r3, #28]
1000164a:	621a      	str	r2, [r3, #32]
1000164c:	4a95      	ldr	r2, [pc, #596]	; (100018a4 <clocks_init+0x280>)
1000164e:	625a      	str	r2, [r3, #36]	; 0x24
10001650:	b003      	add	sp, #12
10001652:	bd30      	pop	{r4, r5, pc}
10001654:	4c94      	ldr	r4, [pc, #592]	; (100018a8 <clocks_init+0x284>)
10001656:	67a0      	str	r0, [r4, #120]	; 0x78
10001658:	f000 f9aa 	bl	100019b0 <xosc_init>
1000165c:	2201      	movs	r2, #1
1000165e:	4b93      	ldr	r3, [pc, #588]	; (100018ac <clocks_init+0x288>)
10001660:	601a      	str	r2, [r3, #0]
10001662:	6c63      	ldr	r3, [r4, #68]	; 0x44
10001664:	2b01      	cmp	r3, #1
10001666:	d1fc      	bne.n	10001662 <clocks_init+0x3e>
10001668:	2203      	movs	r2, #3
1000166a:	4b91      	ldr	r3, [pc, #580]	; (100018b0 <clocks_init+0x28c>)
1000166c:	601a      	str	r2, [r3, #0]
1000166e:	4a8e      	ldr	r2, [pc, #568]	; (100018a8 <clocks_init+0x284>)
10001670:	6b93      	ldr	r3, [r2, #56]	; 0x38
10001672:	2b01      	cmp	r3, #1
10001674:	d1fc      	bne.n	10001670 <clocks_init+0x4c>
10001676:	3301      	adds	r3, #1
10001678:	2101      	movs	r1, #1
1000167a:	4a8e      	ldr	r2, [pc, #568]	; (100018b4 <clocks_init+0x290>)
1000167c:	488e      	ldr	r0, [pc, #568]	; (100018b8 <clocks_init+0x294>)
1000167e:	9300      	str	r3, [sp, #0]
10001680:	3304      	adds	r3, #4
10001682:	f000 f93d 	bl	10001900 <pll_init>
10001686:	2305      	movs	r3, #5
10001688:	4a8c      	ldr	r2, [pc, #560]	; (100018bc <clocks_init+0x298>)
1000168a:	9300      	str	r3, [sp, #0]
1000168c:	2101      	movs	r1, #1
1000168e:	488c      	ldr	r0, [pc, #560]	; (100018c0 <clocks_init+0x29c>)
10001690:	f000 f936 	bl	10001900 <pll_init>
10001694:	4b8b      	ldr	r3, [pc, #556]	; (100018c4 <clocks_init+0x2a0>)
10001696:	685a      	ldr	r2, [r3, #4]
10001698:	2aff      	cmp	r2, #255	; 0xff
1000169a:	d802      	bhi.n	100016a2 <clocks_init+0x7e>
1000169c:	2280      	movs	r2, #128	; 0x80
1000169e:	0052      	lsls	r2, r2, #1
100016a0:	605a      	str	r2, [r3, #4]
100016a2:	2280      	movs	r2, #128	; 0x80
100016a4:	4c7d      	ldr	r4, [pc, #500]	; (1000189c <clocks_init+0x278>)
100016a6:	4b82      	ldr	r3, [pc, #520]	; (100018b0 <clocks_init+0x28c>)
100016a8:	6921      	ldr	r1, [r4, #16]
100016aa:	0112      	lsls	r2, r2, #4
100016ac:	4d85      	ldr	r5, [pc, #532]	; (100018c4 <clocks_init+0x2a0>)
100016ae:	601a      	str	r2, [r3, #0]
100016b0:	2900      	cmp	r1, #0
100016b2:	d007      	beq.n	100016c4 <clocks_init+0xa0>
100016b4:	6960      	ldr	r0, [r4, #20]
100016b6:	f000 fa9f 	bl	10001bf8 <__wrap___aeabi_uidiv>
100016ba:	1c43      	adds	r3, r0, #1
100016bc:	0058      	lsls	r0, r3, #1
100016be:	18c0      	adds	r0, r0, r3
100016c0:	3803      	subs	r0, #3
100016c2:	d2fd      	bcs.n	100016c0 <clocks_init+0x9c>
100016c4:	21e0      	movs	r1, #224	; 0xe0
100016c6:	4b7f      	ldr	r3, [pc, #508]	; (100018c4 <clocks_init+0x2a0>)
100016c8:	2002      	movs	r0, #2
100016ca:	681a      	ldr	r2, [r3, #0]
100016cc:	4011      	ands	r1, r2
100016ce:	2280      	movs	r2, #128	; 0x80
100016d0:	0152      	lsls	r2, r2, #5
100016d2:	432a      	orrs	r2, r5
100016d4:	6011      	str	r1, [r2, #0]
100016d6:	6819      	ldr	r1, [r3, #0]
100016d8:	4048      	eors	r0, r1
100016da:	2103      	movs	r1, #3
100016dc:	4001      	ands	r1, r0
100016de:	6011      	str	r1, [r2, #0]
100016e0:	2104      	movs	r1, #4
100016e2:	689a      	ldr	r2, [r3, #8]
100016e4:	4211      	tst	r1, r2
100016e6:	d0fc      	beq.n	100016e2 <clocks_init+0xbe>
100016e8:	2280      	movs	r2, #128	; 0x80
100016ea:	2180      	movs	r1, #128	; 0x80
100016ec:	0192      	lsls	r2, r2, #6
100016ee:	432a      	orrs	r2, r5
100016f0:	0109      	lsls	r1, r1, #4
100016f2:	6011      	str	r1, [r2, #0]
100016f4:	2280      	movs	r2, #128	; 0x80
100016f6:	0052      	lsls	r2, r2, #1
100016f8:	605a      	str	r2, [r3, #4]
100016fa:	4b73      	ldr	r3, [pc, #460]	; (100018c8 <clocks_init+0x2a4>)
100016fc:	6123      	str	r3, [r4, #16]
100016fe:	4b73      	ldr	r3, [pc, #460]	; (100018cc <clocks_init+0x2a8>)
10001700:	6859      	ldr	r1, [r3, #4]
10001702:	29ff      	cmp	r1, #255	; 0xff
10001704:	d800      	bhi.n	10001708 <clocks_init+0xe4>
10001706:	605a      	str	r2, [r3, #4]
10001708:	2103      	movs	r1, #3
1000170a:	4a68      	ldr	r2, [pc, #416]	; (100018ac <clocks_init+0x288>)
1000170c:	4b6f      	ldr	r3, [pc, #444]	; (100018cc <clocks_init+0x2a8>)
1000170e:	6011      	str	r1, [r2, #0]
10001710:	3902      	subs	r1, #2
10001712:	689a      	ldr	r2, [r3, #8]
10001714:	4211      	tst	r1, r2
10001716:	d0fc      	beq.n	10001712 <clocks_init+0xee>
10001718:	20e0      	movs	r0, #224	; 0xe0
1000171a:	681a      	ldr	r2, [r3, #0]
1000171c:	4010      	ands	r0, r2
1000171e:	2280      	movs	r2, #128	; 0x80
10001720:	0152      	lsls	r2, r2, #5
10001722:	431a      	orrs	r2, r3
10001724:	6010      	str	r0, [r2, #0]
10001726:	6818      	ldr	r0, [r3, #0]
10001728:	4048      	eors	r0, r1
1000172a:	2103      	movs	r1, #3
1000172c:	4001      	ands	r1, r0
1000172e:	2002      	movs	r0, #2
10001730:	6011      	str	r1, [r2, #0]
10001732:	4966      	ldr	r1, [pc, #408]	; (100018cc <clocks_init+0x2a8>)
10001734:	688a      	ldr	r2, [r1, #8]
10001736:	4210      	tst	r0, r2
10001738:	d0fc      	beq.n	10001734 <clocks_init+0x110>
1000173a:	2280      	movs	r2, #128	; 0x80
1000173c:	0192      	lsls	r2, r2, #6
1000173e:	4313      	orrs	r3, r2
10001740:	2280      	movs	r2, #128	; 0x80
10001742:	0112      	lsls	r2, r2, #4
10001744:	601a      	str	r2, [r3, #0]
10001746:	2280      	movs	r2, #128	; 0x80
10001748:	4b61      	ldr	r3, [pc, #388]	; (100018d0 <clocks_init+0x2ac>)
1000174a:	0052      	lsls	r2, r2, #1
1000174c:	604a      	str	r2, [r1, #4]
1000174e:	6163      	str	r3, [r4, #20]
10001750:	4b60      	ldr	r3, [pc, #384]	; (100018d4 <clocks_init+0x2b0>)
10001752:	6859      	ldr	r1, [r3, #4]
10001754:	29ff      	cmp	r1, #255	; 0xff
10001756:	d800      	bhi.n	1000175a <clocks_init+0x136>
10001758:	605a      	str	r2, [r3, #4]
1000175a:	2280      	movs	r2, #128	; 0x80
1000175c:	4b5e      	ldr	r3, [pc, #376]	; (100018d8 <clocks_init+0x2b4>)
1000175e:	69e1      	ldr	r1, [r4, #28]
10001760:	0112      	lsls	r2, r2, #4
10001762:	4d5c      	ldr	r5, [pc, #368]	; (100018d4 <clocks_init+0x2b0>)
10001764:	601a      	str	r2, [r3, #0]
10001766:	2900      	cmp	r1, #0
10001768:	d007      	beq.n	1000177a <clocks_init+0x156>
1000176a:	6960      	ldr	r0, [r4, #20]
1000176c:	f000 fa44 	bl	10001bf8 <__wrap___aeabi_uidiv>
10001770:	1c43      	adds	r3, r0, #1
10001772:	0058      	lsls	r0, r3, #1
10001774:	18c0      	adds	r0, r0, r3
10001776:	3803      	subs	r0, #3
10001778:	d2fd      	bcs.n	10001776 <clocks_init+0x152>
1000177a:	22e0      	movs	r2, #224	; 0xe0
1000177c:	4955      	ldr	r1, [pc, #340]	; (100018d4 <clocks_init+0x2b0>)
1000177e:	680b      	ldr	r3, [r1, #0]
10001780:	401a      	ands	r2, r3
10001782:	2380      	movs	r3, #128	; 0x80
10001784:	015b      	lsls	r3, r3, #5
10001786:	432b      	orrs	r3, r5
10001788:	601a      	str	r2, [r3, #0]
1000178a:	2380      	movs	r3, #128	; 0x80
1000178c:	2280      	movs	r2, #128	; 0x80
1000178e:	019b      	lsls	r3, r3, #6
10001790:	432b      	orrs	r3, r5
10001792:	0112      	lsls	r2, r2, #4
10001794:	601a      	str	r2, [r3, #0]
10001796:	2280      	movs	r2, #128	; 0x80
10001798:	4b41      	ldr	r3, [pc, #260]	; (100018a0 <clocks_init+0x27c>)
1000179a:	0052      	lsls	r2, r2, #1
1000179c:	604a      	str	r2, [r1, #4]
1000179e:	61e3      	str	r3, [r4, #28]
100017a0:	4b4e      	ldr	r3, [pc, #312]	; (100018dc <clocks_init+0x2b8>)
100017a2:	6859      	ldr	r1, [r3, #4]
100017a4:	29ff      	cmp	r1, #255	; 0xff
100017a6:	d800      	bhi.n	100017aa <clocks_init+0x186>
100017a8:	605a      	str	r2, [r3, #4]
100017aa:	2280      	movs	r2, #128	; 0x80
100017ac:	4b4c      	ldr	r3, [pc, #304]	; (100018e0 <clocks_init+0x2bc>)
100017ae:	6a21      	ldr	r1, [r4, #32]
100017b0:	0112      	lsls	r2, r2, #4
100017b2:	4d4a      	ldr	r5, [pc, #296]	; (100018dc <clocks_init+0x2b8>)
100017b4:	601a      	str	r2, [r3, #0]
100017b6:	2900      	cmp	r1, #0
100017b8:	d007      	beq.n	100017ca <clocks_init+0x1a6>
100017ba:	6960      	ldr	r0, [r4, #20]
100017bc:	f000 fa1c 	bl	10001bf8 <__wrap___aeabi_uidiv>
100017c0:	1c43      	adds	r3, r0, #1
100017c2:	0058      	lsls	r0, r3, #1
100017c4:	18c0      	adds	r0, r0, r3
100017c6:	3803      	subs	r0, #3
100017c8:	d2fd      	bcs.n	100017c6 <clocks_init+0x1a2>
100017ca:	22e0      	movs	r2, #224	; 0xe0
100017cc:	4943      	ldr	r1, [pc, #268]	; (100018dc <clocks_init+0x2b8>)
100017ce:	680b      	ldr	r3, [r1, #0]
100017d0:	401a      	ands	r2, r3
100017d2:	2380      	movs	r3, #128	; 0x80
100017d4:	015b      	lsls	r3, r3, #5
100017d6:	432b      	orrs	r3, r5
100017d8:	601a      	str	r2, [r3, #0]
100017da:	2380      	movs	r3, #128	; 0x80
100017dc:	2280      	movs	r2, #128	; 0x80
100017de:	019b      	lsls	r3, r3, #6
100017e0:	432b      	orrs	r3, r5
100017e2:	0112      	lsls	r2, r2, #4
100017e4:	601a      	str	r2, [r3, #0]
100017e6:	2380      	movs	r3, #128	; 0x80
100017e8:	2280      	movs	r2, #128	; 0x80
100017ea:	005b      	lsls	r3, r3, #1
100017ec:	604b      	str	r3, [r1, #4]
100017ee:	4b2c      	ldr	r3, [pc, #176]	; (100018a0 <clocks_init+0x27c>)
100017f0:	02d2      	lsls	r2, r2, #11
100017f2:	6223      	str	r3, [r4, #32]
100017f4:	4b3b      	ldr	r3, [pc, #236]	; (100018e4 <clocks_init+0x2c0>)
100017f6:	6859      	ldr	r1, [r3, #4]
100017f8:	4291      	cmp	r1, r2
100017fa:	d200      	bcs.n	100017fe <clocks_init+0x1da>
100017fc:	605a      	str	r2, [r3, #4]
100017fe:	2280      	movs	r2, #128	; 0x80
10001800:	4b39      	ldr	r3, [pc, #228]	; (100018e8 <clocks_init+0x2c4>)
10001802:	6a61      	ldr	r1, [r4, #36]	; 0x24
10001804:	0112      	lsls	r2, r2, #4
10001806:	4d37      	ldr	r5, [pc, #220]	; (100018e4 <clocks_init+0x2c0>)
10001808:	601a      	str	r2, [r3, #0]
1000180a:	2900      	cmp	r1, #0
1000180c:	d007      	beq.n	1000181e <clocks_init+0x1fa>
1000180e:	6960      	ldr	r0, [r4, #20]
10001810:	f000 f9f2 	bl	10001bf8 <__wrap___aeabi_uidiv>
10001814:	1c43      	adds	r3, r0, #1
10001816:	0058      	lsls	r0, r3, #1
10001818:	18c0      	adds	r0, r0, r3
1000181a:	3803      	subs	r0, #3
1000181c:	d2fd      	bcs.n	1000181a <clocks_init+0x1f6>
1000181e:	22e0      	movs	r2, #224	; 0xe0
10001820:	4930      	ldr	r1, [pc, #192]	; (100018e4 <clocks_init+0x2c0>)
10001822:	680b      	ldr	r3, [r1, #0]
10001824:	401a      	ands	r2, r3
10001826:	2380      	movs	r3, #128	; 0x80
10001828:	015b      	lsls	r3, r3, #5
1000182a:	432b      	orrs	r3, r5
1000182c:	601a      	str	r2, [r3, #0]
1000182e:	2380      	movs	r3, #128	; 0x80
10001830:	2280      	movs	r2, #128	; 0x80
10001832:	019b      	lsls	r3, r3, #6
10001834:	432b      	orrs	r3, r5
10001836:	0112      	lsls	r2, r2, #4
10001838:	601a      	str	r2, [r3, #0]
1000183a:	2380      	movs	r3, #128	; 0x80
1000183c:	02db      	lsls	r3, r3, #11
1000183e:	604b      	str	r3, [r1, #4]
10001840:	4b18      	ldr	r3, [pc, #96]	; (100018a4 <clocks_init+0x280>)
10001842:	6263      	str	r3, [r4, #36]	; 0x24
10001844:	4b29      	ldr	r3, [pc, #164]	; (100018ec <clocks_init+0x2c8>)
10001846:	685a      	ldr	r2, [r3, #4]
10001848:	2aff      	cmp	r2, #255	; 0xff
1000184a:	d802      	bhi.n	10001852 <clocks_init+0x22e>
1000184c:	2280      	movs	r2, #128	; 0x80
1000184e:	0052      	lsls	r2, r2, #1
10001850:	605a      	str	r2, [r3, #4]
10001852:	2280      	movs	r2, #128	; 0x80
10001854:	4b26      	ldr	r3, [pc, #152]	; (100018f0 <clocks_init+0x2cc>)
10001856:	69a1      	ldr	r1, [r4, #24]
10001858:	0112      	lsls	r2, r2, #4
1000185a:	4d24      	ldr	r5, [pc, #144]	; (100018ec <clocks_init+0x2c8>)
1000185c:	601a      	str	r2, [r3, #0]
1000185e:	2900      	cmp	r1, #0
10001860:	d007      	beq.n	10001872 <clocks_init+0x24e>
10001862:	6960      	ldr	r0, [r4, #20]
10001864:	f000 f9c8 	bl	10001bf8 <__wrap___aeabi_uidiv>
10001868:	1c43      	adds	r3, r0, #1
1000186a:	0058      	lsls	r0, r3, #1
1000186c:	18c0      	adds	r0, r0, r3
1000186e:	3803      	subs	r0, #3
10001870:	d2fd      	bcs.n	1000186e <clocks_init+0x24a>
10001872:	22e0      	movs	r2, #224	; 0xe0
10001874:	491d      	ldr	r1, [pc, #116]	; (100018ec <clocks_init+0x2c8>)
10001876:	680b      	ldr	r3, [r1, #0]
10001878:	401a      	ands	r2, r3
1000187a:	2380      	movs	r3, #128	; 0x80
1000187c:	015b      	lsls	r3, r3, #5
1000187e:	432b      	orrs	r3, r5
10001880:	601a      	str	r2, [r3, #0]
10001882:	2380      	movs	r3, #128	; 0x80
10001884:	2280      	movs	r2, #128	; 0x80
10001886:	019b      	lsls	r3, r3, #6
10001888:	432b      	orrs	r3, r5
1000188a:	0112      	lsls	r2, r2, #4
1000188c:	601a      	str	r2, [r3, #0]
1000188e:	2380      	movs	r3, #128	; 0x80
10001890:	005b      	lsls	r3, r3, #1
10001892:	604b      	str	r3, [r1, #4]
10001894:	4b0e      	ldr	r3, [pc, #56]	; (100018d0 <clocks_init+0x2ac>)
10001896:	61a3      	str	r3, [r4, #24]
10001898:	e6da      	b.n	10001650 <clocks_init+0x2c>
1000189a:	46c0      	nop			; (mov r8, r8)
1000189c:	20000fac 	.word	0x20000fac
100018a0:	02dc6c00 	.word	0x02dc6c00
100018a4:	0000b71b 	.word	0x0000b71b
100018a8:	40008000 	.word	0x40008000
100018ac:	4000b03c 	.word	0x4000b03c
100018b0:	4000b030 	.word	0x4000b030
100018b4:	59682f00 	.word	0x59682f00
100018b8:	40028000 	.word	0x40028000
100018bc:	47868c00 	.word	0x47868c00
100018c0:	4002c000 	.word	0x4002c000
100018c4:	40008030 	.word	0x40008030
100018c8:	00b71b00 	.word	0x00b71b00
100018cc:	4000803c 	.word	0x4000803c
100018d0:	07735940 	.word	0x07735940
100018d4:	40008054 	.word	0x40008054
100018d8:	4000b054 	.word	0x4000b054
100018dc:	40008060 	.word	0x40008060
100018e0:	4000b060 	.word	0x4000b060
100018e4:	4000806c 	.word	0x4000806c
100018e8:	4000b06c 	.word	0x4000b06c
100018ec:	40008048 	.word	0x40008048
100018f0:	4000b048 	.word	0x4000b048

100018f4 <clock_get_hz>:
100018f4:	4b01      	ldr	r3, [pc, #4]	; (100018fc <clock_get_hz+0x8>)
100018f6:	0080      	lsls	r0, r0, #2
100018f8:	58c0      	ldr	r0, [r0, r3]
100018fa:	4770      	bx	lr
100018fc:	20000fac 	.word	0x20000fac

10001900 <pll_init>:
10001900:	b5f8      	push	{r3, r4, r5, r6, r7, lr}
10001902:	0004      	movs	r4, r0
10001904:	4821      	ldr	r0, [pc, #132]	; (1000198c <pll_init+0x8c>)
10001906:	001d      	movs	r5, r3
10001908:	0017      	movs	r7, r2
1000190a:	000e      	movs	r6, r1
1000190c:	f000 f974 	bl	10001bf8 <__wrap___aeabi_uidiv>
10001910:	0001      	movs	r1, r0
10001912:	0038      	movs	r0, r7
10001914:	f000 f970 	bl	10001bf8 <__wrap___aeabi_uidiv>
10001918:	9b06      	ldr	r3, [sp, #24]
1000191a:	0429      	lsls	r1, r5, #16
1000191c:	031b      	lsls	r3, r3, #12
1000191e:	4319      	orrs	r1, r3
10001920:	6823      	ldr	r3, [r4, #0]
10001922:	2b00      	cmp	r3, #0
10001924:	db20      	blt.n	10001968 <pll_init+0x68>
10001926:	4b1a      	ldr	r3, [pc, #104]	; (10001990 <pll_init+0x90>)
10001928:	4d1a      	ldr	r5, [pc, #104]	; (10001994 <pll_init+0x94>)
1000192a:	18e2      	adds	r2, r4, r3
1000192c:	4253      	negs	r3, r2
1000192e:	415a      	adcs	r2, r3
10001930:	2380      	movs	r3, #128	; 0x80
10001932:	015b      	lsls	r3, r3, #5
10001934:	469c      	mov	ip, r3
10001936:	0312      	lsls	r2, r2, #12
10001938:	4b17      	ldr	r3, [pc, #92]	; (10001998 <pll_init+0x98>)
1000193a:	4462      	add	r2, ip
1000193c:	601a      	str	r2, [r3, #0]
1000193e:	4b17      	ldr	r3, [pc, #92]	; (1000199c <pll_init+0x9c>)
10001940:	601a      	str	r2, [r3, #0]
10001942:	0017      	movs	r7, r2
10001944:	68ab      	ldr	r3, [r5, #8]
10001946:	439f      	bics	r7, r3
10001948:	d1fb      	bne.n	10001942 <pll_init+0x42>
1000194a:	22c0      	movs	r2, #192	; 0xc0
1000194c:	1d23      	adds	r3, r4, #4
1000194e:	0192      	lsls	r2, r2, #6
10001950:	431a      	orrs	r2, r3
10001952:	2321      	movs	r3, #33	; 0x21
10001954:	6026      	str	r6, [r4, #0]
10001956:	60a0      	str	r0, [r4, #8]
10001958:	6013      	str	r3, [r2, #0]
1000195a:	6823      	ldr	r3, [r4, #0]
1000195c:	2b00      	cmp	r3, #0
1000195e:	dafc      	bge.n	1000195a <pll_init+0x5a>
10001960:	2308      	movs	r3, #8
10001962:	60e1      	str	r1, [r4, #12]
10001964:	6013      	str	r3, [r2, #0]
10001966:	bdf8      	pop	{r3, r4, r5, r6, r7, pc}
10001968:	233f      	movs	r3, #63	; 0x3f
1000196a:	6822      	ldr	r2, [r4, #0]
1000196c:	4013      	ands	r3, r2
1000196e:	42b3      	cmp	r3, r6
10001970:	d1d9      	bne.n	10001926 <pll_init+0x26>
10001972:	68a3      	ldr	r3, [r4, #8]
10001974:	051b      	lsls	r3, r3, #20
10001976:	0d1b      	lsrs	r3, r3, #20
10001978:	4283      	cmp	r3, r0
1000197a:	d1d4      	bne.n	10001926 <pll_init+0x26>
1000197c:	22ee      	movs	r2, #238	; 0xee
1000197e:	68e3      	ldr	r3, [r4, #12]
10001980:	02d2      	lsls	r2, r2, #11
10001982:	4013      	ands	r3, r2
10001984:	428b      	cmp	r3, r1
10001986:	d1ce      	bne.n	10001926 <pll_init+0x26>
10001988:	e7ed      	b.n	10001966 <pll_init+0x66>
1000198a:	46c0      	nop			; (mov r8, r8)
1000198c:	00b71b00 	.word	0x00b71b00
10001990:	bffd4000 	.word	0xbffd4000
10001994:	4000c000 	.word	0x4000c000
10001998:	4000e000 	.word	0x4000e000
1000199c:	4000f000 	.word	0x4000f000

100019a0 <watchdog_start_tick>:
100019a0:	2380      	movs	r3, #128	; 0x80
100019a2:	4a02      	ldr	r2, [pc, #8]	; (100019ac <watchdog_start_tick+0xc>)
100019a4:	009b      	lsls	r3, r3, #2
100019a6:	4303      	orrs	r3, r0
100019a8:	62d3      	str	r3, [r2, #44]	; 0x2c
100019aa:	4770      	bx	lr
100019ac:	40058000 	.word	0x40058000

100019b0 <xosc_init>:
100019b0:	23aa      	movs	r3, #170	; 0xaa
100019b2:	4a06      	ldr	r2, [pc, #24]	; (100019cc <xosc_init+0x1c>)
100019b4:	011b      	lsls	r3, r3, #4
100019b6:	6013      	str	r3, [r2, #0]
100019b8:	232f      	movs	r3, #47	; 0x2f
100019ba:	4905      	ldr	r1, [pc, #20]	; (100019d0 <xosc_init+0x20>)
100019bc:	60d3      	str	r3, [r2, #12]
100019be:	4b05      	ldr	r3, [pc, #20]	; (100019d4 <xosc_init+0x24>)
100019c0:	6019      	str	r1, [r3, #0]
100019c2:	6853      	ldr	r3, [r2, #4]
100019c4:	2b00      	cmp	r3, #0
100019c6:	dafc      	bge.n	100019c2 <xosc_init+0x12>
100019c8:	4770      	bx	lr
100019ca:	46c0      	nop			; (mov r8, r8)
100019cc:	40024000 	.word	0x40024000
100019d0:	00fab000 	.word	0x00fab000
100019d4:	40026000 	.word	0x40026000

100019d8 <runtime_init>:
100019d8:	4b2c      	ldr	r3, [pc, #176]	; (10001a8c <runtime_init+0xb4>)
100019da:	4a2d      	ldr	r2, [pc, #180]	; (10001a90 <runtime_init+0xb8>)
100019dc:	b570      	push	{r4, r5, r6, lr}
100019de:	601a      	str	r2, [r3, #0]
100019e0:	4a2c      	ldr	r2, [pc, #176]	; (10001a94 <runtime_init+0xbc>)
100019e2:	4b2d      	ldr	r3, [pc, #180]	; (10001a98 <runtime_init+0xc0>)
100019e4:	492d      	ldr	r1, [pc, #180]	; (10001a9c <runtime_init+0xc4>)
100019e6:	601a      	str	r2, [r3, #0]
100019e8:	0014      	movs	r4, r2
100019ea:	688b      	ldr	r3, [r1, #8]
100019ec:	439c      	bics	r4, r3
100019ee:	d1fb      	bne.n	100019e8 <runtime_init+0x10>
100019f0:	4d2b      	ldr	r5, [pc, #172]	; (10001aa0 <runtime_init+0xc8>)
100019f2:	4e2c      	ldr	r6, [pc, #176]	; (10001aa4 <runtime_init+0xcc>)
100019f4:	42b5      	cmp	r5, r6
100019f6:	d208      	bcs.n	10001a0a <runtime_init+0x32>
100019f8:	3e01      	subs	r6, #1
100019fa:	1b76      	subs	r6, r6, r5
100019fc:	08b6      	lsrs	r6, r6, #2
100019fe:	cd08      	ldmia	r5!, {r3}
10001a00:	4798      	blx	r3
10001a02:	0023      	movs	r3, r4
10001a04:	3401      	adds	r4, #1
10001a06:	42b3      	cmp	r3, r6
10001a08:	d1f9      	bne.n	100019fe <runtime_init+0x26>
10001a0a:	f7ff fe0b 	bl	10001624 <clocks_init>
10001a0e:	4a26      	ldr	r2, [pc, #152]	; (10001aa8 <runtime_init+0xd0>)
10001a10:	4b21      	ldr	r3, [pc, #132]	; (10001a98 <runtime_init+0xc0>)
10001a12:	601a      	str	r2, [r3, #0]
10001a14:	4a21      	ldr	r2, [pc, #132]	; (10001a9c <runtime_init+0xc4>)
10001a16:	6893      	ldr	r3, [r2, #8]
10001a18:	43db      	mvns	r3, r3
10001a1a:	01db      	lsls	r3, r3, #7
10001a1c:	09dd      	lsrs	r5, r3, #7
10001a1e:	2b00      	cmp	r3, #0
10001a20:	d1f9      	bne.n	10001a16 <runtime_init+0x3e>
10001a22:	2240      	movs	r2, #64	; 0x40
10001a24:	4b21      	ldr	r3, [pc, #132]	; (10001aac <runtime_init+0xd4>)
10001a26:	4c22      	ldr	r4, [pc, #136]	; (10001ab0 <runtime_init+0xd8>)
10001a28:	4e22      	ldr	r6, [pc, #136]	; (10001ab4 <runtime_init+0xdc>)
10001a2a:	679a      	str	r2, [r3, #120]	; 0x78
10001a2c:	675a      	str	r2, [r3, #116]	; 0x74
10001a2e:	671a      	str	r2, [r3, #112]	; 0x70
10001a30:	66da      	str	r2, [r3, #108]	; 0x6c
10001a32:	42b4      	cmp	r4, r6
10001a34:	d208      	bcs.n	10001a48 <runtime_init+0x70>
10001a36:	6823      	ldr	r3, [r4, #0]
10001a38:	0020      	movs	r0, r4
10001a3a:	2b00      	cmp	r3, #0
10001a3c:	d020      	beq.n	10001a80 <runtime_init+0xa8>
10001a3e:	3408      	adds	r4, #8
10001a40:	f7fe feec 	bl	1000081c <recursive_mutex_init>
10001a44:	42b4      	cmp	r4, r6
10001a46:	d3f6      	bcc.n	10001a36 <runtime_init+0x5e>
10001a48:	4e1b      	ldr	r6, [pc, #108]	; (10001ab8 <runtime_init+0xe0>)
10001a4a:	4c1c      	ldr	r4, [pc, #112]	; (10001abc <runtime_init+0xe4>)
10001a4c:	22c0      	movs	r2, #192	; 0xc0
10001a4e:	68a1      	ldr	r1, [r4, #8]
10001a50:	0030      	movs	r0, r6
10001a52:	f000 f9c3 	bl	10001ddc <__wrap___aeabi_memcpy>
10001a56:	60a6      	str	r6, [r4, #8]
10001a58:	f7fe fd28 	bl	100004ac <spin_locks_reset>
10001a5c:	f7fe feb6 	bl	100007cc <irq_init_priorities>
10001a60:	f7ff f87a 	bl	10000b58 <alarm_pool_init_default>
10001a64:	4c16      	ldr	r4, [pc, #88]	; (10001ac0 <runtime_init+0xe8>)
10001a66:	4e17      	ldr	r6, [pc, #92]	; (10001ac4 <runtime_init+0xec>)
10001a68:	42b4      	cmp	r4, r6
10001a6a:	d208      	bcs.n	10001a7e <runtime_init+0xa6>
10001a6c:	3e01      	subs	r6, #1
10001a6e:	1b36      	subs	r6, r6, r4
10001a70:	08b6      	lsrs	r6, r6, #2
10001a72:	cc08      	ldmia	r4!, {r3}
10001a74:	4798      	blx	r3
10001a76:	002b      	movs	r3, r5
10001a78:	3501      	adds	r5, #1
10001a7a:	429e      	cmp	r6, r3
10001a7c:	d1f9      	bne.n	10001a72 <runtime_init+0x9a>
10001a7e:	bd70      	pop	{r4, r5, r6, pc}
10001a80:	3408      	adds	r4, #8
10001a82:	f7fe febd 	bl	10000800 <mutex_init>
10001a86:	42b4      	cmp	r4, r6
10001a88:	d3d5      	bcc.n	10001a36 <runtime_init+0x5e>
10001a8a:	e7dd      	b.n	10001a48 <runtime_init+0x70>
10001a8c:	4000e000 	.word	0x4000e000
10001a90:	fefbcdbf 	.word	0xfefbcdbf
10001a94:	003c7ffe 	.word	0x003c7ffe
10001a98:	4000f000 	.word	0x4000f000
10001a9c:	4000c000 	.word	0x4000c000
10001aa0:	20000a98 	.word	0x20000a98
10001aa4:	20000aa8 	.word	0x20000aa8
10001aa8:	01ffffff 	.word	0x01ffffff
10001aac:	4001f000 	.word	0x4001f000
10001ab0:	20000a90 	.word	0x20000a90
10001ab4:	20000a98 	.word	0x20000a98
10001ab8:	20000000 	.word	0x20000000
10001abc:	e000ed00 	.word	0xe000ed00
10001ac0:	20000aa8 	.word	0x20000aa8
10001ac4:	20000aac 	.word	0x20000aac

10001ac8 <_exit>:
10001ac8:	be00      	bkpt	0x0000
10001aca:	e7fd      	b.n	10001ac8 <_exit>

10001acc <_sbrk>:
10001acc:	4a09      	ldr	r2, [pc, #36]	; (10001af4 <_sbrk+0x28>)
10001ace:	0003      	movs	r3, r0
10001ad0:	6810      	ldr	r0, [r2, #0]
10001ad2:	2800      	cmp	r0, #0
10001ad4:	d005      	beq.n	10001ae2 <_sbrk+0x16>
10001ad6:	4908      	ldr	r1, [pc, #32]	; (10001af8 <_sbrk+0x2c>)
10001ad8:	18c3      	adds	r3, r0, r3
10001ada:	428b      	cmp	r3, r1
10001adc:	d807      	bhi.n	10001aee <_sbrk+0x22>
10001ade:	6013      	str	r3, [r2, #0]
10001ae0:	4770      	bx	lr
10001ae2:	4806      	ldr	r0, [pc, #24]	; (10001afc <_sbrk+0x30>)
10001ae4:	4904      	ldr	r1, [pc, #16]	; (10001af8 <_sbrk+0x2c>)
10001ae6:	18c3      	adds	r3, r0, r3
10001ae8:	6010      	str	r0, [r2, #0]
10001aea:	428b      	cmp	r3, r1
10001aec:	d9f7      	bls.n	10001ade <_sbrk+0x12>
10001aee:	2001      	movs	r0, #1
10001af0:	4240      	negs	r0, r0
10001af2:	e7f5      	b.n	10001ae0 <_sbrk+0x14>
10001af4:	2000101c 	.word	0x2000101c
10001af8:	20040000 	.word	0x20040000
10001afc:	20001058 	.word	0x20001058

10001b00 <exit>:
10001b00:	b510      	push	{r4, lr}
10001b02:	f7ff ffe1 	bl	10001ac8 <_exit>
10001b06:	46c0      	nop			; (mov r8, r8)

10001b08 <panic>:
10001b08:	b40f      	push	{r0, r1, r2, r3}
10001b0a:	b500      	push	{lr}
10001b0c:	4808      	ldr	r0, [pc, #32]	; (10001b30 <panic+0x28>)
10001b0e:	b083      	sub	sp, #12
10001b10:	f000 fa96 	bl	10002040 <__wrap_puts>
10001b14:	9b04      	ldr	r3, [sp, #16]
10001b16:	2b00      	cmp	r3, #0
10001b18:	d007      	beq.n	10001b2a <panic+0x22>
10001b1a:	a905      	add	r1, sp, #20
10001b1c:	0018      	movs	r0, r3
10001b1e:	9101      	str	r1, [sp, #4]
10001b20:	f000 f818 	bl	10001b54 <weak_raw_vprintf>
10001b24:	4803      	ldr	r0, [pc, #12]	; (10001b34 <panic+0x2c>)
10001b26:	f000 fa8b 	bl	10002040 <__wrap_puts>
10001b2a:	2001      	movs	r0, #1
10001b2c:	f7ff ffcc 	bl	10001ac8 <_exit>
10001b30:	10005a5c 	.word	0x10005a5c
10001b34:	10005a6c 	.word	0x10005a6c

10001b38 <hard_assertion_failure>:
10001b38:	b510      	push	{r4, lr}
10001b3a:	4801      	ldr	r0, [pc, #4]	; (10001b40 <hard_assertion_failure+0x8>)
10001b3c:	f7ff ffe4 	bl	10001b08 <panic>
10001b40:	10005a70 	.word	0x10005a70

10001b44 <_out_char>:
10001b44:	b510      	push	{r4, lr}
10001b46:	2800      	cmp	r0, #0
10001b48:	d100      	bne.n	10001b4c <_out_char+0x8>
10001b4a:	bd10      	pop	{r4, pc}
10001b4c:	f000 fa2c 	bl	10001fa8 <__wrap_putchar>
10001b50:	e7fb      	b.n	10001b4a <_out_char+0x6>
10001b52:	46c0      	nop			; (mov r8, r8)

10001b54 <weak_raw_vprintf>:
10001b54:	b510      	push	{r4, lr}
10001b56:	4a09      	ldr	r2, [pc, #36]	; (10001b7c <weak_raw_vprintf+0x28>)
10001b58:	0003      	movs	r3, r0
10001b5a:	6814      	ldr	r4, [r2, #0]
10001b5c:	b084      	sub	sp, #16
10001b5e:	2c00      	cmp	r4, #0
10001b60:	d008      	beq.n	10001b74 <weak_raw_vprintf+0x20>
10001b62:	2201      	movs	r2, #1
10001b64:	9100      	str	r1, [sp, #0]
10001b66:	4806      	ldr	r0, [pc, #24]	; (10001b80 <weak_raw_vprintf+0x2c>)
10001b68:	4252      	negs	r2, r2
10001b6a:	a903      	add	r1, sp, #12
10001b6c:	47a0      	blx	r4
10001b6e:	2001      	movs	r0, #1
10001b70:	b004      	add	sp, #16
10001b72:	bd10      	pop	{r4, pc}
10001b74:	f000 fa64 	bl	10002040 <__wrap_puts>
10001b78:	2000      	movs	r0, #0
10001b7a:	e7f9      	b.n	10001b70 <weak_raw_vprintf+0x1c>
10001b7c:	20001020 	.word	0x20001020
10001b80:	10001b45 	.word	0x10001b45

10001b84 <__aeabi_bits_init>:
10001b84:	4801      	ldr	r0, [pc, #4]	; (10001b8c <__aeabi_bits_init+0x8>)
10001b86:	2104      	movs	r1, #4
10001b88:	4b01      	ldr	r3, [pc, #4]	; (10001b90 <__aeabi_bits_init+0xc>)
10001b8a:	4718      	bx	r3
10001b8c:	20000210 	.word	0x20000210
10001b90:	10001bb5 	.word	0x10001bb5

10001b94 <rom_func_lookup>:
10001b94:	2314      	movs	r3, #20
10001b96:	b510      	push	{r4, lr}
10001b98:	0001      	movs	r1, r0
10001b9a:	8818      	ldrh	r0, [r3, #0]
10001b9c:	3304      	adds	r3, #4
10001b9e:	881b      	ldrh	r3, [r3, #0]
10001ba0:	4798      	blx	r3
10001ba2:	bd10      	pop	{r4, pc}

10001ba4 <rom_data_lookup>:
10001ba4:	2316      	movs	r3, #22
10001ba6:	b510      	push	{r4, lr}
10001ba8:	0001      	movs	r1, r0
10001baa:	8818      	ldrh	r0, [r3, #0]
10001bac:	3302      	adds	r3, #2
10001bae:	881b      	ldrh	r3, [r3, #0]
10001bb0:	4798      	blx	r3
10001bb2:	bd10      	pop	{r4, pc}

10001bb4 <rom_funcs_lookup>:
10001bb4:	b5f8      	push	{r3, r4, r5, r6, r7, lr}
10001bb6:	4647      	mov	r7, r8
10001bb8:	46ce      	mov	lr, r9
10001bba:	b580      	push	{r7, lr}
10001bbc:	1e0f      	subs	r7, r1, #0
10001bbe:	d019      	beq.n	10001bf4 <rom_funcs_lookup+0x40>
10001bc0:	2314      	movs	r3, #20
10001bc2:	4699      	mov	r9, r3
10001bc4:	3304      	adds	r3, #4
10001bc6:	0004      	movs	r4, r0
10001bc8:	2500      	movs	r5, #0
10001bca:	2601      	movs	r6, #1
10001bcc:	4698      	mov	r8, r3
10001bce:	464b      	mov	r3, r9
10001bd0:	8818      	ldrh	r0, [r3, #0]
10001bd2:	4643      	mov	r3, r8
10001bd4:	6821      	ldr	r1, [r4, #0]
10001bd6:	881b      	ldrh	r3, [r3, #0]
10001bd8:	4798      	blx	r3
10001bda:	c401      	stmia	r4!, {r0}
10001bdc:	1e43      	subs	r3, r0, #1
10001bde:	4198      	sbcs	r0, r3
10001be0:	3501      	adds	r5, #1
10001be2:	4240      	negs	r0, r0
10001be4:	4006      	ands	r6, r0
10001be6:	42af      	cmp	r7, r5
10001be8:	d1f1      	bne.n	10001bce <rom_funcs_lookup+0x1a>
10001bea:	0030      	movs	r0, r6
10001bec:	bcc0      	pop	{r6, r7}
10001bee:	46b9      	mov	r9, r7
10001bf0:	46b0      	mov	r8, r6
10001bf2:	bdf8      	pop	{r3, r4, r5, r6, r7, pc}
10001bf4:	2601      	movs	r6, #1
10001bf6:	e7f8      	b.n	10001bea <rom_funcs_lookup+0x36>

10001bf8 <__wrap___aeabi_uidiv>:
10001bf8:	4a11      	ldr	r2, [pc, #68]	; (10001c40 <divmod_u32u32_savestate+0x18>)
10001bfa:	6f93      	ldr	r3, [r2, #120]	; 0x78
10001bfc:	089b      	lsrs	r3, r3, #2
10001bfe:	d213      	bcs.n	10001c28 <divmod_u32u32_savestate>

10001c00 <divmod_u32u32_unsafe>:
10001c00:	6610      	str	r0, [r2, #96]	; 0x60
10001c02:	6651      	str	r1, [r2, #100]	; 0x64
10001c04:	2900      	cmp	r1, #0
10001c06:	d005      	beq.n	10001c14 <divmod_u32u32_unsafe+0x14>
10001c08:	e7ff      	b.n	10001c0a <divmod_u32u32_unsafe+0xa>
10001c0a:	e7ff      	b.n	10001c0c <divmod_u32u32_unsafe+0xc>
10001c0c:	e7ff      	b.n	10001c0e <divmod_u32u32_unsafe+0xe>
10001c0e:	6f51      	ldr	r1, [r2, #116]	; 0x74
10001c10:	6f10      	ldr	r0, [r2, #112]	; 0x70
10001c12:	4770      	bx	lr
10001c14:	b504      	push	{r2, lr}
10001c16:	2800      	cmp	r0, #0
10001c18:	d001      	beq.n	10001c1e <divmod_u32u32_unsafe+0x1e>
10001c1a:	2000      	movs	r0, #0
10001c1c:	43c0      	mvns	r0, r0
10001c1e:	f003 feef 	bl	10005a00 <____aeabi_idiv0_veneer>
10001c22:	2100      	movs	r1, #0
10001c24:	bd04      	pop	{r2, pc}
10001c26:	46c0      	nop			; (mov r8, r8)

10001c28 <divmod_u32u32_savestate>:
10001c28:	b5f0      	push	{r4, r5, r6, r7, lr}
10001c2a:	6e14      	ldr	r4, [r2, #96]	; 0x60
10001c2c:	6e55      	ldr	r5, [r2, #100]	; 0x64
10001c2e:	6f57      	ldr	r7, [r2, #116]	; 0x74
10001c30:	6f16      	ldr	r6, [r2, #112]	; 0x70
10001c32:	f7ff ffe5 	bl	10001c00 <divmod_u32u32_unsafe>
10001c36:	6614      	str	r4, [r2, #96]	; 0x60
10001c38:	6655      	str	r5, [r2, #100]	; 0x64
10001c3a:	6757      	str	r7, [r2, #116]	; 0x74
10001c3c:	6716      	str	r6, [r2, #112]	; 0x70
10001c3e:	bdf0      	pop	{r4, r5, r6, r7, pc}
10001c40:	d0000000 	.word	0xd0000000

10001c44 <__aeabi_double_init>:
10001c44:	2313      	movs	r3, #19
10001c46:	b570      	push	{r4, r5, r6, lr}
10001c48:	781d      	ldrb	r5, [r3, #0]
10001c4a:	2d01      	cmp	r5, #1
10001c4c:	d015      	beq.n	10001c7a <__aeabi_double_init+0x36>
10001c4e:	dd10      	ble.n	10001c72 <__aeabi_double_init+0x2e>
10001c50:	481c      	ldr	r0, [pc, #112]	; (10001cc4 <__aeabi_double_init+0x80>)
10001c52:	f7ff ffa7 	bl	10001ba4 <rom_data_lookup>
10001c56:	4c1c      	ldr	r4, [pc, #112]	; (10001cc8 <__aeabi_double_init+0x84>)
10001c58:	0001      	movs	r1, r0
10001c5a:	2280      	movs	r2, #128	; 0x80
10001c5c:	0020      	movs	r0, r4
10001c5e:	f000 f8bd 	bl	10001ddc <__wrap___aeabi_memcpy>
10001c62:	2d02      	cmp	r5, #2
10001c64:	d006      	beq.n	10001c74 <__aeabi_double_init+0x30>
10001c66:	4819      	ldr	r0, [pc, #100]	; (10001ccc <__aeabi_double_init+0x88>)
10001c68:	f7ff ff94 	bl	10001b94 <rom_func_lookup>
10001c6c:	4b18      	ldr	r3, [pc, #96]	; (10001cd0 <__aeabi_double_init+0x8c>)
10001c6e:	6018      	str	r0, [r3, #0]
10001c70:	bd70      	pop	{r4, r5, r6, pc}
10001c72:	4c15      	ldr	r4, [pc, #84]	; (10001cc8 <__aeabi_double_init+0x84>)
10001c74:	4b17      	ldr	r3, [pc, #92]	; (10001cd4 <__aeabi_double_init+0x90>)
10001c76:	64a3      	str	r3, [r4, #72]	; 0x48
10001c78:	e7f5      	b.n	10001c66 <__aeabi_double_init+0x22>
10001c7a:	4b16      	ldr	r3, [pc, #88]	; (10001cd4 <__aeabi_double_init+0x90>)
10001c7c:	4c12      	ldr	r4, [pc, #72]	; (10001cc8 <__aeabi_double_init+0x84>)
10001c7e:	6023      	str	r3, [r4, #0]
10001c80:	6063      	str	r3, [r4, #4]
10001c82:	60a3      	str	r3, [r4, #8]
10001c84:	60e3      	str	r3, [r4, #12]
10001c86:	6123      	str	r3, [r4, #16]
10001c88:	6163      	str	r3, [r4, #20]
10001c8a:	61a3      	str	r3, [r4, #24]
10001c8c:	61e3      	str	r3, [r4, #28]
10001c8e:	6223      	str	r3, [r4, #32]
10001c90:	6263      	str	r3, [r4, #36]	; 0x24
10001c92:	62a3      	str	r3, [r4, #40]	; 0x28
10001c94:	62e3      	str	r3, [r4, #44]	; 0x2c
10001c96:	6323      	str	r3, [r4, #48]	; 0x30
10001c98:	6363      	str	r3, [r4, #52]	; 0x34
10001c9a:	63a3      	str	r3, [r4, #56]	; 0x38
10001c9c:	63e3      	str	r3, [r4, #60]	; 0x3c
10001c9e:	6423      	str	r3, [r4, #64]	; 0x40
10001ca0:	6463      	str	r3, [r4, #68]	; 0x44
10001ca2:	64a3      	str	r3, [r4, #72]	; 0x48
10001ca4:	64e3      	str	r3, [r4, #76]	; 0x4c
10001ca6:	6523      	str	r3, [r4, #80]	; 0x50
10001ca8:	6563      	str	r3, [r4, #84]	; 0x54
10001caa:	65a3      	str	r3, [r4, #88]	; 0x58
10001cac:	65e3      	str	r3, [r4, #92]	; 0x5c
10001cae:	6623      	str	r3, [r4, #96]	; 0x60
10001cb0:	6663      	str	r3, [r4, #100]	; 0x64
10001cb2:	66a3      	str	r3, [r4, #104]	; 0x68
10001cb4:	66e3      	str	r3, [r4, #108]	; 0x6c
10001cb6:	6723      	str	r3, [r4, #112]	; 0x70
10001cb8:	6763      	str	r3, [r4, #116]	; 0x74
10001cba:	67a3      	str	r3, [r4, #120]	; 0x78
10001cbc:	67e3      	str	r3, [r4, #124]	; 0x7c
10001cbe:	64a3      	str	r3, [r4, #72]	; 0x48
10001cc0:	e7d1      	b.n	10001c66 <__aeabi_double_init+0x22>
10001cc2:	46c0      	nop			; (mov r8, r8)
10001cc4:	00004453 	.word	0x00004453
10001cc8:	20000c00 	.word	0x20000c00
10001ccc:	0000334c 	.word	0x0000334c
10001cd0:	20001034 	.word	0x20001034
10001cd4:	10001cd9 	.word	0x10001cd9

10001cd8 <double_table_shim_on_use_helper>:
10001cd8:	b507      	push	{r0, r1, r2, lr}
10001cda:	4660      	mov	r0, ip
10001cdc:	8801      	ldrh	r1, [r0, #0]
10001cde:	0a0a      	lsrs	r2, r1, #8
10001ce0:	3002      	adds	r0, #2
10001ce2:	2adf      	cmp	r2, #223	; 0xdf
10001ce4:	d1fa      	bne.n	10001cdc <double_table_shim_on_use_helper+0x4>
10001ce6:	b2c9      	uxtb	r1, r1
10001ce8:	0882      	lsrs	r2, r0, #2
10001cea:	d304      	bcc.n	10001cf6 <double_table_shim_on_use_helper+0x1e>
10001cec:	8802      	ldrh	r2, [r0, #0]
10001cee:	8840      	ldrh	r0, [r0, #2]
10001cf0:	0400      	lsls	r0, r0, #16
10001cf2:	4310      	orrs	r0, r2
10001cf4:	e000      	b.n	10001cf8 <double_table_shim_on_use_helper+0x20>
10001cf6:	6800      	ldr	r0, [r0, #0]
10001cf8:	4a01      	ldr	r2, [pc, #4]	; (10001d00 <double_table_shim_on_use_helper+0x28>)
10001cfa:	5050      	str	r0, [r2, r1]
10001cfc:	9003      	str	r0, [sp, #12]
10001cfe:	bd07      	pop	{r0, r1, r2, pc}
10001d00:	20000c00 	.word	0x20000c00

10001d04 <__aeabi_float_init>:
10001d04:	2313      	movs	r3, #19
10001d06:	b510      	push	{r4, lr}
10001d08:	4812      	ldr	r0, [pc, #72]	; (10001d54 <__aeabi_float_init+0x50>)
10001d0a:	781c      	ldrb	r4, [r3, #0]
10001d0c:	f7ff ff4a 	bl	10001ba4 <rom_data_lookup>
10001d10:	0001      	movs	r1, r0
10001d12:	2c01      	cmp	r4, #1
10001d14:	d00a      	beq.n	10001d2c <__aeabi_float_init+0x28>
10001d16:	dd03      	ble.n	10001d20 <__aeabi_float_init+0x1c>
10001d18:	2280      	movs	r2, #128	; 0x80
10001d1a:	480f      	ldr	r0, [pc, #60]	; (10001d58 <__aeabi_float_init+0x54>)
10001d1c:	f000 f85e 	bl	10001ddc <__wrap___aeabi_memcpy>
10001d20:	480e      	ldr	r0, [pc, #56]	; (10001d5c <__aeabi_float_init+0x58>)
10001d22:	f7ff ff37 	bl	10001b94 <rom_func_lookup>
10001d26:	4b0e      	ldr	r3, [pc, #56]	; (10001d60 <__aeabi_float_init+0x5c>)
10001d28:	6018      	str	r0, [r3, #0]
10001d2a:	bd10      	pop	{r4, pc}
10001d2c:	4c0a      	ldr	r4, [pc, #40]	; (10001d58 <__aeabi_float_init+0x54>)
10001d2e:	2254      	movs	r2, #84	; 0x54
10001d30:	0020      	movs	r0, r4
10001d32:	f000 f853 	bl	10001ddc <__wrap___aeabi_memcpy>
10001d36:	4b0b      	ldr	r3, [pc, #44]	; (10001d64 <__aeabi_float_init+0x60>)
10001d38:	6563      	str	r3, [r4, #84]	; 0x54
10001d3a:	65a3      	str	r3, [r4, #88]	; 0x58
10001d3c:	65e3      	str	r3, [r4, #92]	; 0x5c
10001d3e:	6623      	str	r3, [r4, #96]	; 0x60
10001d40:	6663      	str	r3, [r4, #100]	; 0x64
10001d42:	66a3      	str	r3, [r4, #104]	; 0x68
10001d44:	66e3      	str	r3, [r4, #108]	; 0x6c
10001d46:	6723      	str	r3, [r4, #112]	; 0x70
10001d48:	6763      	str	r3, [r4, #116]	; 0x74
10001d4a:	67a3      	str	r3, [r4, #120]	; 0x78
10001d4c:	67e3      	str	r3, [r4, #124]	; 0x7c
10001d4e:	6223      	str	r3, [r4, #32]
10001d50:	61e3      	str	r3, [r4, #28]
10001d52:	e7e5      	b.n	10001d20 <__aeabi_float_init+0x1c>
10001d54:	00004653 	.word	0x00004653
10001d58:	20000d00 	.word	0x20000d00
10001d5c:	0000334c 	.word	0x0000334c
10001d60:	20001034 	.word	0x20001034
10001d64:	10001d69 	.word	0x10001d69

10001d68 <float_table_shim_on_use_helper>:
10001d68:	b507      	push	{r0, r1, r2, lr}
10001d6a:	4660      	mov	r0, ip
10001d6c:	8801      	ldrh	r1, [r0, #0]
10001d6e:	0a0a      	lsrs	r2, r1, #8
10001d70:	3002      	adds	r0, #2
10001d72:	2adf      	cmp	r2, #223	; 0xdf
10001d74:	d1fa      	bne.n	10001d6c <float_table_shim_on_use_helper+0x4>
10001d76:	b2c9      	uxtb	r1, r1
10001d78:	0882      	lsrs	r2, r0, #2
10001d7a:	d304      	bcc.n	10001d86 <float_table_shim_on_use_helper+0x1e>
10001d7c:	8802      	ldrh	r2, [r0, #0]
10001d7e:	8840      	ldrh	r0, [r0, #2]
10001d80:	0400      	lsls	r0, r0, #16
10001d82:	4310      	orrs	r0, r2
10001d84:	e000      	b.n	10001d88 <float_table_shim_on_use_helper+0x20>
10001d86:	6800      	ldr	r0, [r0, #0]
10001d88:	4a01      	ldr	r2, [pc, #4]	; (10001d90 <float_table_shim_on_use_helper+0x28>)
10001d8a:	5050      	str	r0, [r2, r1]
10001d8c:	9003      	str	r0, [sp, #12]
10001d8e:	bd07      	pop	{r0, r1, r2, pc}
10001d90:	20000d00 	.word	0x20000d00

10001d94 <__wrap_malloc>:
10001d94:	b510      	push	{r4, lr}
10001d96:	0004      	movs	r4, r0
10001d98:	f003 f9e4 	bl	10005164 <malloc>
10001d9c:	2800      	cmp	r0, #0
10001d9e:	d004      	beq.n	10001daa <__wrap_malloc+0x16>
10001da0:	4b03      	ldr	r3, [pc, #12]	; (10001db0 <__wrap_malloc+0x1c>)
10001da2:	1904      	adds	r4, r0, r4
10001da4:	429c      	cmp	r4, r3
10001da6:	d800      	bhi.n	10001daa <__wrap_malloc+0x16>
10001da8:	bd10      	pop	{r4, pc}
10001daa:	4802      	ldr	r0, [pc, #8]	; (10001db4 <__wrap_malloc+0x20>)
10001dac:	f7ff feac 	bl	10001b08 <panic>
10001db0:	20040000 	.word	0x20040000
10001db4:	10005a7c 	.word	0x10005a7c

10001db8 <__wrap_free>:
10001db8:	b510      	push	{r4, lr}
10001dba:	f003 f9dd 	bl	10005178 <free>
10001dbe:	bd10      	pop	{r4, pc}

10001dc0 <__aeabi_mem_init>:
10001dc0:	4801      	ldr	r0, [pc, #4]	; (10001dc8 <__aeabi_mem_init+0x8>)
10001dc2:	2104      	movs	r1, #4
10001dc4:	4b01      	ldr	r3, [pc, #4]	; (10001dcc <__aeabi_mem_init+0xc>)
10001dc6:	4718      	bx	r3
10001dc8:	20000220 	.word	0x20000220
10001dcc:	10001bb5 	.word	0x10001bb5

10001dd0 <__wrap_memset>:
10001dd0:	4b01      	ldr	r3, [pc, #4]	; (10001dd8 <__wrap_memset+0x8>)
10001dd2:	681b      	ldr	r3, [r3, #0]
10001dd4:	4718      	bx	r3
10001dd6:	0000      	.short	0x0000
10001dd8:	20000220 	.word	0x20000220

10001ddc <__wrap___aeabi_memcpy>:
10001ddc:	4b01      	ldr	r3, [pc, #4]	; (10001de4 <__wrap___aeabi_memcpy+0x8>)
10001dde:	685b      	ldr	r3, [r3, #4]
10001de0:	4718      	bx	r3
10001de2:	0000      	.short	0x0000
10001de4:	20000220 	.word	0x20000220

10001de8 <stdio_out_chars_no_crlf>:
10001de8:	0003      	movs	r3, r0
10001dea:	b510      	push	{r4, lr}
10001dec:	0008      	movs	r0, r1
10001dee:	0011      	movs	r1, r2
10001df0:	681b      	ldr	r3, [r3, #0]
10001df2:	4798      	blx	r3
10001df4:	bd10      	pop	{r4, pc}
10001df6:	46c0      	nop			; (mov r8, r8)

10001df8 <stdio_out_chars_crlf>:
10001df8:	b5f0      	push	{r4, r5, r6, r7, lr}
10001dfa:	4646      	mov	r6, r8
10001dfc:	464f      	mov	r7, r9
10001dfe:	46d6      	mov	lr, sl
10001e00:	b5c0      	push	{r6, r7, lr}
10001e02:	7d43      	ldrb	r3, [r0, #21]
10001e04:	4680      	mov	r8, r0
10001e06:	000e      	movs	r6, r1
10001e08:	0017      	movs	r7, r2
10001e0a:	2b00      	cmp	r3, #0
10001e0c:	d046      	beq.n	10001e9c <stdio_out_chars_crlf+0xa4>
10001e0e:	2a00      	cmp	r2, #0
10001e10:	dd3f      	ble.n	10001e92 <stdio_out_chars_crlf+0x9a>
10001e12:	1e4b      	subs	r3, r1, #1
10001e14:	4699      	mov	r9, r3
10001e16:	4b24      	ldr	r3, [pc, #144]	; (10001ea8 <stdio_out_chars_crlf+0xb0>)
10001e18:	2501      	movs	r5, #1
10001e1a:	2400      	movs	r4, #0
10001e1c:	2000      	movs	r0, #0
10001e1e:	469a      	mov	sl, r3
10001e20:	e00d      	b.n	10001e3e <stdio_out_chars_crlf+0x46>
10001e22:	464b      	mov	r3, r9
10001e24:	5d1b      	ldrb	r3, [r3, r4]
10001e26:	3b0d      	subs	r3, #13
10001e28:	425a      	negs	r2, r3
10001e2a:	4153      	adcs	r3, r2
10001e2c:	5d32      	ldrb	r2, [r6, r4]
10001e2e:	b2db      	uxtb	r3, r3
10001e30:	2a0a      	cmp	r2, #10
10001e32:	d00b      	beq.n	10001e4c <stdio_out_chars_crlf+0x54>
10001e34:	002b      	movs	r3, r5
10001e36:	3401      	adds	r4, #1
10001e38:	3501      	adds	r5, #1
10001e3a:	429f      	cmp	r7, r3
10001e3c:	dd1a      	ble.n	10001e74 <stdio_out_chars_crlf+0x7c>
10001e3e:	2c00      	cmp	r4, #0
10001e40:	d1ef      	bne.n	10001e22 <stdio_out_chars_crlf+0x2a>
10001e42:	4643      	mov	r3, r8
10001e44:	5d32      	ldrb	r2, [r6, r4]
10001e46:	7d1b      	ldrb	r3, [r3, #20]
10001e48:	2a0a      	cmp	r2, #10
10001e4a:	d1f3      	bne.n	10001e34 <stdio_out_chars_crlf+0x3c>
10001e4c:	2b00      	cmp	r3, #0
10001e4e:	d1f1      	bne.n	10001e34 <stdio_out_chars_crlf+0x3c>
10001e50:	42a0      	cmp	r0, r4
10001e52:	da04      	bge.n	10001e5e <stdio_out_chars_crlf+0x66>
10001e54:	4643      	mov	r3, r8
10001e56:	1a21      	subs	r1, r4, r0
10001e58:	681b      	ldr	r3, [r3, #0]
10001e5a:	1830      	adds	r0, r6, r0
10001e5c:	4798      	blx	r3
10001e5e:	4643      	mov	r3, r8
10001e60:	4650      	mov	r0, sl
10001e62:	681b      	ldr	r3, [r3, #0]
10001e64:	2102      	movs	r1, #2
10001e66:	4798      	blx	r3
10001e68:	3401      	adds	r4, #1
10001e6a:	0028      	movs	r0, r5
10001e6c:	002b      	movs	r3, r5
10001e6e:	3501      	adds	r5, #1
10001e70:	429f      	cmp	r7, r3
10001e72:	dce4      	bgt.n	10001e3e <stdio_out_chars_crlf+0x46>
10001e74:	4287      	cmp	r7, r0
10001e76:	dd04      	ble.n	10001e82 <stdio_out_chars_crlf+0x8a>
10001e78:	4643      	mov	r3, r8
10001e7a:	1a39      	subs	r1, r7, r0
10001e7c:	681b      	ldr	r3, [r3, #0]
10001e7e:	1830      	adds	r0, r6, r0
10001e80:	4798      	blx	r3
10001e82:	19f6      	adds	r6, r6, r7
10001e84:	3e01      	subs	r6, #1
10001e86:	7833      	ldrb	r3, [r6, #0]
10001e88:	3b0d      	subs	r3, #13
10001e8a:	425a      	negs	r2, r3
10001e8c:	4153      	adcs	r3, r2
10001e8e:	4642      	mov	r2, r8
10001e90:	7513      	strb	r3, [r2, #20]
10001e92:	bce0      	pop	{r5, r6, r7}
10001e94:	46ba      	mov	sl, r7
10001e96:	46b1      	mov	r9, r6
10001e98:	46a8      	mov	r8, r5
10001e9a:	bdf0      	pop	{r4, r5, r6, r7, pc}
10001e9c:	6803      	ldr	r3, [r0, #0]
10001e9e:	0011      	movs	r1, r2
10001ea0:	0030      	movs	r0, r6
10001ea2:	4798      	blx	r3
10001ea4:	e7f5      	b.n	10001e92 <stdio_out_chars_crlf+0x9a>
10001ea6:	46c0      	nop			; (mov r8, r8)
10001ea8:	10005aec 	.word	0x10005aec

10001eac <stdio_put_string.isra.0>:
10001eac:	b5f0      	push	{r4, r5, r6, r7, lr}
10001eae:	46de      	mov	lr, fp
10001eb0:	4657      	mov	r7, sl
10001eb2:	464e      	mov	r6, r9
10001eb4:	4645      	mov	r5, r8
10001eb6:	b5e0      	push	{r5, r6, r7, lr}
10001eb8:	b085      	sub	sp, #20
10001eba:	0017      	movs	r7, r2
10001ebc:	001c      	movs	r4, r3
10001ebe:	0006      	movs	r6, r0
10001ec0:	000d      	movs	r5, r1
10001ec2:	f7ff f80f 	bl	10000ee4 <time_us_64>
10001ec6:	2300      	movs	r3, #0
10001ec8:	4a30      	ldr	r2, [pc, #192]	; (10001f8c <stdio_put_string.isra.0+0xe0>)
10001eca:	1812      	adds	r2, r2, r0
10001ecc:	414b      	adcs	r3, r1
10001ece:	2b00      	cmp	r3, #0
10001ed0:	db58      	blt.n	10001f84 <stdio_put_string.isra.0+0xd8>
10001ed2:	492f      	ldr	r1, [pc, #188]	; (10001f90 <stdio_put_string.isra.0+0xe4>)
10001ed4:	0008      	movs	r0, r1
10001ed6:	468a      	mov	sl, r1
10001ed8:	f003 fd9a 	bl	10005a10 <__mutex_try_enter_block_until_veneer>
10001edc:	9001      	str	r0, [sp, #4]
10001ede:	1c6b      	adds	r3, r5, #1
10001ee0:	d103      	bne.n	10001eea <stdio_put_string.isra.0+0x3e>
10001ee2:	0030      	movs	r0, r6
10001ee4:	f003 fc22 	bl	1000572c <strlen>
10001ee8:	0005      	movs	r5, r0
10001eea:	2c00      	cmp	r4, #0
10001eec:	d125      	bne.n	10001f3a <stdio_put_string.isra.0+0x8e>
10001eee:	4b29      	ldr	r3, [pc, #164]	; (10001f94 <stdio_put_string.isra.0+0xe8>)
10001ef0:	4698      	mov	r8, r3
10001ef2:	4b29      	ldr	r3, [pc, #164]	; (10001f98 <stdio_put_string.isra.0+0xec>)
10001ef4:	681c      	ldr	r4, [r3, #0]
10001ef6:	2c00      	cmp	r4, #0
10001ef8:	d015      	beq.n	10001f26 <stdio_put_string.isra.0+0x7a>
10001efa:	2f00      	cmp	r7, #0
10001efc:	d120      	bne.n	10001f40 <stdio_put_string.isra.0+0x94>
10001efe:	4f27      	ldr	r7, [pc, #156]	; (10001f9c <stdio_put_string.isra.0+0xf0>)
10001f00:	e002      	b.n	10001f08 <stdio_put_string.isra.0+0x5c>
10001f02:	6924      	ldr	r4, [r4, #16]
10001f04:	2c00      	cmp	r4, #0
10001f06:	d00e      	beq.n	10001f26 <stdio_put_string.isra.0+0x7a>
10001f08:	6823      	ldr	r3, [r4, #0]
10001f0a:	2b00      	cmp	r3, #0
10001f0c:	d0f9      	beq.n	10001f02 <stdio_put_string.isra.0+0x56>
10001f0e:	683b      	ldr	r3, [r7, #0]
10001f10:	2b00      	cmp	r3, #0
10001f12:	d001      	beq.n	10001f18 <stdio_put_string.isra.0+0x6c>
10001f14:	42a3      	cmp	r3, r4
10001f16:	d1f4      	bne.n	10001f02 <stdio_put_string.isra.0+0x56>
10001f18:	0020      	movs	r0, r4
10001f1a:	002a      	movs	r2, r5
10001f1c:	0031      	movs	r1, r6
10001f1e:	47c0      	blx	r8
10001f20:	6924      	ldr	r4, [r4, #16]
10001f22:	2c00      	cmp	r4, #0
10001f24:	d1f0      	bne.n	10001f08 <stdio_put_string.isra.0+0x5c>
10001f26:	9b01      	ldr	r3, [sp, #4]
10001f28:	2b00      	cmp	r3, #0
10001f2a:	d127      	bne.n	10001f7c <stdio_put_string.isra.0+0xd0>
10001f2c:	b005      	add	sp, #20
10001f2e:	bcf0      	pop	{r4, r5, r6, r7}
10001f30:	46bb      	mov	fp, r7
10001f32:	46b2      	mov	sl, r6
10001f34:	46a9      	mov	r9, r5
10001f36:	46a0      	mov	r8, r4
10001f38:	bdf0      	pop	{r4, r5, r6, r7, pc}
10001f3a:	4b19      	ldr	r3, [pc, #100]	; (10001fa0 <stdio_put_string.isra.0+0xf4>)
10001f3c:	4698      	mov	r8, r3
10001f3e:	e7d8      	b.n	10001ef2 <stdio_put_string.isra.0+0x46>
10001f40:	4b16      	ldr	r3, [pc, #88]	; (10001f9c <stdio_put_string.isra.0+0xf0>)
10001f42:	4699      	mov	r9, r3
10001f44:	ab02      	add	r3, sp, #8
10001f46:	1ddf      	adds	r7, r3, #7
10001f48:	230a      	movs	r3, #10
10001f4a:	469b      	mov	fp, r3
10001f4c:	e002      	b.n	10001f54 <stdio_put_string.isra.0+0xa8>
10001f4e:	6924      	ldr	r4, [r4, #16]
10001f50:	2c00      	cmp	r4, #0
10001f52:	d0e8      	beq.n	10001f26 <stdio_put_string.isra.0+0x7a>
10001f54:	6823      	ldr	r3, [r4, #0]
10001f56:	2b00      	cmp	r3, #0
10001f58:	d0f9      	beq.n	10001f4e <stdio_put_string.isra.0+0xa2>
10001f5a:	464b      	mov	r3, r9
10001f5c:	681b      	ldr	r3, [r3, #0]
10001f5e:	2b00      	cmp	r3, #0
10001f60:	d001      	beq.n	10001f66 <stdio_put_string.isra.0+0xba>
10001f62:	42a3      	cmp	r3, r4
10001f64:	d1f3      	bne.n	10001f4e <stdio_put_string.isra.0+0xa2>
10001f66:	002a      	movs	r2, r5
10001f68:	0031      	movs	r1, r6
10001f6a:	0020      	movs	r0, r4
10001f6c:	47c0      	blx	r8
10001f6e:	465b      	mov	r3, fp
10001f70:	2201      	movs	r2, #1
10001f72:	0039      	movs	r1, r7
10001f74:	0020      	movs	r0, r4
10001f76:	703b      	strb	r3, [r7, #0]
10001f78:	47c0      	blx	r8
10001f7a:	e7e8      	b.n	10001f4e <stdio_put_string.isra.0+0xa2>
10001f7c:	4650      	mov	r0, sl
10001f7e:	f003 fd37 	bl	100059f0 <__mutex_exit_veneer>
10001f82:	e7d3      	b.n	10001f2c <stdio_put_string.isra.0+0x80>
10001f84:	2201      	movs	r2, #1
10001f86:	4b07      	ldr	r3, [pc, #28]	; (10001fa4 <stdio_put_string.isra.0+0xf8>)
10001f88:	4252      	negs	r2, r2
10001f8a:	e7a2      	b.n	10001ed2 <stdio_put_string.isra.0+0x26>
10001f8c:	000f4240 	.word	0x000f4240
10001f90:	20000a90 	.word	0x20000a90
10001f94:	10001df9 	.word	0x10001df9
10001f98:	20001014 	.word	0x20001014
10001f9c:	20001018 	.word	0x20001018
10001fa0:	10001de9 	.word	0x10001de9
10001fa4:	7fffffff 	.word	0x7fffffff

10001fa8 <__wrap_putchar>:
10001fa8:	b5f0      	push	{r4, r5, r6, r7, lr}
10001faa:	46ce      	mov	lr, r9
10001fac:	4647      	mov	r7, r8
10001fae:	b580      	push	{r7, lr}
10001fb0:	b083      	sub	sp, #12
10001fb2:	466b      	mov	r3, sp
10001fb4:	0006      	movs	r6, r0
10001fb6:	1ddd      	adds	r5, r3, #7
10001fb8:	7028      	strb	r0, [r5, #0]
10001fba:	f7fe ff93 	bl	10000ee4 <time_us_64>
10001fbe:	2300      	movs	r3, #0
10001fc0:	4a1a      	ldr	r2, [pc, #104]	; (1000202c <__wrap_putchar+0x84>)
10001fc2:	1812      	adds	r2, r2, r0
10001fc4:	414b      	adcs	r3, r1
10001fc6:	2b00      	cmp	r3, #0
10001fc8:	db2b      	blt.n	10002022 <__wrap_putchar+0x7a>
10001fca:	4919      	ldr	r1, [pc, #100]	; (10002030 <__wrap_putchar+0x88>)
10001fcc:	0008      	movs	r0, r1
10001fce:	4688      	mov	r8, r1
10001fd0:	f003 fd1e 	bl	10005a10 <__mutex_try_enter_block_until_veneer>
10001fd4:	4b17      	ldr	r3, [pc, #92]	; (10002034 <__wrap_putchar+0x8c>)
10001fd6:	4681      	mov	r9, r0
10001fd8:	681c      	ldr	r4, [r3, #0]
10001fda:	2c00      	cmp	r4, #0
10001fdc:	d014      	beq.n	10002008 <__wrap_putchar+0x60>
10001fde:	4f16      	ldr	r7, [pc, #88]	; (10002038 <__wrap_putchar+0x90>)
10001fe0:	e002      	b.n	10001fe8 <__wrap_putchar+0x40>
10001fe2:	6924      	ldr	r4, [r4, #16]
10001fe4:	2c00      	cmp	r4, #0
10001fe6:	d00f      	beq.n	10002008 <__wrap_putchar+0x60>
10001fe8:	6823      	ldr	r3, [r4, #0]
10001fea:	2b00      	cmp	r3, #0
10001fec:	d0f9      	beq.n	10001fe2 <__wrap_putchar+0x3a>
10001fee:	683b      	ldr	r3, [r7, #0]
10001ff0:	2b00      	cmp	r3, #0
10001ff2:	d001      	beq.n	10001ff8 <__wrap_putchar+0x50>
10001ff4:	42a3      	cmp	r3, r4
10001ff6:	d1f4      	bne.n	10001fe2 <__wrap_putchar+0x3a>
10001ff8:	0020      	movs	r0, r4
10001ffa:	2201      	movs	r2, #1
10001ffc:	0029      	movs	r1, r5
10001ffe:	f7ff fefb 	bl	10001df8 <stdio_out_chars_crlf>
10002002:	6924      	ldr	r4, [r4, #16]
10002004:	2c00      	cmp	r4, #0
10002006:	d1ef      	bne.n	10001fe8 <__wrap_putchar+0x40>
10002008:	464b      	mov	r3, r9
1000200a:	2b00      	cmp	r3, #0
1000200c:	d105      	bne.n	1000201a <__wrap_putchar+0x72>
1000200e:	0030      	movs	r0, r6
10002010:	b003      	add	sp, #12
10002012:	bcc0      	pop	{r6, r7}
10002014:	46b9      	mov	r9, r7
10002016:	46b0      	mov	r8, r6
10002018:	bdf0      	pop	{r4, r5, r6, r7, pc}
1000201a:	4640      	mov	r0, r8
1000201c:	f003 fce8 	bl	100059f0 <__mutex_exit_veneer>
10002020:	e7f5      	b.n	1000200e <__wrap_putchar+0x66>
10002022:	2201      	movs	r2, #1
10002024:	4b05      	ldr	r3, [pc, #20]	; (1000203c <__wrap_putchar+0x94>)
10002026:	4252      	negs	r2, r2
10002028:	e7cf      	b.n	10001fca <__wrap_putchar+0x22>
1000202a:	46c0      	nop			; (mov r8, r8)
1000202c:	000f4240 	.word	0x000f4240
10002030:	20000a90 	.word	0x20000a90
10002034:	20001014 	.word	0x20001014
10002038:	20001018 	.word	0x20001018
1000203c:	7fffffff 	.word	0x7fffffff

10002040 <__wrap_puts>:
10002040:	b570      	push	{r4, r5, r6, lr}
10002042:	0004      	movs	r4, r0
10002044:	f003 fb72 	bl	1000572c <strlen>
10002048:	2300      	movs	r3, #0
1000204a:	0001      	movs	r1, r0
1000204c:	0005      	movs	r5, r0
1000204e:	2201      	movs	r2, #1
10002050:	0020      	movs	r0, r4
10002052:	f7ff ff2b 	bl	10001eac <stdio_put_string.isra.0>
10002056:	4b08      	ldr	r3, [pc, #32]	; (10002078 <__wrap_puts+0x38>)
10002058:	681c      	ldr	r4, [r3, #0]
1000205a:	2c00      	cmp	r4, #0
1000205c:	d006      	beq.n	1000206c <__wrap_puts+0x2c>
1000205e:	6863      	ldr	r3, [r4, #4]
10002060:	2b00      	cmp	r3, #0
10002062:	d005      	beq.n	10002070 <__wrap_puts+0x30>
10002064:	4798      	blx	r3
10002066:	6924      	ldr	r4, [r4, #16]
10002068:	2c00      	cmp	r4, #0
1000206a:	d1f8      	bne.n	1000205e <__wrap_puts+0x1e>
1000206c:	0028      	movs	r0, r5
1000206e:	bd70      	pop	{r4, r5, r6, pc}
10002070:	6924      	ldr	r4, [r4, #16]
10002072:	2c00      	cmp	r4, #0
10002074:	d1f3      	bne.n	1000205e <__wrap_puts+0x1e>
10002076:	e7f9      	b.n	1000206c <__wrap_puts+0x2c>
10002078:	20001014 	.word	0x20001014

1000207c <stdio_set_driver_enabled>:
1000207c:	4a0a      	ldr	r2, [pc, #40]	; (100020a8 <stdio_set_driver_enabled+0x2c>)
1000207e:	6813      	ldr	r3, [r2, #0]
10002080:	2b00      	cmp	r3, #0
10002082:	d105      	bne.n	10002090 <stdio_set_driver_enabled+0x14>
10002084:	e00c      	b.n	100020a0 <stdio_set_driver_enabled+0x24>
10002086:	001a      	movs	r2, r3
10002088:	691b      	ldr	r3, [r3, #16]
1000208a:	3210      	adds	r2, #16
1000208c:	2b00      	cmp	r3, #0
1000208e:	d007      	beq.n	100020a0 <stdio_set_driver_enabled+0x24>
10002090:	4298      	cmp	r0, r3
10002092:	d1f8      	bne.n	10002086 <stdio_set_driver_enabled+0xa>
10002094:	2900      	cmp	r1, #0
10002096:	d102      	bne.n	1000209e <stdio_set_driver_enabled+0x22>
10002098:	6903      	ldr	r3, [r0, #16]
1000209a:	6013      	str	r3, [r2, #0]
1000209c:	6101      	str	r1, [r0, #16]
1000209e:	4770      	bx	lr
100020a0:	2900      	cmp	r1, #0
100020a2:	d0fc      	beq.n	1000209e <stdio_set_driver_enabled+0x22>
100020a4:	6010      	str	r0, [r2, #0]
100020a6:	e7fa      	b.n	1000209e <stdio_set_driver_enabled+0x22>
100020a8:	20001014 	.word	0x20001014

100020ac <stdio_init_all>:
100020ac:	b510      	push	{r4, lr}
100020ae:	f000 f8c5 	bl	1000223c <stdio_uart_init>
100020b2:	2001      	movs	r0, #1
100020b4:	bd10      	pop	{r4, pc}
100020b6:	46c0      	nop			; (mov r8, r8)

100020b8 <stdio_uart_out_chars>:
100020b8:	b5f0      	push	{r4, r5, r6, r7, lr}
100020ba:	1e0d      	subs	r5, r1, #0
100020bc:	dd15      	ble.n	100020ea <stdio_uart_out_chars+0x32>
100020be:	4b0e      	ldr	r3, [pc, #56]	; (100020f8 <stdio_uart_out_chars+0x40>)
100020c0:	270d      	movs	r7, #13
100020c2:	681a      	ldr	r2, [r3, #0]
100020c4:	4b0d      	ldr	r3, [pc, #52]	; (100020fc <stdio_uart_out_chars+0x44>)
100020c6:	1945      	adds	r5, r0, r5
100020c8:	18d3      	adds	r3, r2, r3
100020ca:	4259      	negs	r1, r3
100020cc:	414b      	adcs	r3, r1
100020ce:	490c      	ldr	r1, [pc, #48]	; (10002100 <stdio_uart_out_chars+0x48>)
100020d0:	005b      	lsls	r3, r3, #1
100020d2:	5e5e      	ldrsh	r6, [r3, r1]
100020d4:	2120      	movs	r1, #32
100020d6:	7804      	ldrb	r4, [r0, #0]
100020d8:	42a6      	cmp	r6, r4
100020da:	d007      	beq.n	100020ec <stdio_uart_out_chars+0x34>
100020dc:	6993      	ldr	r3, [r2, #24]
100020de:	4219      	tst	r1, r3
100020e0:	d1fc      	bne.n	100020dc <stdio_uart_out_chars+0x24>
100020e2:	3001      	adds	r0, #1
100020e4:	6014      	str	r4, [r2, #0]
100020e6:	42a8      	cmp	r0, r5
100020e8:	d1f5      	bne.n	100020d6 <stdio_uart_out_chars+0x1e>
100020ea:	bdf0      	pop	{r4, r5, r6, r7, pc}
100020ec:	6993      	ldr	r3, [r2, #24]
100020ee:	4219      	tst	r1, r3
100020f0:	d1fc      	bne.n	100020ec <stdio_uart_out_chars+0x34>
100020f2:	6017      	str	r7, [r2, #0]
100020f4:	e7f2      	b.n	100020dc <stdio_uart_out_chars+0x24>
100020f6:	46c0      	nop			; (mov r8, r8)
100020f8:	20001050 	.word	0x20001050
100020fc:	bffc8000 	.word	0xbffc8000
10002100:	2000104c 	.word	0x2000104c

10002104 <stdio_uart_in_chars>:
10002104:	b530      	push	{r4, r5, lr}
10002106:	0004      	movs	r4, r0
10002108:	1e0d      	subs	r5, r1, #0
1000210a:	dd26      	ble.n	1000215a <stdio_uart_in_chars+0x56>
1000210c:	2000      	movs	r0, #0
1000210e:	2110      	movs	r1, #16
10002110:	4b1b      	ldr	r3, [pc, #108]	; (10002180 <stdio_uart_in_chars+0x7c>)
10002112:	3c01      	subs	r4, #1
10002114:	681a      	ldr	r2, [r3, #0]
10002116:	6993      	ldr	r3, [r2, #24]
10002118:	4219      	tst	r1, r3
1000211a:	d119      	bne.n	10002150 <stdio_uart_in_chars+0x4c>
1000211c:	3001      	adds	r0, #1
1000211e:	6993      	ldr	r3, [r2, #24]
10002120:	4219      	tst	r1, r3
10002122:	d1fc      	bne.n	1000211e <stdio_uart_in_chars+0x1a>
10002124:	6813      	ldr	r3, [r2, #0]
10002126:	5423      	strb	r3, [r4, r0]
10002128:	4285      	cmp	r5, r0
1000212a:	d1f4      	bne.n	10002116 <stdio_uart_in_chars+0x12>
1000212c:	4b15      	ldr	r3, [pc, #84]	; (10002184 <stdio_uart_in_chars+0x80>)
1000212e:	681b      	ldr	r3, [r3, #0]
10002130:	2b00      	cmp	r3, #0
10002132:	d00c      	beq.n	1000214e <stdio_uart_in_chars+0x4a>
10002134:	2350      	movs	r3, #80	; 0x50
10002136:	6393      	str	r3, [r2, #56]	; 0x38
10002138:	6b51      	ldr	r1, [r2, #52]	; 0x34
1000213a:	3b18      	subs	r3, #24
1000213c:	3234      	adds	r2, #52	; 0x34
1000213e:	400b      	ands	r3, r1
10002140:	0011      	movs	r1, r2
10002142:	2280      	movs	r2, #128	; 0x80
10002144:	0152      	lsls	r2, r2, #5
10002146:	430a      	orrs	r2, r1
10002148:	6013      	str	r3, [r2, #0]
1000214a:	2800      	cmp	r0, #0
1000214c:	d015      	beq.n	1000217a <stdio_uart_in_chars+0x76>
1000214e:	bd30      	pop	{r4, r5, pc}
10002150:	4b0c      	ldr	r3, [pc, #48]	; (10002184 <stdio_uart_in_chars+0x80>)
10002152:	681b      	ldr	r3, [r3, #0]
10002154:	2b00      	cmp	r3, #0
10002156:	d1ed      	bne.n	10002134 <stdio_uart_in_chars+0x30>
10002158:	e7f7      	b.n	1000214a <stdio_uart_in_chars+0x46>
1000215a:	4b0a      	ldr	r3, [pc, #40]	; (10002184 <stdio_uart_in_chars+0x80>)
1000215c:	681b      	ldr	r3, [r3, #0]
1000215e:	2b00      	cmp	r3, #0
10002160:	d00b      	beq.n	1000217a <stdio_uart_in_chars+0x76>
10002162:	2250      	movs	r2, #80	; 0x50
10002164:	2138      	movs	r1, #56	; 0x38
10002166:	4b06      	ldr	r3, [pc, #24]	; (10002180 <stdio_uart_in_chars+0x7c>)
10002168:	681b      	ldr	r3, [r3, #0]
1000216a:	639a      	str	r2, [r3, #56]	; 0x38
1000216c:	6b5a      	ldr	r2, [r3, #52]	; 0x34
1000216e:	3334      	adds	r3, #52	; 0x34
10002170:	4011      	ands	r1, r2
10002172:	2280      	movs	r2, #128	; 0x80
10002174:	0152      	lsls	r2, r2, #5
10002176:	4313      	orrs	r3, r2
10002178:	6019      	str	r1, [r3, #0]
1000217a:	2003      	movs	r0, #3
1000217c:	4240      	negs	r0, r0
1000217e:	e7e6      	b.n	1000214e <stdio_uart_in_chars+0x4a>
10002180:	20001050 	.word	0x20001050
10002184:	20000fa4 	.word	0x20000fa4

10002188 <on_uart_rx>:
10002188:	4b06      	ldr	r3, [pc, #24]	; (100021a4 <on_uart_rx+0x1c>)
1000218a:	b510      	push	{r4, lr}
1000218c:	681b      	ldr	r3, [r3, #0]
1000218e:	2b00      	cmp	r3, #0
10002190:	d006      	beq.n	100021a0 <on_uart_rx+0x18>
10002192:	2100      	movs	r1, #0
10002194:	4a04      	ldr	r2, [pc, #16]	; (100021a8 <on_uart_rx+0x20>)
10002196:	6812      	ldr	r2, [r2, #0]
10002198:	6391      	str	r1, [r2, #56]	; 0x38
1000219a:	4a04      	ldr	r2, [pc, #16]	; (100021ac <on_uart_rx+0x24>)
1000219c:	6810      	ldr	r0, [r2, #0]
1000219e:	4798      	blx	r3
100021a0:	bd10      	pop	{r4, pc}
100021a2:	46c0      	nop			; (mov r8, r8)
100021a4:	20000fa4 	.word	0x20000fa4
100021a8:	20001050 	.word	0x20001050
100021ac:	20000fa8 	.word	0x20000fa8

100021b0 <stdio_uart_set_chars_available_callback>:
100021b0:	4b1d      	ldr	r3, [pc, #116]	; (10002228 <stdio_uart_set_chars_available_callback+0x78>)
100021b2:	b5f0      	push	{r4, r5, r6, r7, lr}
100021b4:	681a      	ldr	r2, [r3, #0]
100021b6:	46c6      	mov	lr, r8
100021b8:	4698      	mov	r8, r3
100021ba:	4b1c      	ldr	r3, [pc, #112]	; (1000222c <stdio_uart_set_chars_available_callback+0x7c>)
100021bc:	000e      	movs	r6, r1
100021be:	18d3      	adds	r3, r2, r3
100021c0:	4259      	negs	r1, r3
100021c2:	414b      	adcs	r3, r1
100021c4:	4f1a      	ldr	r7, [pc, #104]	; (10002230 <stdio_uart_set_chars_available_callback+0x80>)
100021c6:	3314      	adds	r3, #20
100021c8:	001c      	movs	r4, r3
100021ca:	0005      	movs	r5, r0
100021cc:	b500      	push	{lr}
100021ce:	683b      	ldr	r3, [r7, #0]
100021d0:	2800      	cmp	r0, #0
100021d2:	d007      	beq.n	100021e4 <stdio_uart_set_chars_available_callback+0x34>
100021d4:	2b00      	cmp	r3, #0
100021d6:	d011      	beq.n	100021fc <stdio_uart_set_chars_available_callback+0x4c>
100021d8:	4b16      	ldr	r3, [pc, #88]	; (10002234 <stdio_uart_set_chars_available_callback+0x84>)
100021da:	603d      	str	r5, [r7, #0]
100021dc:	601e      	str	r6, [r3, #0]
100021de:	bc80      	pop	{r7}
100021e0:	46b8      	mov	r8, r7
100021e2:	bdf0      	pop	{r4, r5, r6, r7, pc}
100021e4:	2b00      	cmp	r3, #0
100021e6:	d0f7      	beq.n	100021d8 <stdio_uart_set_chars_available_callback+0x28>
100021e8:	6390      	str	r0, [r2, #56]	; 0x38
100021ea:	2100      	movs	r1, #0
100021ec:	0020      	movs	r0, r4
100021ee:	f7fe f977 	bl	100004e0 <irq_set_enabled>
100021f2:	0020      	movs	r0, r4
100021f4:	4910      	ldr	r1, [pc, #64]	; (10002238 <stdio_uart_set_chars_available_callback+0x88>)
100021f6:	f7fe f9b7 	bl	10000568 <irq_remove_handler>
100021fa:	e7ed      	b.n	100021d8 <stdio_uart_set_chars_available_callback+0x28>
100021fc:	0020      	movs	r0, r4
100021fe:	490e      	ldr	r1, [pc, #56]	; (10002238 <stdio_uart_set_chars_available_callback+0x88>)
10002200:	f7fe f988 	bl	10000514 <irq_set_exclusive_handler>
10002204:	2101      	movs	r1, #1
10002206:	0020      	movs	r0, r4
10002208:	f7fe f96a 	bl	100004e0 <irq_set_enabled>
1000220c:	4643      	mov	r3, r8
1000220e:	2250      	movs	r2, #80	; 0x50
10002210:	2138      	movs	r1, #56	; 0x38
10002212:	681b      	ldr	r3, [r3, #0]
10002214:	639a      	str	r2, [r3, #56]	; 0x38
10002216:	6b5a      	ldr	r2, [r3, #52]	; 0x34
10002218:	3334      	adds	r3, #52	; 0x34
1000221a:	4011      	ands	r1, r2
1000221c:	2280      	movs	r2, #128	; 0x80
1000221e:	0152      	lsls	r2, r2, #5
10002220:	4313      	orrs	r3, r2
10002222:	6019      	str	r1, [r3, #0]
10002224:	e7d8      	b.n	100021d8 <stdio_uart_set_chars_available_callback+0x28>
10002226:	46c0      	nop			; (mov r8, r8)
10002228:	20001050 	.word	0x20001050
1000222c:	bffc8000 	.word	0xbffc8000
10002230:	20000fa4 	.word	0x20000fa4
10002234:	20000fa8 	.word	0x20000fa8
10002238:	10002189 	.word	0x10002189

1000223c <stdio_uart_init>:
1000223c:	4b0c      	ldr	r3, [pc, #48]	; (10002270 <stdio_uart_init+0x34>)
1000223e:	b510      	push	{r4, lr}
10002240:	781b      	ldrb	r3, [r3, #0]
10002242:	4b0c      	ldr	r3, [pc, #48]	; (10002274 <stdio_uart_init+0x38>)
10002244:	4c0c      	ldr	r4, [pc, #48]	; (10002278 <stdio_uart_init+0x3c>)
10002246:	781b      	ldrb	r3, [r3, #0]
10002248:	4b0c      	ldr	r3, [pc, #48]	; (1000227c <stdio_uart_init+0x40>)
1000224a:	2102      	movs	r1, #2
1000224c:	2000      	movs	r0, #0
1000224e:	6023      	str	r3, [r4, #0]
10002250:	f7fe f8cc 	bl	100003ec <gpio_set_function>
10002254:	2102      	movs	r1, #2
10002256:	2001      	movs	r0, #1
10002258:	f7fe f8c8 	bl	100003ec <gpio_set_function>
1000225c:	21e1      	movs	r1, #225	; 0xe1
1000225e:	6820      	ldr	r0, [r4, #0]
10002260:	0249      	lsls	r1, r1, #9
10002262:	f7ff f91b 	bl	1000149c <uart_init>
10002266:	2101      	movs	r1, #1
10002268:	4805      	ldr	r0, [pc, #20]	; (10002280 <stdio_uart_init+0x44>)
1000226a:	f7ff ff07 	bl	1000207c <stdio_set_driver_enabled>
1000226e:	bd10      	pop	{r4, pc}
10002270:	10005b84 	.word	0x10005b84
10002274:	10005b88 	.word	0x10005b88
10002278:	20001050 	.word	0x20001050
1000227c:	40034000 	.word	0x40034000
10002280:	20000230 	.word	0x20000230

10002284 <prvIdleTask>:
10002284:	b570      	push	{r4, r5, r6, lr}
10002286:	4c10      	ldr	r4, [pc, #64]	; (100022c8 <prvIdleTask+0x44>)
10002288:	e014      	b.n	100022b4 <prvIdleTask+0x30>
1000228a:	f001 fd9b 	bl	10003dc4 <vPortEnterCritical>
1000228e:	6923      	ldr	r3, [r4, #16]
10002290:	68dd      	ldr	r5, [r3, #12]
10002292:	1d28      	adds	r0, r5, #4
10002294:	f001 fe52 	bl	10003f3c <uxListRemove>
10002298:	69a3      	ldr	r3, [r4, #24]
1000229a:	3b01      	subs	r3, #1
1000229c:	61a3      	str	r3, [r4, #24]
1000229e:	6823      	ldr	r3, [r4, #0]
100022a0:	3b01      	subs	r3, #1
100022a2:	6023      	str	r3, [r4, #0]
100022a4:	f001 fd9a 	bl	10003ddc <vPortExitCritical>
100022a8:	6b28      	ldr	r0, [r5, #48]	; 0x30
100022aa:	f001 fd39 	bl	10003d20 <vPortFree>
100022ae:	0028      	movs	r0, r5
100022b0:	f001 fd36 	bl	10003d20 <vPortFree>
100022b4:	6823      	ldr	r3, [r4, #0]
100022b6:	2b00      	cmp	r3, #0
100022b8:	d1e7      	bne.n	1000228a <prvIdleTask+0x6>
100022ba:	69e3      	ldr	r3, [r4, #28]
100022bc:	2b01      	cmp	r3, #1
100022be:	d9f9      	bls.n	100022b4 <prvIdleTask+0x30>
100022c0:	f001 fd74 	bl	10003dac <vPortYield>
100022c4:	e7f6      	b.n	100022b4 <prvIdleTask+0x30>
100022c6:	46c0      	nop			; (mov r8, r8)
100022c8:	20000e1c 	.word	0x20000e1c

100022cc <prvAddCurrentTaskToDelayedList>:
100022cc:	b5f8      	push	{r3, r4, r5, r6, r7, lr}
100022ce:	0004      	movs	r4, r0
100022d0:	4d1a      	ldr	r5, [pc, #104]	; (1000233c <prvAddCurrentTaskToDelayedList+0x70>)
100022d2:	000e      	movs	r6, r1
100022d4:	682f      	ldr	r7, [r5, #0]
100022d6:	6868      	ldr	r0, [r5, #4]
100022d8:	3004      	adds	r0, #4
100022da:	f001 fe2f 	bl	10003f3c <uxListRemove>
100022de:	1c63      	adds	r3, r4, #1
100022e0:	d014      	beq.n	1000230c <prvAddCurrentTaskToDelayedList+0x40>
100022e2:	686b      	ldr	r3, [r5, #4]
100022e4:	193c      	adds	r4, r7, r4
100022e6:	605c      	str	r4, [r3, #4]
100022e8:	42a7      	cmp	r7, r4
100022ea:	d809      	bhi.n	10002300 <prvAddCurrentTaskToDelayedList+0x34>
100022ec:	6a28      	ldr	r0, [r5, #32]
100022ee:	6869      	ldr	r1, [r5, #4]
100022f0:	3104      	adds	r1, #4
100022f2:	f001 fe0b 	bl	10003f0c <vListInsert>
100022f6:	6a6b      	ldr	r3, [r5, #36]	; 0x24
100022f8:	42a3      	cmp	r3, r4
100022fa:	d900      	bls.n	100022fe <prvAddCurrentTaskToDelayedList+0x32>
100022fc:	626c      	str	r4, [r5, #36]	; 0x24
100022fe:	bdf8      	pop	{r3, r4, r5, r6, r7, pc}
10002300:	69e8      	ldr	r0, [r5, #28]
10002302:	6869      	ldr	r1, [r5, #4]
10002304:	3104      	adds	r1, #4
10002306:	f001 fe01 	bl	10003f0c <vListInsert>
1000230a:	e7f8      	b.n	100022fe <prvAddCurrentTaskToDelayedList+0x32>
1000230c:	2e00      	cmp	r6, #0
1000230e:	d0e8      	beq.n	100022e2 <prvAddCurrentTaskToDelayedList+0x16>
10002310:	686a      	ldr	r2, [r5, #4]
10002312:	68eb      	ldr	r3, [r5, #12]
10002314:	6899      	ldr	r1, [r3, #8]
10002316:	6093      	str	r3, [r2, #8]
10002318:	686a      	ldr	r2, [r5, #4]
1000231a:	60d1      	str	r1, [r2, #12]
1000231c:	686a      	ldr	r2, [r5, #4]
1000231e:	6899      	ldr	r1, [r3, #8]
10002320:	3204      	adds	r2, #4
10002322:	604a      	str	r2, [r1, #4]
10002324:	686a      	ldr	r2, [r5, #4]
10002326:	3204      	adds	r2, #4
10002328:	609a      	str	r2, [r3, #8]
1000232a:	002a      	movs	r2, r5
1000232c:	686b      	ldr	r3, [r5, #4]
1000232e:	3208      	adds	r2, #8
10002330:	615a      	str	r2, [r3, #20]
10002332:	68ab      	ldr	r3, [r5, #8]
10002334:	3301      	adds	r3, #1
10002336:	60ab      	str	r3, [r5, #8]
10002338:	e7e1      	b.n	100022fe <prvAddCurrentTaskToDelayedList+0x32>
1000233a:	46c0      	nop			; (mov r8, r8)
1000233c:	20000e9c 	.word	0x20000e9c

10002340 <xTaskIncrementTick.part.0>:
10002340:	b5f0      	push	{r4, r5, r6, r7, lr}
10002342:	46de      	mov	lr, fp
10002344:	4645      	mov	r5, r8
10002346:	4657      	mov	r7, sl
10002348:	464e      	mov	r6, r9
1000234a:	4943      	ldr	r1, [pc, #268]	; (10002458 <xTaskIncrementTick.part.0+0x118>)
1000234c:	b5e0      	push	{r5, r6, r7, lr}
1000234e:	680d      	ldr	r5, [r1, #0]
10002350:	1c6b      	adds	r3, r5, #1
10002352:	469b      	mov	fp, r3
10002354:	600b      	str	r3, [r1, #0]
10002356:	2b00      	cmp	r3, #0
10002358:	d10c      	bne.n	10002374 <xTaskIncrementTick.part.0+0x34>
1000235a:	6a0b      	ldr	r3, [r1, #32]
1000235c:	69ca      	ldr	r2, [r1, #28]
1000235e:	620a      	str	r2, [r1, #32]
10002360:	61cb      	str	r3, [r1, #28]
10002362:	6a8b      	ldr	r3, [r1, #40]	; 0x28
10002364:	3301      	adds	r3, #1
10002366:	628b      	str	r3, [r1, #40]	; 0x28
10002368:	6a0b      	ldr	r3, [r1, #32]
1000236a:	681b      	ldr	r3, [r3, #0]
1000236c:	2b00      	cmp	r3, #0
1000236e:	d169      	bne.n	10002444 <xTaskIncrementTick.part.0+0x104>
10002370:	3b01      	subs	r3, #1
10002372:	624b      	str	r3, [r1, #36]	; 0x24
10002374:	2200      	movs	r2, #0
10002376:	6a4b      	ldr	r3, [r1, #36]	; 0x24
10002378:	4694      	mov	ip, r2
1000237a:	459b      	cmp	fp, r3
1000237c:	d356      	bcc.n	1000242c <xTaskIncrementTick.part.0+0xec>
1000237e:	6a0b      	ldr	r3, [r1, #32]
10002380:	681b      	ldr	r3, [r3, #0]
10002382:	2b00      	cmp	r3, #0
10002384:	d04f      	beq.n	10002426 <xTaskIncrementTick.part.0+0xe6>
10002386:	2300      	movs	r3, #0
10002388:	469a      	mov	sl, r3
1000238a:	4b34      	ldr	r3, [pc, #208]	; (1000245c <xTaskIncrementTick.part.0+0x11c>)
1000238c:	4699      	mov	r9, r3
1000238e:	231c      	movs	r3, #28
10002390:	444b      	add	r3, r9
10002392:	4698      	mov	r8, r3
10002394:	e036      	b.n	10002404 <xTaskIncrementTick.part.0+0xc4>
10002396:	4650      	mov	r0, sl
10002398:	6814      	ldr	r4, [r2, #0]
1000239a:	6158      	str	r0, [r3, #20]
1000239c:	3c01      	subs	r4, #1
1000239e:	6014      	str	r4, [r2, #0]
100023a0:	6a9a      	ldr	r2, [r3, #40]	; 0x28
100023a2:	2a00      	cmp	r2, #0
100023a4:	d00e      	beq.n	100023c4 <xTaskIncrementTick.part.0+0x84>
100023a6:	69dc      	ldr	r4, [r3, #28]
100023a8:	6a18      	ldr	r0, [r3, #32]
100023aa:	6855      	ldr	r5, [r2, #4]
100023ac:	60a0      	str	r0, [r4, #8]
100023ae:	6a18      	ldr	r0, [r3, #32]
100023b0:	6044      	str	r4, [r0, #4]
100023b2:	001c      	movs	r4, r3
100023b4:	3418      	adds	r4, #24
100023b6:	42a5      	cmp	r5, r4
100023b8:	d049      	beq.n	1000244e <xTaskIncrementTick.part.0+0x10e>
100023ba:	4650      	mov	r0, sl
100023bc:	6814      	ldr	r4, [r2, #0]
100023be:	6298      	str	r0, [r3, #40]	; 0x28
100023c0:	3c01      	subs	r4, #1
100023c2:	6014      	str	r4, [r2, #0]
100023c4:	6adc      	ldr	r4, [r3, #44]	; 0x2c
100023c6:	6aca      	ldr	r2, [r1, #44]	; 0x2c
100023c8:	4294      	cmp	r4, r2
100023ca:	d900      	bls.n	100023ce <xTaskIncrementTick.part.0+0x8e>
100023cc:	62cc      	str	r4, [r1, #44]	; 0x2c
100023ce:	4648      	mov	r0, r9
100023d0:	00a2      	lsls	r2, r4, #2
100023d2:	1912      	adds	r2, r2, r4
100023d4:	0092      	lsls	r2, r2, #2
100023d6:	1880      	adds	r0, r0, r2
100023d8:	6a07      	ldr	r7, [r0, #32]
100023da:	4442      	add	r2, r8
100023dc:	68bd      	ldr	r5, [r7, #8]
100023de:	609f      	str	r7, [r3, #8]
100023e0:	60dd      	str	r5, [r3, #12]
100023e2:	68bd      	ldr	r5, [r7, #8]
100023e4:	606e      	str	r6, [r5, #4]
100023e6:	60be      	str	r6, [r7, #8]
100023e8:	615a      	str	r2, [r3, #20]
100023ea:	69c3      	ldr	r3, [r0, #28]
100023ec:	3301      	adds	r3, #1
100023ee:	61c3      	str	r3, [r0, #28]
100023f0:	684b      	ldr	r3, [r1, #4]
100023f2:	6adb      	ldr	r3, [r3, #44]	; 0x2c
100023f4:	429c      	cmp	r4, r3
100023f6:	d901      	bls.n	100023fc <xTaskIncrementTick.part.0+0xbc>
100023f8:	2301      	movs	r3, #1
100023fa:	469c      	mov	ip, r3
100023fc:	6a0b      	ldr	r3, [r1, #32]
100023fe:	681b      	ldr	r3, [r3, #0]
10002400:	2b00      	cmp	r3, #0
10002402:	d010      	beq.n	10002426 <xTaskIncrementTick.part.0+0xe6>
10002404:	6a0b      	ldr	r3, [r1, #32]
10002406:	68db      	ldr	r3, [r3, #12]
10002408:	68db      	ldr	r3, [r3, #12]
1000240a:	685a      	ldr	r2, [r3, #4]
1000240c:	4593      	cmp	fp, r2
1000240e:	d320      	bcc.n	10002452 <xTaskIncrementTick.part.0+0x112>
10002410:	695a      	ldr	r2, [r3, #20]
10002412:	6898      	ldr	r0, [r3, #8]
10002414:	68dc      	ldr	r4, [r3, #12]
10002416:	1d1e      	adds	r6, r3, #4
10002418:	6084      	str	r4, [r0, #8]
1000241a:	6060      	str	r0, [r4, #4]
1000241c:	6850      	ldr	r0, [r2, #4]
1000241e:	42b0      	cmp	r0, r6
10002420:	d1b9      	bne.n	10002396 <xTaskIncrementTick.part.0+0x56>
10002422:	6054      	str	r4, [r2, #4]
10002424:	e7b7      	b.n	10002396 <xTaskIncrementTick.part.0+0x56>
10002426:	2301      	movs	r3, #1
10002428:	425b      	negs	r3, r3
1000242a:	624b      	str	r3, [r1, #36]	; 0x24
1000242c:	6b0b      	ldr	r3, [r1, #48]	; 0x30
1000242e:	2b00      	cmp	r3, #0
10002430:	d001      	beq.n	10002436 <xTaskIncrementTick.part.0+0xf6>
10002432:	2301      	movs	r3, #1
10002434:	469c      	mov	ip, r3
10002436:	4660      	mov	r0, ip
10002438:	bcf0      	pop	{r4, r5, r6, r7}
1000243a:	46bb      	mov	fp, r7
1000243c:	46b2      	mov	sl, r6
1000243e:	46a9      	mov	r9, r5
10002440:	46a0      	mov	r8, r4
10002442:	bdf0      	pop	{r4, r5, r6, r7, pc}
10002444:	6a0b      	ldr	r3, [r1, #32]
10002446:	68db      	ldr	r3, [r3, #12]
10002448:	681b      	ldr	r3, [r3, #0]
1000244a:	624b      	str	r3, [r1, #36]	; 0x24
1000244c:	e792      	b.n	10002374 <xTaskIncrementTick.part.0+0x34>
1000244e:	6050      	str	r0, [r2, #4]
10002450:	e7b3      	b.n	100023ba <xTaskIncrementTick.part.0+0x7a>
10002452:	624a      	str	r2, [r1, #36]	; 0x24
10002454:	e7ea      	b.n	1000242c <xTaskIncrementTick.part.0+0xec>
10002456:	46c0      	nop			; (mov r8, r8)
10002458:	20000e9c 	.word	0x20000e9c
1000245c:	20000e1c 	.word	0x20000e1c

10002460 <xTaskCreate>:
10002460:	b5f8      	push	{r3, r4, r5, r6, r7, lr}
10002462:	46ce      	mov	lr, r9
10002464:	4647      	mov	r7, r8
10002466:	4698      	mov	r8, r3
10002468:	0093      	lsls	r3, r2, #2
1000246a:	b580      	push	{r7, lr}
1000246c:	0007      	movs	r7, r0
1000246e:	0018      	movs	r0, r3
10002470:	000d      	movs	r5, r1
10002472:	4699      	mov	r9, r3
10002474:	f001 fc48 	bl	10003d08 <pvPortMalloc>
10002478:	1e06      	subs	r6, r0, #0
1000247a:	d100      	bne.n	1000247e <xTaskCreate+0x1e>
1000247c:	e0c2      	b.n	10002604 <xTaskCreate+0x1a4>
1000247e:	2068      	movs	r0, #104	; 0x68
10002480:	f001 fc42 	bl	10003d08 <pvPortMalloc>
10002484:	1e04      	subs	r4, r0, #0
10002486:	d100      	bne.n	1000248a <xTaskCreate+0x2a>
10002488:	e0c3      	b.n	10002612 <xTaskCreate+0x1b2>
1000248a:	2268      	movs	r2, #104	; 0x68
1000248c:	2100      	movs	r1, #0
1000248e:	f7ff fc9f 	bl	10001dd0 <__wrap_memset>
10002492:	4648      	mov	r0, r9
10002494:	2307      	movs	r3, #7
10002496:	3804      	subs	r0, #4
10002498:	6326      	str	r6, [r4, #48]	; 0x30
1000249a:	1836      	adds	r6, r6, r0
1000249c:	439e      	bics	r6, r3
1000249e:	2d00      	cmp	r5, #0
100024a0:	d05f      	beq.n	10002562 <xTaskCreate+0x102>
100024a2:	2334      	movs	r3, #52	; 0x34
100024a4:	782a      	ldrb	r2, [r5, #0]
100024a6:	54e2      	strb	r2, [r4, r3]
100024a8:	782b      	ldrb	r3, [r5, #0]
100024aa:	2b00      	cmp	r3, #0
100024ac:	d056      	beq.n	1000255c <xTaskCreate+0xfc>
100024ae:	2335      	movs	r3, #53	; 0x35
100024b0:	786a      	ldrb	r2, [r5, #1]
100024b2:	54e2      	strb	r2, [r4, r3]
100024b4:	786b      	ldrb	r3, [r5, #1]
100024b6:	2b00      	cmp	r3, #0
100024b8:	d050      	beq.n	1000255c <xTaskCreate+0xfc>
100024ba:	2336      	movs	r3, #54	; 0x36
100024bc:	78aa      	ldrb	r2, [r5, #2]
100024be:	54e2      	strb	r2, [r4, r3]
100024c0:	78ab      	ldrb	r3, [r5, #2]
100024c2:	2b00      	cmp	r3, #0
100024c4:	d04a      	beq.n	1000255c <xTaskCreate+0xfc>
100024c6:	2337      	movs	r3, #55	; 0x37
100024c8:	78ea      	ldrb	r2, [r5, #3]
100024ca:	54e2      	strb	r2, [r4, r3]
100024cc:	78eb      	ldrb	r3, [r5, #3]
100024ce:	2b00      	cmp	r3, #0
100024d0:	d044      	beq.n	1000255c <xTaskCreate+0xfc>
100024d2:	2338      	movs	r3, #56	; 0x38
100024d4:	792a      	ldrb	r2, [r5, #4]
100024d6:	54e2      	strb	r2, [r4, r3]
100024d8:	792b      	ldrb	r3, [r5, #4]
100024da:	2b00      	cmp	r3, #0
100024dc:	d03e      	beq.n	1000255c <xTaskCreate+0xfc>
100024de:	2339      	movs	r3, #57	; 0x39
100024e0:	796a      	ldrb	r2, [r5, #5]
100024e2:	54e2      	strb	r2, [r4, r3]
100024e4:	796b      	ldrb	r3, [r5, #5]
100024e6:	2b00      	cmp	r3, #0
100024e8:	d038      	beq.n	1000255c <xTaskCreate+0xfc>
100024ea:	233a      	movs	r3, #58	; 0x3a
100024ec:	79aa      	ldrb	r2, [r5, #6]
100024ee:	54e2      	strb	r2, [r4, r3]
100024f0:	79ab      	ldrb	r3, [r5, #6]
100024f2:	2b00      	cmp	r3, #0
100024f4:	d032      	beq.n	1000255c <xTaskCreate+0xfc>
100024f6:	233b      	movs	r3, #59	; 0x3b
100024f8:	79ea      	ldrb	r2, [r5, #7]
100024fa:	54e2      	strb	r2, [r4, r3]
100024fc:	79eb      	ldrb	r3, [r5, #7]
100024fe:	2b00      	cmp	r3, #0
10002500:	d02c      	beq.n	1000255c <xTaskCreate+0xfc>
10002502:	233c      	movs	r3, #60	; 0x3c
10002504:	7a2a      	ldrb	r2, [r5, #8]
10002506:	54e2      	strb	r2, [r4, r3]
10002508:	7a2b      	ldrb	r3, [r5, #8]
1000250a:	2b00      	cmp	r3, #0
1000250c:	d026      	beq.n	1000255c <xTaskCreate+0xfc>
1000250e:	233d      	movs	r3, #61	; 0x3d
10002510:	7a6a      	ldrb	r2, [r5, #9]
10002512:	54e2      	strb	r2, [r4, r3]
10002514:	7a6b      	ldrb	r3, [r5, #9]
10002516:	2b00      	cmp	r3, #0
10002518:	d020      	beq.n	1000255c <xTaskCreate+0xfc>
1000251a:	233e      	movs	r3, #62	; 0x3e
1000251c:	7aaa      	ldrb	r2, [r5, #10]
1000251e:	54e2      	strb	r2, [r4, r3]
10002520:	7aab      	ldrb	r3, [r5, #10]
10002522:	2b00      	cmp	r3, #0
10002524:	d01a      	beq.n	1000255c <xTaskCreate+0xfc>
10002526:	233f      	movs	r3, #63	; 0x3f
10002528:	7aea      	ldrb	r2, [r5, #11]
1000252a:	54e2      	strb	r2, [r4, r3]
1000252c:	7aeb      	ldrb	r3, [r5, #11]
1000252e:	2b00      	cmp	r3, #0
10002530:	d014      	beq.n	1000255c <xTaskCreate+0xfc>
10002532:	2340      	movs	r3, #64	; 0x40
10002534:	7b2a      	ldrb	r2, [r5, #12]
10002536:	54e2      	strb	r2, [r4, r3]
10002538:	7b2b      	ldrb	r3, [r5, #12]
1000253a:	2b00      	cmp	r3, #0
1000253c:	d00e      	beq.n	1000255c <xTaskCreate+0xfc>
1000253e:	2341      	movs	r3, #65	; 0x41
10002540:	7b6a      	ldrb	r2, [r5, #13]
10002542:	54e2      	strb	r2, [r4, r3]
10002544:	7b6b      	ldrb	r3, [r5, #13]
10002546:	2b00      	cmp	r3, #0
10002548:	d008      	beq.n	1000255c <xTaskCreate+0xfc>
1000254a:	2342      	movs	r3, #66	; 0x42
1000254c:	7baa      	ldrb	r2, [r5, #14]
1000254e:	54e2      	strb	r2, [r4, r3]
10002550:	7bab      	ldrb	r3, [r5, #14]
10002552:	2b00      	cmp	r3, #0
10002554:	d002      	beq.n	1000255c <xTaskCreate+0xfc>
10002556:	2343      	movs	r3, #67	; 0x43
10002558:	7bea      	ldrb	r2, [r5, #15]
1000255a:	54e2      	strb	r2, [r4, r3]
1000255c:	2343      	movs	r3, #67	; 0x43
1000255e:	2200      	movs	r2, #0
10002560:	54e2      	strb	r2, [r4, r3]
10002562:	9d08      	ldr	r5, [sp, #32]
10002564:	2d04      	cmp	r5, #4
10002566:	d85a      	bhi.n	1000261e <xTaskCreate+0x1be>
10002568:	1d23      	adds	r3, r4, #4
1000256a:	0018      	movs	r0, r3
1000256c:	62e5      	str	r5, [r4, #44]	; 0x2c
1000256e:	4699      	mov	r9, r3
10002570:	f001 fcbc 	bl	10003eec <vListInitialiseItem>
10002574:	0020      	movs	r0, r4
10002576:	3018      	adds	r0, #24
10002578:	f001 fcb8 	bl	10003eec <vListInitialiseItem>
1000257c:	2305      	movs	r3, #5
1000257e:	1b5d      	subs	r5, r3, r5
10002580:	4642      	mov	r2, r8
10002582:	0039      	movs	r1, r7
10002584:	0030      	movs	r0, r6
10002586:	6124      	str	r4, [r4, #16]
10002588:	61a5      	str	r5, [r4, #24]
1000258a:	6264      	str	r4, [r4, #36]	; 0x24
1000258c:	f001 fbfa 	bl	10003d84 <pxPortInitialiseStack>
10002590:	9b09      	ldr	r3, [sp, #36]	; 0x24
10002592:	6020      	str	r0, [r4, #0]
10002594:	2b00      	cmp	r3, #0
10002596:	d000      	beq.n	1000259a <xTaskCreate+0x13a>
10002598:	601c      	str	r4, [r3, #0]
1000259a:	f001 fc13 	bl	10003dc4 <vPortEnterCritical>
1000259e:	4d39      	ldr	r5, [pc, #228]	; (10002684 <xTaskCreate+0x224>)
100025a0:	4e39      	ldr	r6, [pc, #228]	; (10002688 <xTaskCreate+0x228>)
100025a2:	69ab      	ldr	r3, [r5, #24]
100025a4:	3301      	adds	r3, #1
100025a6:	61ab      	str	r3, [r5, #24]
100025a8:	6873      	ldr	r3, [r6, #4]
100025aa:	2b00      	cmp	r3, #0
100025ac:	d040      	beq.n	10002630 <xTaskCreate+0x1d0>
100025ae:	6f33      	ldr	r3, [r6, #112]	; 0x70
100025b0:	2b00      	cmp	r3, #0
100025b2:	d036      	beq.n	10002622 <xTaskCreate+0x1c2>
100025b4:	6ae2      	ldr	r2, [r4, #44]	; 0x2c
100025b6:	6f73      	ldr	r3, [r6, #116]	; 0x74
100025b8:	3301      	adds	r3, #1
100025ba:	6773      	str	r3, [r6, #116]	; 0x74
100025bc:	6af3      	ldr	r3, [r6, #44]	; 0x2c
100025be:	4293      	cmp	r3, r2
100025c0:	d200      	bcs.n	100025c4 <xTaskCreate+0x164>
100025c2:	62f2      	str	r2, [r6, #44]	; 0x2c
100025c4:	464f      	mov	r7, r9
100025c6:	0093      	lsls	r3, r2, #2
100025c8:	189b      	adds	r3, r3, r2
100025ca:	009b      	lsls	r3, r3, #2
100025cc:	18e9      	adds	r1, r5, r3
100025ce:	6a0a      	ldr	r2, [r1, #32]
100025d0:	351c      	adds	r5, #28
100025d2:	6890      	ldr	r0, [r2, #8]
100025d4:	18ed      	adds	r5, r5, r3
100025d6:	60e0      	str	r0, [r4, #12]
100025d8:	69cb      	ldr	r3, [r1, #28]
100025da:	6890      	ldr	r0, [r2, #8]
100025dc:	3301      	adds	r3, #1
100025de:	60a2      	str	r2, [r4, #8]
100025e0:	6047      	str	r7, [r0, #4]
100025e2:	6097      	str	r7, [r2, #8]
100025e4:	6165      	str	r5, [r4, #20]
100025e6:	61cb      	str	r3, [r1, #28]
100025e8:	f001 fbf8 	bl	10003ddc <vPortExitCritical>
100025ec:	6f33      	ldr	r3, [r6, #112]	; 0x70
100025ee:	2501      	movs	r5, #1
100025f0:	2b00      	cmp	r3, #0
100025f2:	d009      	beq.n	10002608 <xTaskCreate+0x1a8>
100025f4:	6873      	ldr	r3, [r6, #4]
100025f6:	6ada      	ldr	r2, [r3, #44]	; 0x2c
100025f8:	6ae3      	ldr	r3, [r4, #44]	; 0x2c
100025fa:	429a      	cmp	r2, r3
100025fc:	d204      	bcs.n	10002608 <xTaskCreate+0x1a8>
100025fe:	f001 fbd5 	bl	10003dac <vPortYield>
10002602:	e001      	b.n	10002608 <xTaskCreate+0x1a8>
10002604:	2501      	movs	r5, #1
10002606:	426d      	negs	r5, r5
10002608:	0028      	movs	r0, r5
1000260a:	bcc0      	pop	{r6, r7}
1000260c:	46b9      	mov	r9, r7
1000260e:	46b0      	mov	r8, r6
10002610:	bdf8      	pop	{r3, r4, r5, r6, r7, pc}
10002612:	2501      	movs	r5, #1
10002614:	0030      	movs	r0, r6
10002616:	f001 fb83 	bl	10003d20 <vPortFree>
1000261a:	426d      	negs	r5, r5
1000261c:	e7f4      	b.n	10002608 <xTaskCreate+0x1a8>
1000261e:	2504      	movs	r5, #4
10002620:	e7a2      	b.n	10002568 <xTaskCreate+0x108>
10002622:	6873      	ldr	r3, [r6, #4]
10002624:	6ae2      	ldr	r2, [r4, #44]	; 0x2c
10002626:	6adb      	ldr	r3, [r3, #44]	; 0x2c
10002628:	4293      	cmp	r3, r2
1000262a:	d8c4      	bhi.n	100025b6 <xTaskCreate+0x156>
1000262c:	6074      	str	r4, [r6, #4]
1000262e:	e7c2      	b.n	100025b6 <xTaskCreate+0x156>
10002630:	6074      	str	r4, [r6, #4]
10002632:	69ab      	ldr	r3, [r5, #24]
10002634:	2b01      	cmp	r3, #1
10002636:	d1bd      	bne.n	100025b4 <xTaskCreate+0x154>
10002638:	2380      	movs	r3, #128	; 0x80
1000263a:	002f      	movs	r7, r5
1000263c:	4698      	mov	r8, r3
1000263e:	371c      	adds	r7, #28
10002640:	44a8      	add	r8, r5
10002642:	0038      	movs	r0, r7
10002644:	3714      	adds	r7, #20
10002646:	f001 fc45 	bl	10003ed4 <vListInitialise>
1000264a:	45b8      	cmp	r8, r7
1000264c:	d1f9      	bne.n	10002642 <xTaskCreate+0x1e2>
1000264e:	2334      	movs	r3, #52	; 0x34
10002650:	4698      	mov	r8, r3
10002652:	0037      	movs	r7, r6
10002654:	44b0      	add	r8, r6
10002656:	4640      	mov	r0, r8
10002658:	3748      	adds	r7, #72	; 0x48
1000265a:	f001 fc3b 	bl	10003ed4 <vListInitialise>
1000265e:	0038      	movs	r0, r7
10002660:	f001 fc38 	bl	10003ed4 <vListInitialise>
10002664:	0030      	movs	r0, r6
10002666:	305c      	adds	r0, #92	; 0x5c
10002668:	f001 fc34 	bl	10003ed4 <vListInitialise>
1000266c:	1d28      	adds	r0, r5, #4
1000266e:	f001 fc31 	bl	10003ed4 <vListInitialise>
10002672:	0030      	movs	r0, r6
10002674:	3008      	adds	r0, #8
10002676:	f001 fc2d 	bl	10003ed4 <vListInitialise>
1000267a:	4643      	mov	r3, r8
1000267c:	6233      	str	r3, [r6, #32]
1000267e:	61f7      	str	r7, [r6, #28]
10002680:	e798      	b.n	100025b4 <xTaskCreate+0x154>
10002682:	46c0      	nop			; (mov r8, r8)
10002684:	20000e1c 	.word	0x20000e1c
10002688:	20000e9c 	.word	0x20000e9c

1000268c <vTaskDelete>:
1000268c:	b5f8      	push	{r3, r4, r5, r6, r7, lr}
1000268e:	0004      	movs	r4, r0
10002690:	f001 fb98 	bl	10003dc4 <vPortEnterCritical>
10002694:	4d21      	ldr	r5, [pc, #132]	; (1000271c <vTaskDelete+0x90>)
10002696:	2c00      	cmp	r4, #0
10002698:	d031      	beq.n	100026fe <vTaskDelete+0x72>
1000269a:	1d26      	adds	r6, r4, #4
1000269c:	0030      	movs	r0, r6
1000269e:	f001 fc4d 	bl	10003f3c <uxListRemove>
100026a2:	6aa3      	ldr	r3, [r4, #40]	; 0x28
100026a4:	2b00      	cmp	r3, #0
100026a6:	d003      	beq.n	100026b0 <vTaskDelete+0x24>
100026a8:	0020      	movs	r0, r4
100026aa:	3018      	adds	r0, #24
100026ac:	f001 fc46 	bl	10003f3c <uxListRemove>
100026b0:	6f6b      	ldr	r3, [r5, #116]	; 0x74
100026b2:	3301      	adds	r3, #1
100026b4:	676b      	str	r3, [r5, #116]	; 0x74
100026b6:	686b      	ldr	r3, [r5, #4]
100026b8:	42a3      	cmp	r3, r4
100026ba:	d022      	beq.n	10002702 <vTaskDelete+0x76>
100026bc:	4a18      	ldr	r2, [pc, #96]	; (10002720 <vTaskDelete+0x94>)
100026be:	6993      	ldr	r3, [r2, #24]
100026c0:	3b01      	subs	r3, #1
100026c2:	6193      	str	r3, [r2, #24]
100026c4:	6a2b      	ldr	r3, [r5, #32]
100026c6:	681b      	ldr	r3, [r3, #0]
100026c8:	2b00      	cmp	r3, #0
100026ca:	d015      	beq.n	100026f8 <vTaskDelete+0x6c>
100026cc:	6a2b      	ldr	r3, [r5, #32]
100026ce:	68db      	ldr	r3, [r3, #12]
100026d0:	681b      	ldr	r3, [r3, #0]
100026d2:	626b      	str	r3, [r5, #36]	; 0x24
100026d4:	f001 fb82 	bl	10003ddc <vPortExitCritical>
100026d8:	686b      	ldr	r3, [r5, #4]
100026da:	42a3      	cmp	r3, r4
100026dc:	d005      	beq.n	100026ea <vTaskDelete+0x5e>
100026de:	6b20      	ldr	r0, [r4, #48]	; 0x30
100026e0:	f001 fb1e 	bl	10003d20 <vPortFree>
100026e4:	0020      	movs	r0, r4
100026e6:	f001 fb1b 	bl	10003d20 <vPortFree>
100026ea:	6f2b      	ldr	r3, [r5, #112]	; 0x70
100026ec:	2b00      	cmp	r3, #0
100026ee:	d002      	beq.n	100026f6 <vTaskDelete+0x6a>
100026f0:	686b      	ldr	r3, [r5, #4]
100026f2:	42a3      	cmp	r3, r4
100026f4:	d00e      	beq.n	10002714 <vTaskDelete+0x88>
100026f6:	bdf8      	pop	{r3, r4, r5, r6, r7, pc}
100026f8:	3b01      	subs	r3, #1
100026fa:	626b      	str	r3, [r5, #36]	; 0x24
100026fc:	e7ea      	b.n	100026d4 <vTaskDelete+0x48>
100026fe:	686c      	ldr	r4, [r5, #4]
10002700:	e7cb      	b.n	1000269a <vTaskDelete+0xe>
10002702:	4f07      	ldr	r7, [pc, #28]	; (10002720 <vTaskDelete+0x94>)
10002704:	0031      	movs	r1, r6
10002706:	1d38      	adds	r0, r7, #4
10002708:	f001 fbf4 	bl	10003ef4 <vListInsertEnd>
1000270c:	683b      	ldr	r3, [r7, #0]
1000270e:	3301      	adds	r3, #1
10002710:	603b      	str	r3, [r7, #0]
10002712:	e7df      	b.n	100026d4 <vTaskDelete+0x48>
10002714:	f001 fb4a 	bl	10003dac <vPortYield>
10002718:	e7ed      	b.n	100026f6 <vTaskDelete+0x6a>
1000271a:	46c0      	nop			; (mov r8, r8)
1000271c:	20000e9c 	.word	0x20000e9c
10002720:	20000e1c 	.word	0x20000e1c

10002724 <uxTaskPriorityGet>:
10002724:	b510      	push	{r4, lr}
10002726:	0004      	movs	r4, r0
10002728:	f001 fb4c 	bl	10003dc4 <vPortEnterCritical>
1000272c:	2c00      	cmp	r4, #0
1000272e:	d004      	beq.n	1000273a <uxTaskPriorityGet+0x16>
10002730:	6ae4      	ldr	r4, [r4, #44]	; 0x2c
10002732:	f001 fb53 	bl	10003ddc <vPortExitCritical>
10002736:	0020      	movs	r0, r4
10002738:	bd10      	pop	{r4, pc}
1000273a:	4b01      	ldr	r3, [pc, #4]	; (10002740 <uxTaskPriorityGet+0x1c>)
1000273c:	685c      	ldr	r4, [r3, #4]
1000273e:	e7f7      	b.n	10002730 <uxTaskPriorityGet+0xc>
10002740:	20000e9c 	.word	0x20000e9c

10002744 <uxTaskPriorityGetFromISR>:
10002744:	b510      	push	{r4, lr}
10002746:	0004      	movs	r4, r0
10002748:	f001 fb52 	bl	10003df0 <ulSetInterruptMaskFromISR>
1000274c:	2c00      	cmp	r4, #0
1000274e:	d004      	beq.n	1000275a <uxTaskPriorityGetFromISR+0x16>
10002750:	6ae4      	ldr	r4, [r4, #44]	; 0x2c
10002752:	f001 fb51 	bl	10003df8 <vClearInterruptMaskFromISR>
10002756:	0020      	movs	r0, r4
10002758:	bd10      	pop	{r4, pc}
1000275a:	4b01      	ldr	r3, [pc, #4]	; (10002760 <uxTaskPriorityGetFromISR+0x1c>)
1000275c:	685c      	ldr	r4, [r3, #4]
1000275e:	e7f7      	b.n	10002750 <uxTaskPriorityGetFromISR+0xc>
10002760:	20000e9c 	.word	0x20000e9c

10002764 <vTaskPrioritySet>:
10002764:	b5f0      	push	{r4, r5, r6, r7, lr}
10002766:	46c6      	mov	lr, r8
10002768:	0004      	movs	r4, r0
1000276a:	000d      	movs	r5, r1
1000276c:	b500      	push	{lr}
1000276e:	2904      	cmp	r1, #4
10002770:	d900      	bls.n	10002774 <vTaskPrioritySet+0x10>
10002772:	2504      	movs	r5, #4
10002774:	f001 fb26 	bl	10003dc4 <vPortEnterCritical>
10002778:	2c00      	cmp	r4, #0
1000277a:	d02b      	beq.n	100027d4 <vTaskPrioritySet+0x70>
1000277c:	6ae3      	ldr	r3, [r4, #44]	; 0x2c
1000277e:	429d      	cmp	r5, r3
10002780:	d01a      	beq.n	100027b8 <vTaskPrioritySet+0x54>
10002782:	4f25      	ldr	r7, [pc, #148]	; (10002818 <vTaskPrioritySet+0xb4>)
10002784:	d81d      	bhi.n	100027c2 <vTaskPrioritySet+0x5e>
10002786:	687e      	ldr	r6, [r7, #4]
10002788:	1b36      	subs	r6, r6, r4
1000278a:	4272      	negs	r2, r6
1000278c:	4156      	adcs	r6, r2
1000278e:	69a2      	ldr	r2, [r4, #24]
10002790:	62e5      	str	r5, [r4, #44]	; 0x2c
10002792:	2a00      	cmp	r2, #0
10002794:	db02      	blt.n	1000279c <vTaskPrioritySet+0x38>
10002796:	2105      	movs	r1, #5
10002798:	1b4d      	subs	r5, r1, r5
1000279a:	61a5      	str	r5, [r4, #24]
1000279c:	4d1f      	ldr	r5, [pc, #124]	; (1000281c <vTaskPrioritySet+0xb8>)
1000279e:	009a      	lsls	r2, r3, #2
100027a0:	0029      	movs	r1, r5
100027a2:	18d3      	adds	r3, r2, r3
100027a4:	311c      	adds	r1, #28
100027a6:	009b      	lsls	r3, r3, #2
100027a8:	6962      	ldr	r2, [r4, #20]
100027aa:	18cb      	adds	r3, r1, r3
100027ac:	429a      	cmp	r2, r3
100027ae:	d014      	beq.n	100027da <vTaskPrioritySet+0x76>
100027b0:	2e00      	cmp	r6, #0
100027b2:	d001      	beq.n	100027b8 <vTaskPrioritySet+0x54>
100027b4:	f001 fafa 	bl	10003dac <vPortYield>
100027b8:	f001 fb10 	bl	10003ddc <vPortExitCritical>
100027bc:	bc80      	pop	{r7}
100027be:	46b8      	mov	r8, r7
100027c0:	bdf0      	pop	{r4, r5, r6, r7, pc}
100027c2:	687a      	ldr	r2, [r7, #4]
100027c4:	42a2      	cmp	r2, r4
100027c6:	d025      	beq.n	10002814 <vTaskPrioritySet+0xb0>
100027c8:	687a      	ldr	r2, [r7, #4]
100027ca:	6ad6      	ldr	r6, [r2, #44]	; 0x2c
100027cc:	42ae      	cmp	r6, r5
100027ce:	41b6      	sbcs	r6, r6
100027d0:	4276      	negs	r6, r6
100027d2:	e7dc      	b.n	1000278e <vTaskPrioritySet+0x2a>
100027d4:	4b10      	ldr	r3, [pc, #64]	; (10002818 <vTaskPrioritySet+0xb4>)
100027d6:	685c      	ldr	r4, [r3, #4]
100027d8:	e7d0      	b.n	1000277c <vTaskPrioritySet+0x18>
100027da:	1d23      	adds	r3, r4, #4
100027dc:	0018      	movs	r0, r3
100027de:	4698      	mov	r8, r3
100027e0:	f001 fbac 	bl	10003f3c <uxListRemove>
100027e4:	6ae2      	ldr	r2, [r4, #44]	; 0x2c
100027e6:	6afb      	ldr	r3, [r7, #44]	; 0x2c
100027e8:	429a      	cmp	r2, r3
100027ea:	d900      	bls.n	100027ee <vTaskPrioritySet+0x8a>
100027ec:	62fa      	str	r2, [r7, #44]	; 0x2c
100027ee:	4647      	mov	r7, r8
100027f0:	0093      	lsls	r3, r2, #2
100027f2:	189b      	adds	r3, r3, r2
100027f4:	009b      	lsls	r3, r3, #2
100027f6:	18e9      	adds	r1, r5, r3
100027f8:	6a0a      	ldr	r2, [r1, #32]
100027fa:	351c      	adds	r5, #28
100027fc:	6890      	ldr	r0, [r2, #8]
100027fe:	18ed      	adds	r5, r5, r3
10002800:	60e0      	str	r0, [r4, #12]
10002802:	69cb      	ldr	r3, [r1, #28]
10002804:	6890      	ldr	r0, [r2, #8]
10002806:	3301      	adds	r3, #1
10002808:	60a2      	str	r2, [r4, #8]
1000280a:	6047      	str	r7, [r0, #4]
1000280c:	6097      	str	r7, [r2, #8]
1000280e:	6165      	str	r5, [r4, #20]
10002810:	61cb      	str	r3, [r1, #28]
10002812:	e7cd      	b.n	100027b0 <vTaskPrioritySet+0x4c>
10002814:	2600      	movs	r6, #0
10002816:	e7ba      	b.n	1000278e <vTaskPrioritySet+0x2a>
10002818:	20000e9c 	.word	0x20000e9c
1000281c:	20000e1c 	.word	0x20000e1c

10002820 <vTaskSuspend>:
10002820:	b570      	push	{r4, r5, r6, lr}
10002822:	0004      	movs	r4, r0
10002824:	f001 face 	bl	10003dc4 <vPortEnterCritical>
10002828:	4d4b      	ldr	r5, [pc, #300]	; (10002958 <vTaskSuspend+0x138>)
1000282a:	2c00      	cmp	r4, #0
1000282c:	d047      	beq.n	100028be <vTaskSuspend+0x9e>
1000282e:	1d26      	adds	r6, r4, #4
10002830:	0030      	movs	r0, r6
10002832:	f001 fb83 	bl	10003f3c <uxListRemove>
10002836:	6aa3      	ldr	r3, [r4, #40]	; 0x28
10002838:	2b00      	cmp	r3, #0
1000283a:	d003      	beq.n	10002844 <vTaskSuspend+0x24>
1000283c:	0020      	movs	r0, r4
1000283e:	3018      	adds	r0, #24
10002840:	f001 fb7c 	bl	10003f3c <uxListRemove>
10002844:	0028      	movs	r0, r5
10002846:	0031      	movs	r1, r6
10002848:	3008      	adds	r0, #8
1000284a:	f001 fb53 	bl	10003ef4 <vListInsertEnd>
1000284e:	2364      	movs	r3, #100	; 0x64
10002850:	5ce2      	ldrb	r2, [r4, r3]
10002852:	2a01      	cmp	r2, #1
10002854:	d101      	bne.n	1000285a <vTaskSuspend+0x3a>
10002856:	2200      	movs	r2, #0
10002858:	54e2      	strb	r2, [r4, r3]
1000285a:	2365      	movs	r3, #101	; 0x65
1000285c:	5ce2      	ldrb	r2, [r4, r3]
1000285e:	2a01      	cmp	r2, #1
10002860:	d101      	bne.n	10002866 <vTaskSuspend+0x46>
10002862:	2200      	movs	r2, #0
10002864:	54e2      	strb	r2, [r4, r3]
10002866:	2366      	movs	r3, #102	; 0x66
10002868:	5ce2      	ldrb	r2, [r4, r3]
1000286a:	2a01      	cmp	r2, #1
1000286c:	d101      	bne.n	10002872 <vTaskSuspend+0x52>
1000286e:	2200      	movs	r2, #0
10002870:	54e2      	strb	r2, [r4, r3]
10002872:	f001 fab3 	bl	10003ddc <vPortExitCritical>
10002876:	6f2b      	ldr	r3, [r5, #112]	; 0x70
10002878:	2b00      	cmp	r3, #0
1000287a:	d103      	bne.n	10002884 <vTaskSuspend+0x64>
1000287c:	686b      	ldr	r3, [r5, #4]
1000287e:	42a3      	cmp	r3, r4
10002880:	d00f      	beq.n	100028a2 <vTaskSuspend+0x82>
10002882:	bd70      	pop	{r4, r5, r6, pc}
10002884:	f001 fa9e 	bl	10003dc4 <vPortEnterCritical>
10002888:	6a2b      	ldr	r3, [r5, #32]
1000288a:	681b      	ldr	r3, [r3, #0]
1000288c:	2b00      	cmp	r3, #0
1000288e:	d018      	beq.n	100028c2 <vTaskSuspend+0xa2>
10002890:	6a2b      	ldr	r3, [r5, #32]
10002892:	68db      	ldr	r3, [r3, #12]
10002894:	681b      	ldr	r3, [r3, #0]
10002896:	626b      	str	r3, [r5, #36]	; 0x24
10002898:	f001 faa0 	bl	10003ddc <vPortExitCritical>
1000289c:	686b      	ldr	r3, [r5, #4]
1000289e:	42a3      	cmp	r3, r4
100028a0:	d1ef      	bne.n	10002882 <vTaskSuspend+0x62>
100028a2:	6f2a      	ldr	r2, [r5, #112]	; 0x70
100028a4:	2a00      	cmp	r2, #0
100028a6:	d111      	bne.n	100028cc <vTaskSuspend+0xac>
100028a8:	4b2c      	ldr	r3, [pc, #176]	; (1000295c <vTaskSuspend+0x13c>)
100028aa:	68a8      	ldr	r0, [r5, #8]
100028ac:	6999      	ldr	r1, [r3, #24]
100028ae:	4288      	cmp	r0, r1
100028b0:	d00a      	beq.n	100028c8 <vTaskSuspend+0xa8>
100028b2:	6faa      	ldr	r2, [r5, #120]	; 0x78
100028b4:	2a00      	cmp	r2, #0
100028b6:	d00c      	beq.n	100028d2 <vTaskSuspend+0xb2>
100028b8:	2301      	movs	r3, #1
100028ba:	632b      	str	r3, [r5, #48]	; 0x30
100028bc:	e7e1      	b.n	10002882 <vTaskSuspend+0x62>
100028be:	686c      	ldr	r4, [r5, #4]
100028c0:	e7b5      	b.n	1000282e <vTaskSuspend+0xe>
100028c2:	3b01      	subs	r3, #1
100028c4:	626b      	str	r3, [r5, #36]	; 0x24
100028c6:	e7e7      	b.n	10002898 <vTaskSuspend+0x78>
100028c8:	606a      	str	r2, [r5, #4]
100028ca:	e7da      	b.n	10002882 <vTaskSuspend+0x62>
100028cc:	f001 fa6e 	bl	10003dac <vPortYield>
100028d0:	e7d7      	b.n	10002882 <vTaskSuspend+0x62>
100028d2:	632a      	str	r2, [r5, #48]	; 0x30
100028d4:	6ae9      	ldr	r1, [r5, #44]	; 0x2c
100028d6:	008a      	lsls	r2, r1, #2
100028d8:	1850      	adds	r0, r2, r1
100028da:	0080      	lsls	r0, r0, #2
100028dc:	1818      	adds	r0, r3, r0
100028de:	69c0      	ldr	r0, [r0, #28]
100028e0:	2800      	cmp	r0, #0
100028e2:	d125      	bne.n	10002930 <vTaskSuspend+0x110>
100028e4:	1e4c      	subs	r4, r1, #1
100028e6:	00a2      	lsls	r2, r4, #2
100028e8:	1910      	adds	r0, r2, r4
100028ea:	0080      	lsls	r0, r0, #2
100028ec:	1818      	adds	r0, r3, r0
100028ee:	69c0      	ldr	r0, [r0, #28]
100028f0:	2800      	cmp	r0, #0
100028f2:	d12e      	bne.n	10002952 <vTaskSuspend+0x132>
100028f4:	1e8c      	subs	r4, r1, #2
100028f6:	00a2      	lsls	r2, r4, #2
100028f8:	1910      	adds	r0, r2, r4
100028fa:	0080      	lsls	r0, r0, #2
100028fc:	1818      	adds	r0, r3, r0
100028fe:	69c0      	ldr	r0, [r0, #28]
10002900:	2800      	cmp	r0, #0
10002902:	d126      	bne.n	10002952 <vTaskSuspend+0x132>
10002904:	1ecc      	subs	r4, r1, #3
10002906:	00a2      	lsls	r2, r4, #2
10002908:	1910      	adds	r0, r2, r4
1000290a:	0080      	lsls	r0, r0, #2
1000290c:	1818      	adds	r0, r3, r0
1000290e:	69c0      	ldr	r0, [r0, #28]
10002910:	2800      	cmp	r0, #0
10002912:	d11e      	bne.n	10002952 <vTaskSuspend+0x132>
10002914:	1f0c      	subs	r4, r1, #4
10002916:	00a2      	lsls	r2, r4, #2
10002918:	1910      	adds	r0, r2, r4
1000291a:	0080      	lsls	r0, r0, #2
1000291c:	1818      	adds	r0, r3, r0
1000291e:	69c0      	ldr	r0, [r0, #28]
10002920:	2800      	cmp	r0, #0
10002922:	d116      	bne.n	10002952 <vTaskSuspend+0x132>
10002924:	3905      	subs	r1, #5
10002926:	008a      	lsls	r2, r1, #2
10002928:	1850      	adds	r0, r2, r1
1000292a:	0080      	lsls	r0, r0, #2
1000292c:	1818      	adds	r0, r3, r0
1000292e:	69c0      	ldr	r0, [r0, #28]
10002930:	1852      	adds	r2, r2, r1
10002932:	0092      	lsls	r2, r2, #2
10002934:	189c      	adds	r4, r3, r2
10002936:	0023      	movs	r3, r4
10002938:	6a20      	ldr	r0, [r4, #32]
1000293a:	3324      	adds	r3, #36	; 0x24
1000293c:	6840      	ldr	r0, [r0, #4]
1000293e:	6220      	str	r0, [r4, #32]
10002940:	4298      	cmp	r0, r3
10002942:	d003      	beq.n	1000294c <vTaskSuspend+0x12c>
10002944:	68c3      	ldr	r3, [r0, #12]
10002946:	606b      	str	r3, [r5, #4]
10002948:	62e9      	str	r1, [r5, #44]	; 0x2c
1000294a:	e79a      	b.n	10002882 <vTaskSuspend+0x62>
1000294c:	6aa0      	ldr	r0, [r4, #40]	; 0x28
1000294e:	6220      	str	r0, [r4, #32]
10002950:	e7f8      	b.n	10002944 <vTaskSuspend+0x124>
10002952:	0021      	movs	r1, r4
10002954:	e7ec      	b.n	10002930 <vTaskSuspend+0x110>
10002956:	46c0      	nop			; (mov r8, r8)
10002958:	20000e9c 	.word	0x20000e9c
1000295c:	20000e1c 	.word	0x20000e1c

10002960 <vTaskResume>:
10002960:	b5f8      	push	{r3, r4, r5, r6, r7, lr}
10002962:	4d1e      	ldr	r5, [pc, #120]	; (100029dc <vTaskResume+0x7c>)
10002964:	0004      	movs	r4, r0
10002966:	686b      	ldr	r3, [r5, #4]
10002968:	4283      	cmp	r3, r0
1000296a:	d00a      	beq.n	10002982 <vTaskResume+0x22>
1000296c:	2800      	cmp	r0, #0
1000296e:	d008      	beq.n	10002982 <vTaskResume+0x22>
10002970:	f001 fa28 	bl	10003dc4 <vPortEnterCritical>
10002974:	002b      	movs	r3, r5
10002976:	6962      	ldr	r2, [r4, #20]
10002978:	3308      	adds	r3, #8
1000297a:	429a      	cmp	r2, r3
1000297c:	d002      	beq.n	10002984 <vTaskResume+0x24>
1000297e:	f001 fa2d 	bl	10003ddc <vPortExitCritical>
10002982:	bdf8      	pop	{r3, r4, r5, r6, r7, pc}
10002984:	002a      	movs	r2, r5
10002986:	6aa3      	ldr	r3, [r4, #40]	; 0x28
10002988:	325c      	adds	r2, #92	; 0x5c
1000298a:	4293      	cmp	r3, r2
1000298c:	d0f7      	beq.n	1000297e <vTaskResume+0x1e>
1000298e:	2b00      	cmp	r3, #0
10002990:	d1f5      	bne.n	1000297e <vTaskResume+0x1e>
10002992:	1d26      	adds	r6, r4, #4
10002994:	0030      	movs	r0, r6
10002996:	f001 fad1 	bl	10003f3c <uxListRemove>
1000299a:	6ae1      	ldr	r1, [r4, #44]	; 0x2c
1000299c:	6aeb      	ldr	r3, [r5, #44]	; 0x2c
1000299e:	4299      	cmp	r1, r3
100029a0:	d900      	bls.n	100029a4 <vTaskResume+0x44>
100029a2:	62e9      	str	r1, [r5, #44]	; 0x2c
100029a4:	4b0e      	ldr	r3, [pc, #56]	; (100029e0 <vTaskResume+0x80>)
100029a6:	008a      	lsls	r2, r1, #2
100029a8:	469c      	mov	ip, r3
100029aa:	1852      	adds	r2, r2, r1
100029ac:	0092      	lsls	r2, r2, #2
100029ae:	189f      	adds	r7, r3, r2
100029b0:	6a38      	ldr	r0, [r7, #32]
100029b2:	6883      	ldr	r3, [r0, #8]
100029b4:	60a0      	str	r0, [r4, #8]
100029b6:	60e3      	str	r3, [r4, #12]
100029b8:	6883      	ldr	r3, [r0, #8]
100029ba:	605e      	str	r6, [r3, #4]
100029bc:	4663      	mov	r3, ip
100029be:	331c      	adds	r3, #28
100029c0:	189b      	adds	r3, r3, r2
100029c2:	6086      	str	r6, [r0, #8]
100029c4:	6163      	str	r3, [r4, #20]
100029c6:	69fb      	ldr	r3, [r7, #28]
100029c8:	3301      	adds	r3, #1
100029ca:	61fb      	str	r3, [r7, #28]
100029cc:	686b      	ldr	r3, [r5, #4]
100029ce:	6adb      	ldr	r3, [r3, #44]	; 0x2c
100029d0:	4299      	cmp	r1, r3
100029d2:	d9d4      	bls.n	1000297e <vTaskResume+0x1e>
100029d4:	f001 f9ea 	bl	10003dac <vPortYield>
100029d8:	e7d1      	b.n	1000297e <vTaskResume+0x1e>
100029da:	46c0      	nop			; (mov r8, r8)
100029dc:	20000e9c 	.word	0x20000e9c
100029e0:	20000e1c 	.word	0x20000e1c

100029e4 <xTaskResumeFromISR>:
100029e4:	b5f0      	push	{r4, r5, r6, r7, lr}
100029e6:	46c6      	mov	lr, r8
100029e8:	b500      	push	{lr}
100029ea:	0004      	movs	r4, r0
100029ec:	f001 fa00 	bl	10003df0 <ulSetInterruptMaskFromISR>
100029f0:	4e22      	ldr	r6, [pc, #136]	; (10002a7c <xTaskResumeFromISR+0x98>)
100029f2:	6962      	ldr	r2, [r4, #20]
100029f4:	0033      	movs	r3, r6
100029f6:	3308      	adds	r3, #8
100029f8:	0005      	movs	r5, r0
100029fa:	2700      	movs	r7, #0
100029fc:	429a      	cmp	r2, r3
100029fe:	d006      	beq.n	10002a0e <xTaskResumeFromISR+0x2a>
10002a00:	0028      	movs	r0, r5
10002a02:	f001 f9f9 	bl	10003df8 <vClearInterruptMaskFromISR>
10002a06:	0038      	movs	r0, r7
10002a08:	bc80      	pop	{r7}
10002a0a:	46b8      	mov	r8, r7
10002a0c:	bdf0      	pop	{r4, r5, r6, r7, pc}
10002a0e:	0030      	movs	r0, r6
10002a10:	6aa3      	ldr	r3, [r4, #40]	; 0x28
10002a12:	305c      	adds	r0, #92	; 0x5c
10002a14:	4283      	cmp	r3, r0
10002a16:	d0f3      	beq.n	10002a00 <xTaskResumeFromISR+0x1c>
10002a18:	2b00      	cmp	r3, #0
10002a1a:	d1f1      	bne.n	10002a00 <xTaskResumeFromISR+0x1c>
10002a1c:	6fb3      	ldr	r3, [r6, #120]	; 0x78
10002a1e:	2b00      	cmp	r3, #0
10002a20:	d127      	bne.n	10002a72 <xTaskResumeFromISR+0x8e>
10002a22:	6873      	ldr	r3, [r6, #4]
10002a24:	6ae2      	ldr	r2, [r4, #44]	; 0x2c
10002a26:	6adb      	ldr	r3, [r3, #44]	; 0x2c
10002a28:	429a      	cmp	r2, r3
10002a2a:	d902      	bls.n	10002a32 <xTaskResumeFromISR+0x4e>
10002a2c:	2301      	movs	r3, #1
10002a2e:	3701      	adds	r7, #1
10002a30:	6333      	str	r3, [r6, #48]	; 0x30
10002a32:	1d23      	adds	r3, r4, #4
10002a34:	0018      	movs	r0, r3
10002a36:	4698      	mov	r8, r3
10002a38:	f001 fa80 	bl	10003f3c <uxListRemove>
10002a3c:	6ae1      	ldr	r1, [r4, #44]	; 0x2c
10002a3e:	6af3      	ldr	r3, [r6, #44]	; 0x2c
10002a40:	4299      	cmp	r1, r3
10002a42:	d900      	bls.n	10002a46 <xTaskResumeFromISR+0x62>
10002a44:	62f1      	str	r1, [r6, #44]	; 0x2c
10002a46:	008a      	lsls	r2, r1, #2
10002a48:	4b0d      	ldr	r3, [pc, #52]	; (10002a80 <xTaskResumeFromISR+0x9c>)
10002a4a:	1852      	adds	r2, r2, r1
10002a4c:	0092      	lsls	r2, r2, #2
10002a4e:	189e      	adds	r6, r3, r2
10002a50:	469c      	mov	ip, r3
10002a52:	4643      	mov	r3, r8
10002a54:	6a31      	ldr	r1, [r6, #32]
10002a56:	6888      	ldr	r0, [r1, #8]
10002a58:	60a1      	str	r1, [r4, #8]
10002a5a:	60e0      	str	r0, [r4, #12]
10002a5c:	6888      	ldr	r0, [r1, #8]
10002a5e:	6043      	str	r3, [r0, #4]
10002a60:	608b      	str	r3, [r1, #8]
10002a62:	4663      	mov	r3, ip
10002a64:	331c      	adds	r3, #28
10002a66:	189b      	adds	r3, r3, r2
10002a68:	6163      	str	r3, [r4, #20]
10002a6a:	69f3      	ldr	r3, [r6, #28]
10002a6c:	3301      	adds	r3, #1
10002a6e:	61f3      	str	r3, [r6, #28]
10002a70:	e7c6      	b.n	10002a00 <xTaskResumeFromISR+0x1c>
10002a72:	0021      	movs	r1, r4
10002a74:	3118      	adds	r1, #24
10002a76:	f001 fa3d 	bl	10003ef4 <vListInsertEnd>
10002a7a:	e7c1      	b.n	10002a00 <xTaskResumeFromISR+0x1c>
10002a7c:	20000e9c 	.word	0x20000e9c
10002a80:	20000e1c 	.word	0x20000e1c

10002a84 <vTaskStartScheduler>:
10002a84:	b5f8      	push	{r3, r4, r5, r6, r7, lr}
10002a86:	2080      	movs	r0, #128	; 0x80
10002a88:	46ce      	mov	lr, r9
10002a8a:	4647      	mov	r7, r8
10002a8c:	0080      	lsls	r0, r0, #2
10002a8e:	b580      	push	{r7, lr}
10002a90:	f001 f93a 	bl	10003d08 <pvPortMalloc>
10002a94:	1e05      	subs	r5, r0, #0
10002a96:	d05f      	beq.n	10002b58 <vTaskStartScheduler+0xd4>
10002a98:	2068      	movs	r0, #104	; 0x68
10002a9a:	f001 f935 	bl	10003d08 <pvPortMalloc>
10002a9e:	1e04      	subs	r4, r0, #0
10002aa0:	d060      	beq.n	10002b64 <vTaskStartScheduler+0xe0>
10002aa2:	2268      	movs	r2, #104	; 0x68
10002aa4:	2100      	movs	r1, #0
10002aa6:	f7ff f993 	bl	10001dd0 <__wrap_memset>
10002aaa:	2307      	movs	r3, #7
10002aac:	6325      	str	r5, [r4, #48]	; 0x30
10002aae:	35fd      	adds	r5, #253	; 0xfd
10002ab0:	35ff      	adds	r5, #255	; 0xff
10002ab2:	439d      	bics	r5, r3
10002ab4:	4b49      	ldr	r3, [pc, #292]	; (10002bdc <vTaskStartScheduler+0x158>)
10002ab6:	1d27      	adds	r7, r4, #4
10002ab8:	6363      	str	r3, [r4, #52]	; 0x34
10002aba:	0038      	movs	r0, r7
10002abc:	f001 fa16 	bl	10003eec <vListInitialiseItem>
10002ac0:	0020      	movs	r0, r4
10002ac2:	3018      	adds	r0, #24
10002ac4:	f001 fa12 	bl	10003eec <vListInitialiseItem>
10002ac8:	2305      	movs	r3, #5
10002aca:	2200      	movs	r2, #0
10002acc:	61a3      	str	r3, [r4, #24]
10002ace:	0028      	movs	r0, r5
10002ad0:	4943      	ldr	r1, [pc, #268]	; (10002be0 <vTaskStartScheduler+0x15c>)
10002ad2:	6124      	str	r4, [r4, #16]
10002ad4:	6264      	str	r4, [r4, #36]	; 0x24
10002ad6:	f001 f955 	bl	10003d84 <pxPortInitialiseStack>
10002ada:	4d42      	ldr	r5, [pc, #264]	; (10002be4 <vTaskStartScheduler+0x160>)
10002adc:	6020      	str	r0, [r4, #0]
10002ade:	67ec      	str	r4, [r5, #124]	; 0x7c
10002ae0:	f001 f970 	bl	10003dc4 <vPortEnterCritical>
10002ae4:	4e40      	ldr	r6, [pc, #256]	; (10002be8 <vTaskStartScheduler+0x164>)
10002ae6:	69b3      	ldr	r3, [r6, #24]
10002ae8:	3301      	adds	r3, #1
10002aea:	61b3      	str	r3, [r6, #24]
10002aec:	686b      	ldr	r3, [r5, #4]
10002aee:	2b00      	cmp	r3, #0
10002af0:	d043      	beq.n	10002b7a <vTaskStartScheduler+0xf6>
10002af2:	6f2b      	ldr	r3, [r5, #112]	; 0x70
10002af4:	2b00      	cmp	r3, #0
10002af6:	d039      	beq.n	10002b6c <vTaskStartScheduler+0xe8>
10002af8:	6ae2      	ldr	r2, [r4, #44]	; 0x2c
10002afa:	6f6b      	ldr	r3, [r5, #116]	; 0x74
10002afc:	3301      	adds	r3, #1
10002afe:	676b      	str	r3, [r5, #116]	; 0x74
10002b00:	6aeb      	ldr	r3, [r5, #44]	; 0x2c
10002b02:	4293      	cmp	r3, r2
10002b04:	d200      	bcs.n	10002b08 <vTaskStartScheduler+0x84>
10002b06:	62ea      	str	r2, [r5, #44]	; 0x2c
10002b08:	0093      	lsls	r3, r2, #2
10002b0a:	189b      	adds	r3, r3, r2
10002b0c:	009b      	lsls	r3, r3, #2
10002b0e:	18f1      	adds	r1, r6, r3
10002b10:	6a0a      	ldr	r2, [r1, #32]
10002b12:	361c      	adds	r6, #28
10002b14:	6890      	ldr	r0, [r2, #8]
10002b16:	18f6      	adds	r6, r6, r3
10002b18:	60e0      	str	r0, [r4, #12]
10002b1a:	69cb      	ldr	r3, [r1, #28]
10002b1c:	6890      	ldr	r0, [r2, #8]
10002b1e:	3301      	adds	r3, #1
10002b20:	60a2      	str	r2, [r4, #8]
10002b22:	6047      	str	r7, [r0, #4]
10002b24:	6097      	str	r7, [r2, #8]
10002b26:	6166      	str	r6, [r4, #20]
10002b28:	61cb      	str	r3, [r1, #28]
10002b2a:	f001 f957 	bl	10003ddc <vPortExitCritical>
10002b2e:	6f2b      	ldr	r3, [r5, #112]	; 0x70
10002b30:	2b00      	cmp	r3, #0
10002b32:	d004      	beq.n	10002b3e <vTaskStartScheduler+0xba>
10002b34:	686b      	ldr	r3, [r5, #4]
10002b36:	6ada      	ldr	r2, [r3, #44]	; 0x2c
10002b38:	6ae3      	ldr	r3, [r4, #44]	; 0x2c
10002b3a:	429a      	cmp	r2, r3
10002b3c:	d34b      	bcc.n	10002bd6 <vTaskStartScheduler+0x152>
10002b3e:	f000 ffc5 	bl	10003acc <xTimerCreateTimerTask>
10002b42:	2801      	cmp	r0, #1
10002b44:	d108      	bne.n	10002b58 <vTaskStartScheduler+0xd4>
10002b46:	b672      	cpsid	i
10002b48:	2301      	movs	r3, #1
10002b4a:	425b      	negs	r3, r3
10002b4c:	626b      	str	r3, [r5, #36]	; 0x24
10002b4e:	2300      	movs	r3, #0
10002b50:	6728      	str	r0, [r5, #112]	; 0x70
10002b52:	602b      	str	r3, [r5, #0]
10002b54:	f001 f99c 	bl	10003e90 <xPortStartScheduler>
10002b58:	4b24      	ldr	r3, [pc, #144]	; (10002bec <vTaskStartScheduler+0x168>)
10002b5a:	681b      	ldr	r3, [r3, #0]
10002b5c:	bcc0      	pop	{r6, r7}
10002b5e:	46b9      	mov	r9, r7
10002b60:	46b0      	mov	r8, r6
10002b62:	bdf8      	pop	{r3, r4, r5, r6, r7, pc}
10002b64:	0028      	movs	r0, r5
10002b66:	f001 f8db 	bl	10003d20 <vPortFree>
10002b6a:	e7f5      	b.n	10002b58 <vTaskStartScheduler+0xd4>
10002b6c:	686b      	ldr	r3, [r5, #4]
10002b6e:	6ae2      	ldr	r2, [r4, #44]	; 0x2c
10002b70:	6adb      	ldr	r3, [r3, #44]	; 0x2c
10002b72:	4293      	cmp	r3, r2
10002b74:	d8c1      	bhi.n	10002afa <vTaskStartScheduler+0x76>
10002b76:	606c      	str	r4, [r5, #4]
10002b78:	e7bf      	b.n	10002afa <vTaskStartScheduler+0x76>
10002b7a:	606c      	str	r4, [r5, #4]
10002b7c:	69b3      	ldr	r3, [r6, #24]
10002b7e:	2b01      	cmp	r3, #1
10002b80:	d1ba      	bne.n	10002af8 <vTaskStartScheduler+0x74>
10002b82:	231c      	movs	r3, #28
10002b84:	4698      	mov	r8, r3
10002b86:	3364      	adds	r3, #100	; 0x64
10002b88:	4699      	mov	r9, r3
10002b8a:	44b0      	add	r8, r6
10002b8c:	44b1      	add	r9, r6
10002b8e:	4640      	mov	r0, r8
10002b90:	f001 f9a0 	bl	10003ed4 <vListInitialise>
10002b94:	2314      	movs	r3, #20
10002b96:	469c      	mov	ip, r3
10002b98:	44e0      	add	r8, ip
10002b9a:	45c8      	cmp	r8, r9
10002b9c:	d1f7      	bne.n	10002b8e <vTaskStartScheduler+0x10a>
10002b9e:	3320      	adds	r3, #32
10002ba0:	4699      	mov	r9, r3
10002ba2:	44a9      	add	r9, r5
10002ba4:	4648      	mov	r0, r9
10002ba6:	f001 f995 	bl	10003ed4 <vListInitialise>
10002baa:	2348      	movs	r3, #72	; 0x48
10002bac:	4698      	mov	r8, r3
10002bae:	44a8      	add	r8, r5
10002bb0:	4640      	mov	r0, r8
10002bb2:	f001 f98f 	bl	10003ed4 <vListInitialise>
10002bb6:	0028      	movs	r0, r5
10002bb8:	305c      	adds	r0, #92	; 0x5c
10002bba:	f001 f98b 	bl	10003ed4 <vListInitialise>
10002bbe:	1d30      	adds	r0, r6, #4
10002bc0:	f001 f988 	bl	10003ed4 <vListInitialise>
10002bc4:	0028      	movs	r0, r5
10002bc6:	3008      	adds	r0, #8
10002bc8:	f001 f984 	bl	10003ed4 <vListInitialise>
10002bcc:	464b      	mov	r3, r9
10002bce:	622b      	str	r3, [r5, #32]
10002bd0:	4643      	mov	r3, r8
10002bd2:	61eb      	str	r3, [r5, #28]
10002bd4:	e790      	b.n	10002af8 <vTaskStartScheduler+0x74>
10002bd6:	f001 f8e9 	bl	10003dac <vPortYield>
10002bda:	e7b0      	b.n	10002b3e <vTaskStartScheduler+0xba>
10002bdc:	454c4449 	.word	0x454c4449
10002be0:	10002285 	.word	0x10002285
10002be4:	20000e9c 	.word	0x20000e9c
10002be8:	20000e1c 	.word	0x20000e1c
10002bec:	20000248 	.word	0x20000248

10002bf0 <vTaskEndScheduler>:
10002bf0:	b510      	push	{r4, lr}
10002bf2:	b672      	cpsid	i
10002bf4:	2200      	movs	r2, #0
10002bf6:	4b02      	ldr	r3, [pc, #8]	; (10002c00 <vTaskEndScheduler+0x10>)
10002bf8:	671a      	str	r2, [r3, #112]	; 0x70
10002bfa:	f001 f8d5 	bl	10003da8 <vPortEndScheduler>
10002bfe:	bd10      	pop	{r4, pc}
10002c00:	20000e9c 	.word	0x20000e9c

10002c04 <vTaskSuspendAll>:
10002c04:	4a02      	ldr	r2, [pc, #8]	; (10002c10 <vTaskSuspendAll+0xc>)
10002c06:	6f93      	ldr	r3, [r2, #120]	; 0x78
10002c08:	3301      	adds	r3, #1
10002c0a:	6793      	str	r3, [r2, #120]	; 0x78
10002c0c:	4770      	bx	lr
10002c0e:	46c0      	nop			; (mov r8, r8)
10002c10:	20000e9c 	.word	0x20000e9c

10002c14 <xTaskResumeAll>:
10002c14:	b5f0      	push	{r4, r5, r6, r7, lr}
10002c16:	46d6      	mov	lr, sl
10002c18:	464f      	mov	r7, r9
10002c1a:	4646      	mov	r6, r8
10002c1c:	b5c0      	push	{r6, r7, lr}
10002c1e:	f001 f8d1 	bl	10003dc4 <vPortEnterCritical>
10002c22:	4c46      	ldr	r4, [pc, #280]	; (10002d3c <xTaskResumeAll+0x128>)
10002c24:	6fa3      	ldr	r3, [r4, #120]	; 0x78
10002c26:	3b01      	subs	r3, #1
10002c28:	67a3      	str	r3, [r4, #120]	; 0x78
10002c2a:	6fa3      	ldr	r3, [r4, #120]	; 0x78
10002c2c:	2b00      	cmp	r3, #0
10002c2e:	d16b      	bne.n	10002d08 <xTaskResumeAll+0xf4>
10002c30:	4b43      	ldr	r3, [pc, #268]	; (10002d40 <xTaskResumeAll+0x12c>)
10002c32:	469a      	mov	sl, r3
10002c34:	699b      	ldr	r3, [r3, #24]
10002c36:	2b00      	cmp	r3, #0
10002c38:	d066      	beq.n	10002d08 <xTaskResumeAll+0xf4>
10002c3a:	6de3      	ldr	r3, [r4, #92]	; 0x5c
10002c3c:	2b00      	cmp	r3, #0
10002c3e:	d048      	beq.n	10002cd2 <xTaskResumeAll+0xbe>
10002c40:	2300      	movs	r3, #0
10002c42:	4699      	mov	r9, r3
10002c44:	331c      	adds	r3, #28
10002c46:	4698      	mov	r8, r3
10002c48:	3b1b      	subs	r3, #27
10002c4a:	469c      	mov	ip, r3
10002c4c:	44d0      	add	r8, sl
10002c4e:	6ea3      	ldr	r3, [r4, #104]	; 0x68
10002c50:	68db      	ldr	r3, [r3, #12]
10002c52:	69d8      	ldr	r0, [r3, #28]
10002c54:	6a19      	ldr	r1, [r3, #32]
10002c56:	6a9a      	ldr	r2, [r3, #40]	; 0x28
10002c58:	6081      	str	r1, [r0, #8]
10002c5a:	6048      	str	r0, [r1, #4]
10002c5c:	0018      	movs	r0, r3
10002c5e:	6856      	ldr	r6, [r2, #4]
10002c60:	3018      	adds	r0, #24
10002c62:	4286      	cmp	r6, r0
10002c64:	d05f      	beq.n	10002d26 <xTaskResumeAll+0x112>
10002c66:	4649      	mov	r1, r9
10002c68:	6299      	str	r1, [r3, #40]	; 0x28
10002c6a:	6811      	ldr	r1, [r2, #0]
10002c6c:	3901      	subs	r1, #1
10002c6e:	6011      	str	r1, [r2, #0]
10002c70:	695a      	ldr	r2, [r3, #20]
10002c72:	6898      	ldr	r0, [r3, #8]
10002c74:	68d9      	ldr	r1, [r3, #12]
10002c76:	1d1f      	adds	r7, r3, #4
10002c78:	6081      	str	r1, [r0, #8]
10002c7a:	6048      	str	r0, [r1, #4]
10002c7c:	6850      	ldr	r0, [r2, #4]
10002c7e:	42b8      	cmp	r0, r7
10002c80:	d04f      	beq.n	10002d22 <xTaskResumeAll+0x10e>
10002c82:	6811      	ldr	r1, [r2, #0]
10002c84:	3901      	subs	r1, #1
10002c86:	6011      	str	r1, [r2, #0]
10002c88:	6ae2      	ldr	r2, [r4, #44]	; 0x2c
10002c8a:	6ad9      	ldr	r1, [r3, #44]	; 0x2c
10002c8c:	4291      	cmp	r1, r2
10002c8e:	d900      	bls.n	10002c92 <xTaskResumeAll+0x7e>
10002c90:	62e1      	str	r1, [r4, #44]	; 0x2c
10002c92:	4650      	mov	r0, sl
10002c94:	008a      	lsls	r2, r1, #2
10002c96:	1852      	adds	r2, r2, r1
10002c98:	0092      	lsls	r2, r2, #2
10002c9a:	1886      	adds	r6, r0, r2
10002c9c:	6a30      	ldr	r0, [r6, #32]
10002c9e:	4442      	add	r2, r8
10002ca0:	6885      	ldr	r5, [r0, #8]
10002ca2:	6098      	str	r0, [r3, #8]
10002ca4:	60dd      	str	r5, [r3, #12]
10002ca6:	6885      	ldr	r5, [r0, #8]
10002ca8:	606f      	str	r7, [r5, #4]
10002caa:	6087      	str	r7, [r0, #8]
10002cac:	615a      	str	r2, [r3, #20]
10002cae:	69f3      	ldr	r3, [r6, #28]
10002cb0:	3301      	adds	r3, #1
10002cb2:	61f3      	str	r3, [r6, #28]
10002cb4:	6863      	ldr	r3, [r4, #4]
10002cb6:	6adb      	ldr	r3, [r3, #44]	; 0x2c
10002cb8:	4299      	cmp	r1, r3
10002cba:	d92e      	bls.n	10002d1a <xTaskResumeAll+0x106>
10002cbc:	4663      	mov	r3, ip
10002cbe:	6323      	str	r3, [r4, #48]	; 0x30
10002cc0:	6de3      	ldr	r3, [r4, #92]	; 0x5c
10002cc2:	2b00      	cmp	r3, #0
10002cc4:	d1c3      	bne.n	10002c4e <xTaskResumeAll+0x3a>
10002cc6:	6a23      	ldr	r3, [r4, #32]
10002cc8:	681b      	ldr	r3, [r3, #0]
10002cca:	2b00      	cmp	r3, #0
10002ccc:	d12d      	bne.n	10002d2a <xTaskResumeAll+0x116>
10002cce:	3b01      	subs	r3, #1
10002cd0:	6263      	str	r3, [r4, #36]	; 0x24
10002cd2:	4e1c      	ldr	r6, [pc, #112]	; (10002d44 <xTaskResumeAll+0x130>)
10002cd4:	6835      	ldr	r5, [r6, #0]
10002cd6:	2d00      	cmp	r5, #0
10002cd8:	d013      	beq.n	10002d02 <xTaskResumeAll+0xee>
10002cda:	2701      	movs	r7, #1
10002cdc:	e007      	b.n	10002cee <xTaskResumeAll+0xda>
10002cde:	f7ff fb2f 	bl	10002340 <xTaskIncrementTick.part.0>
10002ce2:	2800      	cmp	r0, #0
10002ce4:	d000      	beq.n	10002ce8 <xTaskResumeAll+0xd4>
10002ce6:	6327      	str	r7, [r4, #48]	; 0x30
10002ce8:	3d01      	subs	r5, #1
10002cea:	2d00      	cmp	r5, #0
10002cec:	d008      	beq.n	10002d00 <xTaskResumeAll+0xec>
10002cee:	6fa3      	ldr	r3, [r4, #120]	; 0x78
10002cf0:	2b00      	cmp	r3, #0
10002cf2:	d0f4      	beq.n	10002cde <xTaskResumeAll+0xca>
10002cf4:	6833      	ldr	r3, [r6, #0]
10002cf6:	3d01      	subs	r5, #1
10002cf8:	3301      	adds	r3, #1
10002cfa:	6033      	str	r3, [r6, #0]
10002cfc:	2d00      	cmp	r5, #0
10002cfe:	d1f6      	bne.n	10002cee <xTaskResumeAll+0xda>
10002d00:	6035      	str	r5, [r6, #0]
10002d02:	6b23      	ldr	r3, [r4, #48]	; 0x30
10002d04:	2b00      	cmp	r3, #0
10002d06:	d115      	bne.n	10002d34 <xTaskResumeAll+0x120>
10002d08:	2400      	movs	r4, #0
10002d0a:	f001 f867 	bl	10003ddc <vPortExitCritical>
10002d0e:	0020      	movs	r0, r4
10002d10:	bce0      	pop	{r5, r6, r7}
10002d12:	46ba      	mov	sl, r7
10002d14:	46b1      	mov	r9, r6
10002d16:	46a8      	mov	r8, r5
10002d18:	bdf0      	pop	{r4, r5, r6, r7, pc}
10002d1a:	6de3      	ldr	r3, [r4, #92]	; 0x5c
10002d1c:	2b00      	cmp	r3, #0
10002d1e:	d196      	bne.n	10002c4e <xTaskResumeAll+0x3a>
10002d20:	e7d1      	b.n	10002cc6 <xTaskResumeAll+0xb2>
10002d22:	6051      	str	r1, [r2, #4]
10002d24:	e7ad      	b.n	10002c82 <xTaskResumeAll+0x6e>
10002d26:	6051      	str	r1, [r2, #4]
10002d28:	e79d      	b.n	10002c66 <xTaskResumeAll+0x52>
10002d2a:	6a23      	ldr	r3, [r4, #32]
10002d2c:	68db      	ldr	r3, [r3, #12]
10002d2e:	681b      	ldr	r3, [r3, #0]
10002d30:	6263      	str	r3, [r4, #36]	; 0x24
10002d32:	e7ce      	b.n	10002cd2 <xTaskResumeAll+0xbe>
10002d34:	f001 f83a 	bl	10003dac <vPortYield>
10002d38:	2401      	movs	r4, #1
10002d3a:	e7e6      	b.n	10002d0a <xTaskResumeAll+0xf6>
10002d3c:	20000e9c 	.word	0x20000e9c
10002d40:	20000e1c 	.word	0x20000e1c
10002d44:	20000f1c 	.word	0x20000f1c

10002d48 <xTaskDelayUntil>:
10002d48:	b5f8      	push	{r3, r4, r5, r6, r7, lr}
10002d4a:	4e1d      	ldr	r6, [pc, #116]	; (10002dc0 <xTaskDelayUntil+0x78>)
10002d4c:	6fb3      	ldr	r3, [r6, #120]	; 0x78
10002d4e:	3301      	adds	r3, #1
10002d50:	67b3      	str	r3, [r6, #120]	; 0x78
10002d52:	6802      	ldr	r2, [r0, #0]
10002d54:	6835      	ldr	r5, [r6, #0]
10002d56:	1854      	adds	r4, r2, r1
10002d58:	6004      	str	r4, [r0, #0]
10002d5a:	42aa      	cmp	r2, r5
10002d5c:	d908      	bls.n	10002d70 <xTaskDelayUntil+0x28>
10002d5e:	42a2      	cmp	r2, r4
10002d60:	d808      	bhi.n	10002d74 <xTaskDelayUntil+0x2c>
10002d62:	2500      	movs	r5, #0
10002d64:	f7ff ff56 	bl	10002c14 <xTaskResumeAll>
10002d68:	2800      	cmp	r0, #0
10002d6a:	d01a      	beq.n	10002da2 <xTaskDelayUntil+0x5a>
10002d6c:	0028      	movs	r0, r5
10002d6e:	bdf8      	pop	{r3, r4, r5, r6, r7, pc}
10002d70:	42a2      	cmp	r2, r4
10002d72:	d801      	bhi.n	10002d78 <xTaskDelayUntil+0x30>
10002d74:	42a5      	cmp	r5, r4
10002d76:	d2f4      	bcs.n	10002d62 <xTaskDelayUntil+0x1a>
10002d78:	6837      	ldr	r7, [r6, #0]
10002d7a:	6870      	ldr	r0, [r6, #4]
10002d7c:	1b7d      	subs	r5, r7, r5
10002d7e:	3004      	adds	r0, #4
10002d80:	f001 f8dc 	bl	10003f3c <uxListRemove>
10002d84:	6873      	ldr	r3, [r6, #4]
10002d86:	1964      	adds	r4, r4, r5
10002d88:	605c      	str	r4, [r3, #4]
10002d8a:	42a7      	cmp	r7, r4
10002d8c:	d90c      	bls.n	10002da8 <xTaskDelayUntil+0x60>
10002d8e:	69f0      	ldr	r0, [r6, #28]
10002d90:	6871      	ldr	r1, [r6, #4]
10002d92:	2501      	movs	r5, #1
10002d94:	3104      	adds	r1, #4
10002d96:	f001 f8b9 	bl	10003f0c <vListInsert>
10002d9a:	f7ff ff3b 	bl	10002c14 <xTaskResumeAll>
10002d9e:	2800      	cmp	r0, #0
10002da0:	d1e4      	bne.n	10002d6c <xTaskDelayUntil+0x24>
10002da2:	f001 f803 	bl	10003dac <vPortYield>
10002da6:	e7e1      	b.n	10002d6c <xTaskDelayUntil+0x24>
10002da8:	6a30      	ldr	r0, [r6, #32]
10002daa:	6871      	ldr	r1, [r6, #4]
10002dac:	2501      	movs	r5, #1
10002dae:	3104      	adds	r1, #4
10002db0:	f001 f8ac 	bl	10003f0c <vListInsert>
10002db4:	6a73      	ldr	r3, [r6, #36]	; 0x24
10002db6:	429c      	cmp	r4, r3
10002db8:	d2d4      	bcs.n	10002d64 <xTaskDelayUntil+0x1c>
10002dba:	6274      	str	r4, [r6, #36]	; 0x24
10002dbc:	e7d2      	b.n	10002d64 <xTaskDelayUntil+0x1c>
10002dbe:	46c0      	nop			; (mov r8, r8)
10002dc0:	20000e9c 	.word	0x20000e9c

10002dc4 <vTaskDelay>:
10002dc4:	b570      	push	{r4, r5, r6, lr}
10002dc6:	1e04      	subs	r4, r0, #0
10002dc8:	d016      	beq.n	10002df8 <vTaskDelay+0x34>
10002dca:	4d12      	ldr	r5, [pc, #72]	; (10002e14 <vTaskDelay+0x50>)
10002dcc:	6fab      	ldr	r3, [r5, #120]	; 0x78
10002dce:	3301      	adds	r3, #1
10002dd0:	67ab      	str	r3, [r5, #120]	; 0x78
10002dd2:	682e      	ldr	r6, [r5, #0]
10002dd4:	6868      	ldr	r0, [r5, #4]
10002dd6:	19a4      	adds	r4, r4, r6
10002dd8:	3004      	adds	r0, #4
10002dda:	f001 f8af 	bl	10003f3c <uxListRemove>
10002dde:	686b      	ldr	r3, [r5, #4]
10002de0:	605c      	str	r4, [r3, #4]
10002de2:	42a6      	cmp	r6, r4
10002de4:	d90b      	bls.n	10002dfe <vTaskDelay+0x3a>
10002de6:	69e8      	ldr	r0, [r5, #28]
10002de8:	6869      	ldr	r1, [r5, #4]
10002dea:	3104      	adds	r1, #4
10002dec:	f001 f88e 	bl	10003f0c <vListInsert>
10002df0:	f7ff ff10 	bl	10002c14 <xTaskResumeAll>
10002df4:	2800      	cmp	r0, #0
10002df6:	d101      	bne.n	10002dfc <vTaskDelay+0x38>
10002df8:	f000 ffd8 	bl	10003dac <vPortYield>
10002dfc:	bd70      	pop	{r4, r5, r6, pc}
10002dfe:	6a28      	ldr	r0, [r5, #32]
10002e00:	6869      	ldr	r1, [r5, #4]
10002e02:	3104      	adds	r1, #4
10002e04:	f001 f882 	bl	10003f0c <vListInsert>
10002e08:	6a6b      	ldr	r3, [r5, #36]	; 0x24
10002e0a:	429c      	cmp	r4, r3
10002e0c:	d2f0      	bcs.n	10002df0 <vTaskDelay+0x2c>
10002e0e:	626c      	str	r4, [r5, #36]	; 0x24
10002e10:	e7ee      	b.n	10002df0 <vTaskDelay+0x2c>
10002e12:	46c0      	nop			; (mov r8, r8)
10002e14:	20000e9c 	.word	0x20000e9c

10002e18 <xTaskGetTickCount>:
10002e18:	4b01      	ldr	r3, [pc, #4]	; (10002e20 <xTaskGetTickCount+0x8>)
10002e1a:	6818      	ldr	r0, [r3, #0]
10002e1c:	4770      	bx	lr
10002e1e:	46c0      	nop			; (mov r8, r8)
10002e20:	20000e9c 	.word	0x20000e9c

10002e24 <xTaskGetTickCountFromISR>:
10002e24:	4b01      	ldr	r3, [pc, #4]	; (10002e2c <xTaskGetTickCountFromISR+0x8>)
10002e26:	6818      	ldr	r0, [r3, #0]
10002e28:	4770      	bx	lr
10002e2a:	46c0      	nop			; (mov r8, r8)
10002e2c:	20000e9c 	.word	0x20000e9c

10002e30 <uxTaskGetNumberOfTasks>:
10002e30:	4b01      	ldr	r3, [pc, #4]	; (10002e38 <uxTaskGetNumberOfTasks+0x8>)
10002e32:	6998      	ldr	r0, [r3, #24]
10002e34:	4770      	bx	lr
10002e36:	46c0      	nop			; (mov r8, r8)
10002e38:	20000e1c 	.word	0x20000e1c

10002e3c <pcTaskGetName>:
10002e3c:	2800      	cmp	r0, #0
10002e3e:	d001      	beq.n	10002e44 <pcTaskGetName+0x8>
10002e40:	3034      	adds	r0, #52	; 0x34
10002e42:	4770      	bx	lr
10002e44:	4b01      	ldr	r3, [pc, #4]	; (10002e4c <pcTaskGetName+0x10>)
10002e46:	6858      	ldr	r0, [r3, #4]
10002e48:	e7fa      	b.n	10002e40 <pcTaskGetName+0x4>
10002e4a:	46c0      	nop			; (mov r8, r8)
10002e4c:	20000e9c 	.word	0x20000e9c

10002e50 <xTaskCatchUpTicks>:
10002e50:	4a08      	ldr	r2, [pc, #32]	; (10002e74 <xTaskCatchUpTicks+0x24>)
10002e52:	b510      	push	{r4, lr}
10002e54:	6f93      	ldr	r3, [r2, #120]	; 0x78
10002e56:	0004      	movs	r4, r0
10002e58:	3301      	adds	r3, #1
10002e5a:	6793      	str	r3, [r2, #120]	; 0x78
10002e5c:	f000 ffb2 	bl	10003dc4 <vPortEnterCritical>
10002e60:	4b05      	ldr	r3, [pc, #20]	; (10002e78 <xTaskCatchUpTicks+0x28>)
10002e62:	6818      	ldr	r0, [r3, #0]
10002e64:	1900      	adds	r0, r0, r4
10002e66:	6018      	str	r0, [r3, #0]
10002e68:	f000 ffb8 	bl	10003ddc <vPortExitCritical>
10002e6c:	f7ff fed2 	bl	10002c14 <xTaskResumeAll>
10002e70:	bd10      	pop	{r4, pc}
10002e72:	46c0      	nop			; (mov r8, r8)
10002e74:	20000e9c 	.word	0x20000e9c
10002e78:	20000f1c 	.word	0x20000f1c

10002e7c <xTaskIncrementTick>:
10002e7c:	4b06      	ldr	r3, [pc, #24]	; (10002e98 <xTaskIncrementTick+0x1c>)
10002e7e:	b510      	push	{r4, lr}
10002e80:	6f9b      	ldr	r3, [r3, #120]	; 0x78
10002e82:	2b00      	cmp	r3, #0
10002e84:	d102      	bne.n	10002e8c <xTaskIncrementTick+0x10>
10002e86:	f7ff fa5b 	bl	10002340 <xTaskIncrementTick.part.0>
10002e8a:	bd10      	pop	{r4, pc}
10002e8c:	4a03      	ldr	r2, [pc, #12]	; (10002e9c <xTaskIncrementTick+0x20>)
10002e8e:	2000      	movs	r0, #0
10002e90:	6813      	ldr	r3, [r2, #0]
10002e92:	3301      	adds	r3, #1
10002e94:	6013      	str	r3, [r2, #0]
10002e96:	e7f8      	b.n	10002e8a <xTaskIncrementTick+0xe>
10002e98:	20000e9c 	.word	0x20000e9c
10002e9c:	20000f1c 	.word	0x20000f1c

10002ea0 <vTaskSwitchContext>:
10002ea0:	4826      	ldr	r0, [pc, #152]	; (10002f3c <vTaskSwitchContext+0x9c>)
10002ea2:	b530      	push	{r4, r5, lr}
10002ea4:	6f83      	ldr	r3, [r0, #120]	; 0x78
10002ea6:	2b00      	cmp	r3, #0
10002ea8:	d002      	beq.n	10002eb0 <vTaskSwitchContext+0x10>
10002eaa:	2301      	movs	r3, #1
10002eac:	6303      	str	r3, [r0, #48]	; 0x30
10002eae:	bd30      	pop	{r4, r5, pc}
10002eb0:	6303      	str	r3, [r0, #48]	; 0x30
10002eb2:	6ac1      	ldr	r1, [r0, #44]	; 0x2c
10002eb4:	4a22      	ldr	r2, [pc, #136]	; (10002f40 <vTaskSwitchContext+0xa0>)
10002eb6:	008b      	lsls	r3, r1, #2
10002eb8:	185c      	adds	r4, r3, r1
10002eba:	00a4      	lsls	r4, r4, #2
10002ebc:	1914      	adds	r4, r2, r4
10002ebe:	69e4      	ldr	r4, [r4, #28]
10002ec0:	2c00      	cmp	r4, #0
10002ec2:	d125      	bne.n	10002f10 <vTaskSwitchContext+0x70>
10002ec4:	1e4d      	subs	r5, r1, #1
10002ec6:	00ab      	lsls	r3, r5, #2
10002ec8:	195c      	adds	r4, r3, r5
10002eca:	00a4      	lsls	r4, r4, #2
10002ecc:	1914      	adds	r4, r2, r4
10002ece:	69e4      	ldr	r4, [r4, #28]
10002ed0:	2c00      	cmp	r4, #0
10002ed2:	d12b      	bne.n	10002f2c <vTaskSwitchContext+0x8c>
10002ed4:	1e8d      	subs	r5, r1, #2
10002ed6:	00ab      	lsls	r3, r5, #2
10002ed8:	195c      	adds	r4, r3, r5
10002eda:	00a4      	lsls	r4, r4, #2
10002edc:	1914      	adds	r4, r2, r4
10002ede:	69e4      	ldr	r4, [r4, #28]
10002ee0:	2c00      	cmp	r4, #0
10002ee2:	d123      	bne.n	10002f2c <vTaskSwitchContext+0x8c>
10002ee4:	1ecd      	subs	r5, r1, #3
10002ee6:	00ab      	lsls	r3, r5, #2
10002ee8:	195c      	adds	r4, r3, r5
10002eea:	00a4      	lsls	r4, r4, #2
10002eec:	1914      	adds	r4, r2, r4
10002eee:	69e4      	ldr	r4, [r4, #28]
10002ef0:	2c00      	cmp	r4, #0
10002ef2:	d11b      	bne.n	10002f2c <vTaskSwitchContext+0x8c>
10002ef4:	1f0d      	subs	r5, r1, #4
10002ef6:	00ab      	lsls	r3, r5, #2
10002ef8:	195c      	adds	r4, r3, r5
10002efa:	00a4      	lsls	r4, r4, #2
10002efc:	1914      	adds	r4, r2, r4
10002efe:	69e4      	ldr	r4, [r4, #28]
10002f00:	2c00      	cmp	r4, #0
10002f02:	d113      	bne.n	10002f2c <vTaskSwitchContext+0x8c>
10002f04:	3905      	subs	r1, #5
10002f06:	008b      	lsls	r3, r1, #2
10002f08:	185c      	adds	r4, r3, r1
10002f0a:	00a4      	lsls	r4, r4, #2
10002f0c:	1914      	adds	r4, r2, r4
10002f0e:	69e4      	ldr	r4, [r4, #28]
10002f10:	185b      	adds	r3, r3, r1
10002f12:	009b      	lsls	r3, r3, #2
10002f14:	18d5      	adds	r5, r2, r3
10002f16:	002b      	movs	r3, r5
10002f18:	6a2c      	ldr	r4, [r5, #32]
10002f1a:	3324      	adds	r3, #36	; 0x24
10002f1c:	6864      	ldr	r4, [r4, #4]
10002f1e:	622c      	str	r4, [r5, #32]
10002f20:	429c      	cmp	r4, r3
10002f22:	d005      	beq.n	10002f30 <vTaskSwitchContext+0x90>
10002f24:	68e3      	ldr	r3, [r4, #12]
10002f26:	6043      	str	r3, [r0, #4]
10002f28:	62c1      	str	r1, [r0, #44]	; 0x2c
10002f2a:	e7c0      	b.n	10002eae <vTaskSwitchContext+0xe>
10002f2c:	0029      	movs	r1, r5
10002f2e:	e7ef      	b.n	10002f10 <vTaskSwitchContext+0x70>
10002f30:	6aac      	ldr	r4, [r5, #40]	; 0x28
10002f32:	68e3      	ldr	r3, [r4, #12]
10002f34:	622c      	str	r4, [r5, #32]
10002f36:	6043      	str	r3, [r0, #4]
10002f38:	62c1      	str	r1, [r0, #44]	; 0x2c
10002f3a:	e7b8      	b.n	10002eae <vTaskSwitchContext+0xe>
10002f3c:	20000e9c 	.word	0x20000e9c
10002f40:	20000e1c 	.word	0x20000e1c

10002f44 <vTaskPlaceOnEventList>:
10002f44:	b570      	push	{r4, r5, r6, lr}
10002f46:	000d      	movs	r5, r1
10002f48:	4c1a      	ldr	r4, [pc, #104]	; (10002fb4 <vTaskPlaceOnEventList+0x70>)
10002f4a:	6861      	ldr	r1, [r4, #4]
10002f4c:	3118      	adds	r1, #24
10002f4e:	f000 ffdd 	bl	10003f0c <vListInsert>
10002f52:	6826      	ldr	r6, [r4, #0]
10002f54:	6860      	ldr	r0, [r4, #4]
10002f56:	3004      	adds	r0, #4
10002f58:	f000 fff0 	bl	10003f3c <uxListRemove>
10002f5c:	1c6b      	adds	r3, r5, #1
10002f5e:	d014      	beq.n	10002f8a <vTaskPlaceOnEventList+0x46>
10002f60:	6863      	ldr	r3, [r4, #4]
10002f62:	19ad      	adds	r5, r5, r6
10002f64:	605d      	str	r5, [r3, #4]
10002f66:	42ae      	cmp	r6, r5
10002f68:	d905      	bls.n	10002f76 <vTaskPlaceOnEventList+0x32>
10002f6a:	69e0      	ldr	r0, [r4, #28]
10002f6c:	6861      	ldr	r1, [r4, #4]
10002f6e:	3104      	adds	r1, #4
10002f70:	f000 ffcc 	bl	10003f0c <vListInsert>
10002f74:	bd70      	pop	{r4, r5, r6, pc}
10002f76:	6a20      	ldr	r0, [r4, #32]
10002f78:	6861      	ldr	r1, [r4, #4]
10002f7a:	3104      	adds	r1, #4
10002f7c:	f000 ffc6 	bl	10003f0c <vListInsert>
10002f80:	6a63      	ldr	r3, [r4, #36]	; 0x24
10002f82:	429d      	cmp	r5, r3
10002f84:	d2f6      	bcs.n	10002f74 <vTaskPlaceOnEventList+0x30>
10002f86:	6265      	str	r5, [r4, #36]	; 0x24
10002f88:	e7f4      	b.n	10002f74 <vTaskPlaceOnEventList+0x30>
10002f8a:	6862      	ldr	r2, [r4, #4]
10002f8c:	68e3      	ldr	r3, [r4, #12]
10002f8e:	6899      	ldr	r1, [r3, #8]
10002f90:	6093      	str	r3, [r2, #8]
10002f92:	6862      	ldr	r2, [r4, #4]
10002f94:	60d1      	str	r1, [r2, #12]
10002f96:	6862      	ldr	r2, [r4, #4]
10002f98:	6899      	ldr	r1, [r3, #8]
10002f9a:	3204      	adds	r2, #4
10002f9c:	604a      	str	r2, [r1, #4]
10002f9e:	6862      	ldr	r2, [r4, #4]
10002fa0:	3204      	adds	r2, #4
10002fa2:	609a      	str	r2, [r3, #8]
10002fa4:	0022      	movs	r2, r4
10002fa6:	6863      	ldr	r3, [r4, #4]
10002fa8:	3208      	adds	r2, #8
10002faa:	615a      	str	r2, [r3, #20]
10002fac:	68a3      	ldr	r3, [r4, #8]
10002fae:	3301      	adds	r3, #1
10002fb0:	60a3      	str	r3, [r4, #8]
10002fb2:	e7df      	b.n	10002f74 <vTaskPlaceOnEventList+0x30>
10002fb4:	20000e9c 	.word	0x20000e9c

10002fb8 <vTaskPlaceOnUnorderedEventList>:
10002fb8:	2380      	movs	r3, #128	; 0x80
10002fba:	b570      	push	{r4, r5, r6, lr}
10002fbc:	0015      	movs	r5, r2
10002fbe:	4c24      	ldr	r4, [pc, #144]	; (10003050 <vTaskPlaceOnUnorderedEventList+0x98>)
10002fc0:	061b      	lsls	r3, r3, #24
10002fc2:	6862      	ldr	r2, [r4, #4]
10002fc4:	430b      	orrs	r3, r1
10002fc6:	6193      	str	r3, [r2, #24]
10002fc8:	6843      	ldr	r3, [r0, #4]
10002fca:	6862      	ldr	r2, [r4, #4]
10002fcc:	6899      	ldr	r1, [r3, #8]
10002fce:	61d3      	str	r3, [r2, #28]
10002fd0:	6862      	ldr	r2, [r4, #4]
10002fd2:	6211      	str	r1, [r2, #32]
10002fd4:	6862      	ldr	r2, [r4, #4]
10002fd6:	6899      	ldr	r1, [r3, #8]
10002fd8:	3218      	adds	r2, #24
10002fda:	604a      	str	r2, [r1, #4]
10002fdc:	6862      	ldr	r2, [r4, #4]
10002fde:	3218      	adds	r2, #24
10002fe0:	609a      	str	r2, [r3, #8]
10002fe2:	6863      	ldr	r3, [r4, #4]
10002fe4:	6298      	str	r0, [r3, #40]	; 0x28
10002fe6:	6803      	ldr	r3, [r0, #0]
10002fe8:	3301      	adds	r3, #1
10002fea:	6003      	str	r3, [r0, #0]
10002fec:	6826      	ldr	r6, [r4, #0]
10002fee:	6860      	ldr	r0, [r4, #4]
10002ff0:	3004      	adds	r0, #4
10002ff2:	f000 ffa3 	bl	10003f3c <uxListRemove>
10002ff6:	1c6b      	adds	r3, r5, #1
10002ff8:	d014      	beq.n	10003024 <vTaskPlaceOnUnorderedEventList+0x6c>
10002ffa:	6863      	ldr	r3, [r4, #4]
10002ffc:	19ad      	adds	r5, r5, r6
10002ffe:	605d      	str	r5, [r3, #4]
10003000:	42ae      	cmp	r6, r5
10003002:	d905      	bls.n	10003010 <vTaskPlaceOnUnorderedEventList+0x58>
10003004:	69e0      	ldr	r0, [r4, #28]
10003006:	6861      	ldr	r1, [r4, #4]
10003008:	3104      	adds	r1, #4
1000300a:	f000 ff7f 	bl	10003f0c <vListInsert>
1000300e:	bd70      	pop	{r4, r5, r6, pc}
10003010:	6a20      	ldr	r0, [r4, #32]
10003012:	6861      	ldr	r1, [r4, #4]
10003014:	3104      	adds	r1, #4
10003016:	f000 ff79 	bl	10003f0c <vListInsert>
1000301a:	6a63      	ldr	r3, [r4, #36]	; 0x24
1000301c:	429d      	cmp	r5, r3
1000301e:	d2f6      	bcs.n	1000300e <vTaskPlaceOnUnorderedEventList+0x56>
10003020:	6265      	str	r5, [r4, #36]	; 0x24
10003022:	e7f4      	b.n	1000300e <vTaskPlaceOnUnorderedEventList+0x56>
10003024:	6862      	ldr	r2, [r4, #4]
10003026:	68e3      	ldr	r3, [r4, #12]
10003028:	6899      	ldr	r1, [r3, #8]
1000302a:	6093      	str	r3, [r2, #8]
1000302c:	6862      	ldr	r2, [r4, #4]
1000302e:	60d1      	str	r1, [r2, #12]
10003030:	6862      	ldr	r2, [r4, #4]
10003032:	6899      	ldr	r1, [r3, #8]
10003034:	3204      	adds	r2, #4
10003036:	604a      	str	r2, [r1, #4]
10003038:	6862      	ldr	r2, [r4, #4]
1000303a:	3204      	adds	r2, #4
1000303c:	609a      	str	r2, [r3, #8]
1000303e:	0022      	movs	r2, r4
10003040:	6863      	ldr	r3, [r4, #4]
10003042:	3208      	adds	r2, #8
10003044:	615a      	str	r2, [r3, #20]
10003046:	68a3      	ldr	r3, [r4, #8]
10003048:	3301      	adds	r3, #1
1000304a:	60a3      	str	r3, [r4, #8]
1000304c:	e7df      	b.n	1000300e <vTaskPlaceOnUnorderedEventList+0x56>
1000304e:	46c0      	nop			; (mov r8, r8)
10003050:	20000e9c 	.word	0x20000e9c

10003054 <vTaskPlaceOnEventListRestricted>:
10003054:	b570      	push	{r4, r5, r6, lr}
10003056:	4c25      	ldr	r4, [pc, #148]	; (100030ec <vTaskPlaceOnEventListRestricted+0x98>)
10003058:	6843      	ldr	r3, [r0, #4]
1000305a:	000d      	movs	r5, r1
1000305c:	6861      	ldr	r1, [r4, #4]
1000305e:	689e      	ldr	r6, [r3, #8]
10003060:	61cb      	str	r3, [r1, #28]
10003062:	6861      	ldr	r1, [r4, #4]
10003064:	620e      	str	r6, [r1, #32]
10003066:	6861      	ldr	r1, [r4, #4]
10003068:	689e      	ldr	r6, [r3, #8]
1000306a:	3118      	adds	r1, #24
1000306c:	6071      	str	r1, [r6, #4]
1000306e:	6861      	ldr	r1, [r4, #4]
10003070:	3118      	adds	r1, #24
10003072:	6099      	str	r1, [r3, #8]
10003074:	6863      	ldr	r3, [r4, #4]
10003076:	6298      	str	r0, [r3, #40]	; 0x28
10003078:	6803      	ldr	r3, [r0, #0]
1000307a:	3301      	adds	r3, #1
1000307c:	6003      	str	r3, [r0, #0]
1000307e:	2a00      	cmp	r2, #0
10003080:	d019      	beq.n	100030b6 <vTaskPlaceOnEventListRestricted+0x62>
10003082:	6823      	ldr	r3, [r4, #0]
10003084:	6860      	ldr	r0, [r4, #4]
10003086:	3004      	adds	r0, #4
10003088:	f000 ff58 	bl	10003f3c <uxListRemove>
1000308c:	6862      	ldr	r2, [r4, #4]
1000308e:	68e3      	ldr	r3, [r4, #12]
10003090:	6899      	ldr	r1, [r3, #8]
10003092:	6093      	str	r3, [r2, #8]
10003094:	6862      	ldr	r2, [r4, #4]
10003096:	60d1      	str	r1, [r2, #12]
10003098:	6862      	ldr	r2, [r4, #4]
1000309a:	6899      	ldr	r1, [r3, #8]
1000309c:	3204      	adds	r2, #4
1000309e:	604a      	str	r2, [r1, #4]
100030a0:	6862      	ldr	r2, [r4, #4]
100030a2:	3204      	adds	r2, #4
100030a4:	609a      	str	r2, [r3, #8]
100030a6:	0022      	movs	r2, r4
100030a8:	6863      	ldr	r3, [r4, #4]
100030aa:	3208      	adds	r2, #8
100030ac:	615a      	str	r2, [r3, #20]
100030ae:	68a3      	ldr	r3, [r4, #8]
100030b0:	3301      	adds	r3, #1
100030b2:	60a3      	str	r3, [r4, #8]
100030b4:	bd70      	pop	{r4, r5, r6, pc}
100030b6:	6826      	ldr	r6, [r4, #0]
100030b8:	6860      	ldr	r0, [r4, #4]
100030ba:	19ad      	adds	r5, r5, r6
100030bc:	3004      	adds	r0, #4
100030be:	f000 ff3d 	bl	10003f3c <uxListRemove>
100030c2:	6863      	ldr	r3, [r4, #4]
100030c4:	605d      	str	r5, [r3, #4]
100030c6:	42ae      	cmp	r6, r5
100030c8:	d809      	bhi.n	100030de <vTaskPlaceOnEventListRestricted+0x8a>
100030ca:	6a20      	ldr	r0, [r4, #32]
100030cc:	6861      	ldr	r1, [r4, #4]
100030ce:	3104      	adds	r1, #4
100030d0:	f000 ff1c 	bl	10003f0c <vListInsert>
100030d4:	6a63      	ldr	r3, [r4, #36]	; 0x24
100030d6:	429d      	cmp	r5, r3
100030d8:	d2ec      	bcs.n	100030b4 <vTaskPlaceOnEventListRestricted+0x60>
100030da:	6265      	str	r5, [r4, #36]	; 0x24
100030dc:	e7ea      	b.n	100030b4 <vTaskPlaceOnEventListRestricted+0x60>
100030de:	69e0      	ldr	r0, [r4, #28]
100030e0:	6861      	ldr	r1, [r4, #4]
100030e2:	3104      	adds	r1, #4
100030e4:	f000 ff12 	bl	10003f0c <vListInsert>
100030e8:	e7e4      	b.n	100030b4 <vTaskPlaceOnEventListRestricted+0x60>
100030ea:	46c0      	nop			; (mov r8, r8)
100030ec:	20000e9c 	.word	0x20000e9c

100030f0 <xTaskRemoveFromEventList>:
100030f0:	68c3      	ldr	r3, [r0, #12]
100030f2:	b5f0      	push	{r4, r5, r6, r7, lr}
100030f4:	68db      	ldr	r3, [r3, #12]
100030f6:	69d8      	ldr	r0, [r3, #28]
100030f8:	6a19      	ldr	r1, [r3, #32]
100030fa:	6a9a      	ldr	r2, [r3, #40]	; 0x28
100030fc:	6081      	str	r1, [r0, #8]
100030fe:	6048      	str	r0, [r1, #4]
10003100:	0018      	movs	r0, r3
10003102:	6854      	ldr	r4, [r2, #4]
10003104:	3018      	adds	r0, #24
10003106:	4284      	cmp	r4, r0
10003108:	d047      	beq.n	1000319a <xTaskRemoveFromEventList+0xaa>
1000310a:	2100      	movs	r1, #0
1000310c:	6299      	str	r1, [r3, #40]	; 0x28
1000310e:	6811      	ldr	r1, [r2, #0]
10003110:	3901      	subs	r1, #1
10003112:	6011      	str	r1, [r2, #0]
10003114:	4a26      	ldr	r2, [pc, #152]	; (100031b0 <xTaskRemoveFromEventList+0xc0>)
10003116:	6f91      	ldr	r1, [r2, #120]	; 0x78
10003118:	2900      	cmp	r1, #0
1000311a:	d12d      	bne.n	10003178 <xTaskRemoveFromEventList+0x88>
1000311c:	6898      	ldr	r0, [r3, #8]
1000311e:	68dc      	ldr	r4, [r3, #12]
10003120:	6959      	ldr	r1, [r3, #20]
10003122:	6084      	str	r4, [r0, #8]
10003124:	68dc      	ldr	r4, [r3, #12]
10003126:	1d1f      	adds	r7, r3, #4
10003128:	6060      	str	r0, [r4, #4]
1000312a:	6848      	ldr	r0, [r1, #4]
1000312c:	42b8      	cmp	r0, r7
1000312e:	d036      	beq.n	1000319e <xTaskRemoveFromEventList+0xae>
10003130:	6808      	ldr	r0, [r1, #0]
10003132:	3801      	subs	r0, #1
10003134:	6008      	str	r0, [r1, #0]
10003136:	6ad0      	ldr	r0, [r2, #44]	; 0x2c
10003138:	6ad9      	ldr	r1, [r3, #44]	; 0x2c
1000313a:	4281      	cmp	r1, r0
1000313c:	d82b      	bhi.n	10003196 <xTaskRemoveFromEventList+0xa6>
1000313e:	481d      	ldr	r0, [pc, #116]	; (100031b4 <xTaskRemoveFromEventList+0xc4>)
10003140:	008c      	lsls	r4, r1, #2
10003142:	4684      	mov	ip, r0
10003144:	1864      	adds	r4, r4, r1
10003146:	00a4      	lsls	r4, r4, #2
10003148:	1906      	adds	r6, r0, r4
1000314a:	6a35      	ldr	r5, [r6, #32]
1000314c:	68a8      	ldr	r0, [r5, #8]
1000314e:	609d      	str	r5, [r3, #8]
10003150:	60d8      	str	r0, [r3, #12]
10003152:	68a8      	ldr	r0, [r5, #8]
10003154:	6047      	str	r7, [r0, #4]
10003156:	4660      	mov	r0, ip
10003158:	301c      	adds	r0, #28
1000315a:	1900      	adds	r0, r0, r4
1000315c:	60af      	str	r7, [r5, #8]
1000315e:	6158      	str	r0, [r3, #20]
10003160:	69f3      	ldr	r3, [r6, #28]
10003162:	3301      	adds	r3, #1
10003164:	61f3      	str	r3, [r6, #28]
10003166:	6853      	ldr	r3, [r2, #4]
10003168:	2000      	movs	r0, #0
1000316a:	6adb      	ldr	r3, [r3, #44]	; 0x2c
1000316c:	428b      	cmp	r3, r1
1000316e:	d202      	bcs.n	10003176 <xTaskRemoveFromEventList+0x86>
10003170:	2301      	movs	r3, #1
10003172:	3001      	adds	r0, #1
10003174:	6313      	str	r3, [r2, #48]	; 0x30
10003176:	bdf0      	pop	{r4, r5, r6, r7, pc}
10003178:	6e11      	ldr	r1, [r2, #96]	; 0x60
1000317a:	688c      	ldr	r4, [r1, #8]
1000317c:	61d9      	str	r1, [r3, #28]
1000317e:	621c      	str	r4, [r3, #32]
10003180:	688c      	ldr	r4, [r1, #8]
10003182:	6060      	str	r0, [r4, #4]
10003184:	6088      	str	r0, [r1, #8]
10003186:	0011      	movs	r1, r2
10003188:	315c      	adds	r1, #92	; 0x5c
1000318a:	6299      	str	r1, [r3, #40]	; 0x28
1000318c:	6dd1      	ldr	r1, [r2, #92]	; 0x5c
1000318e:	3101      	adds	r1, #1
10003190:	65d1      	str	r1, [r2, #92]	; 0x5c
10003192:	6ad9      	ldr	r1, [r3, #44]	; 0x2c
10003194:	e7e7      	b.n	10003166 <xTaskRemoveFromEventList+0x76>
10003196:	62d1      	str	r1, [r2, #44]	; 0x2c
10003198:	e7d1      	b.n	1000313e <xTaskRemoveFromEventList+0x4e>
1000319a:	6051      	str	r1, [r2, #4]
1000319c:	e7b5      	b.n	1000310a <xTaskRemoveFromEventList+0x1a>
1000319e:	6808      	ldr	r0, [r1, #0]
100031a0:	604c      	str	r4, [r1, #4]
100031a2:	3801      	subs	r0, #1
100031a4:	6008      	str	r0, [r1, #0]
100031a6:	6ad0      	ldr	r0, [r2, #44]	; 0x2c
100031a8:	6ad9      	ldr	r1, [r3, #44]	; 0x2c
100031aa:	4281      	cmp	r1, r0
100031ac:	d9c7      	bls.n	1000313e <xTaskRemoveFromEventList+0x4e>
100031ae:	e7f2      	b.n	10003196 <xTaskRemoveFromEventList+0xa6>
100031b0:	20000e9c 	.word	0x20000e9c
100031b4:	20000e1c 	.word	0x20000e1c

100031b8 <vTaskRemoveFromUnorderedEventList>:
100031b8:	2380      	movs	r3, #128	; 0x80
100031ba:	061b      	lsls	r3, r3, #24
100031bc:	b5f0      	push	{r4, r5, r6, r7, lr}
100031be:	430b      	orrs	r3, r1
100031c0:	6884      	ldr	r4, [r0, #8]
100031c2:	6841      	ldr	r1, [r0, #4]
100031c4:	6902      	ldr	r2, [r0, #16]
100031c6:	6003      	str	r3, [r0, #0]
100031c8:	68c3      	ldr	r3, [r0, #12]
100031ca:	608c      	str	r4, [r1, #8]
100031cc:	6884      	ldr	r4, [r0, #8]
100031ce:	6061      	str	r1, [r4, #4]
100031d0:	6851      	ldr	r1, [r2, #4]
100031d2:	4281      	cmp	r1, r0
100031d4:	d032      	beq.n	1000323c <vTaskRemoveFromUnorderedEventList+0x84>
100031d6:	2100      	movs	r1, #0
100031d8:	6101      	str	r1, [r0, #16]
100031da:	6811      	ldr	r1, [r2, #0]
100031dc:	68d8      	ldr	r0, [r3, #12]
100031de:	3901      	subs	r1, #1
100031e0:	6011      	str	r1, [r2, #0]
100031e2:	6899      	ldr	r1, [r3, #8]
100031e4:	695a      	ldr	r2, [r3, #20]
100031e6:	6088      	str	r0, [r1, #8]
100031e8:	68d8      	ldr	r0, [r3, #12]
100031ea:	1d1f      	adds	r7, r3, #4
100031ec:	6041      	str	r1, [r0, #4]
100031ee:	6851      	ldr	r1, [r2, #4]
100031f0:	42b9      	cmp	r1, r7
100031f2:	d025      	beq.n	10003240 <vTaskRemoveFromUnorderedEventList+0x88>
100031f4:	6811      	ldr	r1, [r2, #0]
100031f6:	4d13      	ldr	r5, [pc, #76]	; (10003244 <vTaskRemoveFromUnorderedEventList+0x8c>)
100031f8:	3901      	subs	r1, #1
100031fa:	6011      	str	r1, [r2, #0]
100031fc:	6ad8      	ldr	r0, [r3, #44]	; 0x2c
100031fe:	6aea      	ldr	r2, [r5, #44]	; 0x2c
10003200:	4290      	cmp	r0, r2
10003202:	d900      	bls.n	10003206 <vTaskRemoveFromUnorderedEventList+0x4e>
10003204:	62e8      	str	r0, [r5, #44]	; 0x2c
10003206:	4a10      	ldr	r2, [pc, #64]	; (10003248 <vTaskRemoveFromUnorderedEventList+0x90>)
10003208:	0081      	lsls	r1, r0, #2
1000320a:	4694      	mov	ip, r2
1000320c:	1809      	adds	r1, r1, r0
1000320e:	0089      	lsls	r1, r1, #2
10003210:	1856      	adds	r6, r2, r1
10003212:	6a34      	ldr	r4, [r6, #32]
10003214:	68a2      	ldr	r2, [r4, #8]
10003216:	609c      	str	r4, [r3, #8]
10003218:	60da      	str	r2, [r3, #12]
1000321a:	68a2      	ldr	r2, [r4, #8]
1000321c:	6057      	str	r7, [r2, #4]
1000321e:	4662      	mov	r2, ip
10003220:	321c      	adds	r2, #28
10003222:	1852      	adds	r2, r2, r1
10003224:	60a7      	str	r7, [r4, #8]
10003226:	615a      	str	r2, [r3, #20]
10003228:	69f3      	ldr	r3, [r6, #28]
1000322a:	3301      	adds	r3, #1
1000322c:	61f3      	str	r3, [r6, #28]
1000322e:	686b      	ldr	r3, [r5, #4]
10003230:	6adb      	ldr	r3, [r3, #44]	; 0x2c
10003232:	4298      	cmp	r0, r3
10003234:	d901      	bls.n	1000323a <vTaskRemoveFromUnorderedEventList+0x82>
10003236:	2301      	movs	r3, #1
10003238:	632b      	str	r3, [r5, #48]	; 0x30
1000323a:	bdf0      	pop	{r4, r5, r6, r7, pc}
1000323c:	6054      	str	r4, [r2, #4]
1000323e:	e7ca      	b.n	100031d6 <vTaskRemoveFromUnorderedEventList+0x1e>
10003240:	6050      	str	r0, [r2, #4]
10003242:	e7d7      	b.n	100031f4 <vTaskRemoveFromUnorderedEventList+0x3c>
10003244:	20000e9c 	.word	0x20000e9c
10003248:	20000e1c 	.word	0x20000e1c

1000324c <vTaskSetTimeOutState>:
1000324c:	b510      	push	{r4, lr}
1000324e:	0004      	movs	r4, r0
10003250:	f000 fdb8 	bl	10003dc4 <vPortEnterCritical>
10003254:	4b03      	ldr	r3, [pc, #12]	; (10003264 <vTaskSetTimeOutState+0x18>)
10003256:	6a9a      	ldr	r2, [r3, #40]	; 0x28
10003258:	681b      	ldr	r3, [r3, #0]
1000325a:	6022      	str	r2, [r4, #0]
1000325c:	6063      	str	r3, [r4, #4]
1000325e:	f000 fdbd 	bl	10003ddc <vPortExitCritical>
10003262:	bd10      	pop	{r4, pc}
10003264:	20000e9c 	.word	0x20000e9c

10003268 <vTaskInternalSetTimeOutState>:
10003268:	4b02      	ldr	r3, [pc, #8]	; (10003274 <vTaskInternalSetTimeOutState+0xc>)
1000326a:	6a9a      	ldr	r2, [r3, #40]	; 0x28
1000326c:	681b      	ldr	r3, [r3, #0]
1000326e:	6002      	str	r2, [r0, #0]
10003270:	6043      	str	r3, [r0, #4]
10003272:	4770      	bx	lr
10003274:	20000e9c 	.word	0x20000e9c

10003278 <xTaskCheckForTimeOut>:
10003278:	b5f8      	push	{r3, r4, r5, r6, r7, lr}
1000327a:	000d      	movs	r5, r1
1000327c:	0004      	movs	r4, r0
1000327e:	f000 fda1 	bl	10003dc4 <vPortEnterCritical>
10003282:	4a10      	ldr	r2, [pc, #64]	; (100032c4 <xTaskCheckForTimeOut+0x4c>)
10003284:	682b      	ldr	r3, [r5, #0]
10003286:	6811      	ldr	r1, [r2, #0]
10003288:	1c58      	adds	r0, r3, #1
1000328a:	d019      	beq.n	100032c0 <xTaskCheckForTimeOut+0x48>
1000328c:	6a96      	ldr	r6, [r2, #40]	; 0x28
1000328e:	6827      	ldr	r7, [r4, #0]
10003290:	6860      	ldr	r0, [r4, #4]
10003292:	42b7      	cmp	r7, r6
10003294:	d008      	beq.n	100032a8 <xTaskCheckForTimeOut+0x30>
10003296:	4288      	cmp	r0, r1
10003298:	d806      	bhi.n	100032a8 <xTaskCheckForTimeOut+0x30>
1000329a:	2300      	movs	r3, #0
1000329c:	2401      	movs	r4, #1
1000329e:	602b      	str	r3, [r5, #0]
100032a0:	f000 fd9c 	bl	10003ddc <vPortExitCritical>
100032a4:	0020      	movs	r0, r4
100032a6:	bdf8      	pop	{r3, r4, r5, r6, r7, pc}
100032a8:	1a0e      	subs	r6, r1, r0
100032aa:	42b3      	cmp	r3, r6
100032ac:	d9f5      	bls.n	1000329a <xTaskCheckForTimeOut+0x22>
100032ae:	1a5b      	subs	r3, r3, r1
100032b0:	181b      	adds	r3, r3, r0
100032b2:	602b      	str	r3, [r5, #0]
100032b4:	6a93      	ldr	r3, [r2, #40]	; 0x28
100032b6:	6023      	str	r3, [r4, #0]
100032b8:	6813      	ldr	r3, [r2, #0]
100032ba:	6063      	str	r3, [r4, #4]
100032bc:	2400      	movs	r4, #0
100032be:	e7ef      	b.n	100032a0 <xTaskCheckForTimeOut+0x28>
100032c0:	2400      	movs	r4, #0
100032c2:	e7ed      	b.n	100032a0 <xTaskCheckForTimeOut+0x28>
100032c4:	20000e9c 	.word	0x20000e9c

100032c8 <vTaskMissedYield>:
100032c8:	2201      	movs	r2, #1
100032ca:	4b01      	ldr	r3, [pc, #4]	; (100032d0 <vTaskMissedYield+0x8>)
100032cc:	631a      	str	r2, [r3, #48]	; 0x30
100032ce:	4770      	bx	lr
100032d0:	20000e9c 	.word	0x20000e9c

100032d4 <vTaskSetThreadLocalStoragePointer>:
100032d4:	2904      	cmp	r1, #4
100032d6:	d805      	bhi.n	100032e4 <vTaskSetThreadLocalStoragePointer+0x10>
100032d8:	2800      	cmp	r0, #0
100032da:	d004      	beq.n	100032e6 <vTaskSetThreadLocalStoragePointer+0x12>
100032dc:	3110      	adds	r1, #16
100032de:	0089      	lsls	r1, r1, #2
100032e0:	1841      	adds	r1, r0, r1
100032e2:	604a      	str	r2, [r1, #4]
100032e4:	4770      	bx	lr
100032e6:	4b01      	ldr	r3, [pc, #4]	; (100032ec <vTaskSetThreadLocalStoragePointer+0x18>)
100032e8:	6858      	ldr	r0, [r3, #4]
100032ea:	e7f7      	b.n	100032dc <vTaskSetThreadLocalStoragePointer+0x8>
100032ec:	20000e9c 	.word	0x20000e9c

100032f0 <pvTaskGetThreadLocalStoragePointer>:
100032f0:	2904      	cmp	r1, #4
100032f2:	d809      	bhi.n	10003308 <pvTaskGetThreadLocalStoragePointer+0x18>
100032f4:	2800      	cmp	r0, #0
100032f6:	d004      	beq.n	10003302 <pvTaskGetThreadLocalStoragePointer+0x12>
100032f8:	3110      	adds	r1, #16
100032fa:	0089      	lsls	r1, r1, #2
100032fc:	1841      	adds	r1, r0, r1
100032fe:	6848      	ldr	r0, [r1, #4]
10003300:	4770      	bx	lr
10003302:	4b02      	ldr	r3, [pc, #8]	; (1000330c <pvTaskGetThreadLocalStoragePointer+0x1c>)
10003304:	6858      	ldr	r0, [r3, #4]
10003306:	e7f7      	b.n	100032f8 <pvTaskGetThreadLocalStoragePointer+0x8>
10003308:	2000      	movs	r0, #0
1000330a:	e7f9      	b.n	10003300 <pvTaskGetThreadLocalStoragePointer+0x10>
1000330c:	20000e9c 	.word	0x20000e9c

10003310 <xTaskGetCurrentTaskHandle>:
10003310:	4b01      	ldr	r3, [pc, #4]	; (10003318 <xTaskGetCurrentTaskHandle+0x8>)
10003312:	6858      	ldr	r0, [r3, #4]
10003314:	4770      	bx	lr
10003316:	46c0      	nop			; (mov r8, r8)
10003318:	20000e9c 	.word	0x20000e9c

1000331c <xTaskGetSchedulerState>:
1000331c:	4b04      	ldr	r3, [pc, #16]	; (10003330 <xTaskGetSchedulerState+0x14>)
1000331e:	2001      	movs	r0, #1
10003320:	6f1a      	ldr	r2, [r3, #112]	; 0x70
10003322:	2a00      	cmp	r2, #0
10003324:	d003      	beq.n	1000332e <xTaskGetSchedulerState+0x12>
10003326:	6f98      	ldr	r0, [r3, #120]	; 0x78
10003328:	4243      	negs	r3, r0
1000332a:	4158      	adcs	r0, r3
1000332c:	0040      	lsls	r0, r0, #1
1000332e:	4770      	bx	lr
10003330:	20000e9c 	.word	0x20000e9c

10003334 <uxTaskResetEventItemValue>:
10003334:	4b04      	ldr	r3, [pc, #16]	; (10003348 <uxTaskResetEventItemValue+0x14>)
10003336:	685a      	ldr	r2, [r3, #4]
10003338:	6859      	ldr	r1, [r3, #4]
1000333a:	6990      	ldr	r0, [r2, #24]
1000333c:	685a      	ldr	r2, [r3, #4]
1000333e:	2305      	movs	r3, #5
10003340:	6ac9      	ldr	r1, [r1, #44]	; 0x2c
10003342:	1a5b      	subs	r3, r3, r1
10003344:	6193      	str	r3, [r2, #24]
10003346:	4770      	bx	lr
10003348:	20000e9c 	.word	0x20000e9c

1000334c <ulTaskGenericNotifyTake>:
1000334c:	b5f0      	push	{r4, r5, r6, r7, lr}
1000334e:	0004      	movs	r4, r0
10003350:	46c6      	mov	lr, r8
10003352:	0025      	movs	r5, r4
10003354:	b500      	push	{lr}
10003356:	0017      	movs	r7, r2
10003358:	4688      	mov	r8, r1
1000335a:	f000 fd33 	bl	10003dc4 <vPortEnterCritical>
1000335e:	4e19      	ldr	r6, [pc, #100]	; (100033c4 <ulTaskGenericNotifyTake+0x78>)
10003360:	3516      	adds	r5, #22
10003362:	6873      	ldr	r3, [r6, #4]
10003364:	00aa      	lsls	r2, r5, #2
10003366:	58d3      	ldr	r3, [r2, r3]
10003368:	2b00      	cmp	r3, #0
1000336a:	d106      	bne.n	1000337a <ulTaskGenericNotifyTake+0x2e>
1000336c:	2201      	movs	r2, #1
1000336e:	6873      	ldr	r3, [r6, #4]
10003370:	191b      	adds	r3, r3, r4
10003372:	3364      	adds	r3, #100	; 0x64
10003374:	701a      	strb	r2, [r3, #0]
10003376:	2f00      	cmp	r7, #0
10003378:	d11d      	bne.n	100033b6 <ulTaskGenericNotifyTake+0x6a>
1000337a:	f000 fd2f 	bl	10003ddc <vPortExitCritical>
1000337e:	f000 fd21 	bl	10003dc4 <vPortEnterCritical>
10003382:	6873      	ldr	r3, [r6, #4]
10003384:	00ad      	lsls	r5, r5, #2
10003386:	58ef      	ldr	r7, [r5, r3]
10003388:	2f00      	cmp	r7, #0
1000338a:	d005      	beq.n	10003398 <ulTaskGenericNotifyTake+0x4c>
1000338c:	4643      	mov	r3, r8
1000338e:	2b00      	cmp	r3, #0
10003390:	d00d      	beq.n	100033ae <ulTaskGenericNotifyTake+0x62>
10003392:	2200      	movs	r2, #0
10003394:	6873      	ldr	r3, [r6, #4]
10003396:	50ea      	str	r2, [r5, r3]
10003398:	2300      	movs	r3, #0
1000339a:	6870      	ldr	r0, [r6, #4]
1000339c:	1900      	adds	r0, r0, r4
1000339e:	3064      	adds	r0, #100	; 0x64
100033a0:	7003      	strb	r3, [r0, #0]
100033a2:	f000 fd1b 	bl	10003ddc <vPortExitCritical>
100033a6:	0038      	movs	r0, r7
100033a8:	bc80      	pop	{r7}
100033aa:	46b8      	mov	r8, r7
100033ac:	bdf0      	pop	{r4, r5, r6, r7, pc}
100033ae:	6873      	ldr	r3, [r6, #4]
100033b0:	1e7a      	subs	r2, r7, #1
100033b2:	50ea      	str	r2, [r5, r3]
100033b4:	e7f0      	b.n	10003398 <ulTaskGenericNotifyTake+0x4c>
100033b6:	2101      	movs	r1, #1
100033b8:	0038      	movs	r0, r7
100033ba:	f7fe ff87 	bl	100022cc <prvAddCurrentTaskToDelayedList>
100033be:	f000 fcf5 	bl	10003dac <vPortYield>
100033c2:	e7da      	b.n	1000337a <ulTaskGenericNotifyTake+0x2e>
100033c4:	20000e9c 	.word	0x20000e9c

100033c8 <xTaskGenericNotifyWait>:
100033c8:	b5f0      	push	{r4, r5, r6, r7, lr}
100033ca:	46c6      	mov	lr, r8
100033cc:	0004      	movs	r4, r0
100033ce:	b500      	push	{lr}
100033d0:	001f      	movs	r7, r3
100033d2:	4688      	mov	r8, r1
100033d4:	0016      	movs	r6, r2
100033d6:	f000 fcf5 	bl	10003dc4 <vPortEnterCritical>
100033da:	4d21      	ldr	r5, [pc, #132]	; (10003460 <xTaskGenericNotifyWait+0x98>)
100033dc:	6868      	ldr	r0, [r5, #4]
100033de:	1900      	adds	r0, r0, r4
100033e0:	3064      	adds	r0, #100	; 0x64
100033e2:	7803      	ldrb	r3, [r0, #0]
100033e4:	2b02      	cmp	r3, #2
100033e6:	d00e      	beq.n	10003406 <xTaskGenericNotifyWait+0x3e>
100033e8:	4641      	mov	r1, r8
100033ea:	686b      	ldr	r3, [r5, #4]
100033ec:	00a2      	lsls	r2, r4, #2
100033ee:	189b      	adds	r3, r3, r2
100033f0:	6d9a      	ldr	r2, [r3, #88]	; 0x58
100033f2:	438a      	bics	r2, r1
100033f4:	659a      	str	r2, [r3, #88]	; 0x58
100033f6:	2201      	movs	r2, #1
100033f8:	686b      	ldr	r3, [r5, #4]
100033fa:	191b      	adds	r3, r3, r4
100033fc:	3364      	adds	r3, #100	; 0x64
100033fe:	701a      	strb	r2, [r3, #0]
10003400:	9b06      	ldr	r3, [sp, #24]
10003402:	2b00      	cmp	r3, #0
10003404:	d124      	bne.n	10003450 <xTaskGenericNotifyWait+0x88>
10003406:	f000 fce9 	bl	10003ddc <vPortExitCritical>
1000340a:	f000 fcdb 	bl	10003dc4 <vPortEnterCritical>
1000340e:	2f00      	cmp	r7, #0
10003410:	d005      	beq.n	1000341e <xTaskGenericNotifyWait+0x56>
10003412:	0023      	movs	r3, r4
10003414:	686a      	ldr	r2, [r5, #4]
10003416:	3316      	adds	r3, #22
10003418:	009b      	lsls	r3, r3, #2
1000341a:	589b      	ldr	r3, [r3, r2]
1000341c:	603b      	str	r3, [r7, #0]
1000341e:	686b      	ldr	r3, [r5, #4]
10003420:	2700      	movs	r7, #0
10003422:	191b      	adds	r3, r3, r4
10003424:	3364      	adds	r3, #100	; 0x64
10003426:	781b      	ldrb	r3, [r3, #0]
10003428:	2b02      	cmp	r3, #2
1000342a:	d106      	bne.n	1000343a <xTaskGenericNotifyWait+0x72>
1000342c:	686b      	ldr	r3, [r5, #4]
1000342e:	00a2      	lsls	r2, r4, #2
10003430:	189b      	adds	r3, r3, r2
10003432:	6d9a      	ldr	r2, [r3, #88]	; 0x58
10003434:	3701      	adds	r7, #1
10003436:	43b2      	bics	r2, r6
10003438:	659a      	str	r2, [r3, #88]	; 0x58
1000343a:	2300      	movs	r3, #0
1000343c:	6868      	ldr	r0, [r5, #4]
1000343e:	1904      	adds	r4, r0, r4
10003440:	3464      	adds	r4, #100	; 0x64
10003442:	7023      	strb	r3, [r4, #0]
10003444:	f000 fcca 	bl	10003ddc <vPortExitCritical>
10003448:	0038      	movs	r0, r7
1000344a:	bc80      	pop	{r7}
1000344c:	46b8      	mov	r8, r7
1000344e:	bdf0      	pop	{r4, r5, r6, r7, pc}
10003450:	2101      	movs	r1, #1
10003452:	0018      	movs	r0, r3
10003454:	f7fe ff3a 	bl	100022cc <prvAddCurrentTaskToDelayedList>
10003458:	f000 fca8 	bl	10003dac <vPortYield>
1000345c:	e7d3      	b.n	10003406 <xTaskGenericNotifyWait+0x3e>
1000345e:	46c0      	nop			; (mov r8, r8)
10003460:	20000e9c 	.word	0x20000e9c

10003464 <xTaskGenericNotify>:
10003464:	b5f0      	push	{r4, r5, r6, r7, lr}
10003466:	46c6      	mov	lr, r8
10003468:	b500      	push	{lr}
1000346a:	9d06      	ldr	r5, [sp, #24]
1000346c:	0006      	movs	r6, r0
1000346e:	000c      	movs	r4, r1
10003470:	4690      	mov	r8, r2
10003472:	001f      	movs	r7, r3
10003474:	f000 fca6 	bl	10003dc4 <vPortEnterCritical>
10003478:	2d00      	cmp	r5, #0
1000347a:	d004      	beq.n	10003486 <xTaskGenericNotify+0x22>
1000347c:	0023      	movs	r3, r4
1000347e:	3316      	adds	r3, #22
10003480:	009b      	lsls	r3, r3, #2
10003482:	599b      	ldr	r3, [r3, r6]
10003484:	602b      	str	r3, [r5, #0]
10003486:	2302      	movs	r3, #2
10003488:	1931      	adds	r1, r6, r4
1000348a:	3164      	adds	r1, #100	; 0x64
1000348c:	780d      	ldrb	r5, [r1, #0]
1000348e:	700b      	strb	r3, [r1, #0]
10003490:	b2ed      	uxtb	r5, r5
10003492:	2f03      	cmp	r7, #3
10003494:	d016      	beq.n	100034c4 <xTaskGenericNotify+0x60>
10003496:	d811      	bhi.n	100034bc <xTaskGenericNotify+0x58>
10003498:	2f01      	cmp	r7, #1
1000349a:	d046      	beq.n	1000352a <xTaskGenericNotify+0xc6>
1000349c:	2f02      	cmp	r7, #2
1000349e:	d104      	bne.n	100034aa <xTaskGenericNotify+0x46>
100034a0:	00a4      	lsls	r4, r4, #2
100034a2:	1934      	adds	r4, r6, r4
100034a4:	6da3      	ldr	r3, [r4, #88]	; 0x58
100034a6:	3301      	adds	r3, #1
100034a8:	65a3      	str	r3, [r4, #88]	; 0x58
100034aa:	2d01      	cmp	r5, #1
100034ac:	d010      	beq.n	100034d0 <xTaskGenericNotify+0x6c>
100034ae:	2401      	movs	r4, #1
100034b0:	f000 fc94 	bl	10003ddc <vPortExitCritical>
100034b4:	0020      	movs	r0, r4
100034b6:	bc80      	pop	{r7}
100034b8:	46b8      	mov	r8, r7
100034ba:	bdf0      	pop	{r4, r5, r6, r7, pc}
100034bc:	2f04      	cmp	r7, #4
100034be:	d1f4      	bne.n	100034aa <xTaskGenericNotify+0x46>
100034c0:	2d02      	cmp	r5, #2
100034c2:	d03b      	beq.n	1000353c <xTaskGenericNotify+0xd8>
100034c4:	4643      	mov	r3, r8
100034c6:	3416      	adds	r4, #22
100034c8:	00a4      	lsls	r4, r4, #2
100034ca:	51a3      	str	r3, [r4, r6]
100034cc:	2d01      	cmp	r5, #1
100034ce:	d1ee      	bne.n	100034ae <xTaskGenericNotify+0x4a>
100034d0:	6973      	ldr	r3, [r6, #20]
100034d2:	68b1      	ldr	r1, [r6, #8]
100034d4:	68f2      	ldr	r2, [r6, #12]
100034d6:	1d37      	adds	r7, r6, #4
100034d8:	608a      	str	r2, [r1, #8]
100034da:	6051      	str	r1, [r2, #4]
100034dc:	6859      	ldr	r1, [r3, #4]
100034de:	42b9      	cmp	r1, r7
100034e0:	d02e      	beq.n	10003540 <xTaskGenericNotify+0xdc>
100034e2:	681a      	ldr	r2, [r3, #0]
100034e4:	4d17      	ldr	r5, [pc, #92]	; (10003544 <xTaskGenericNotify+0xe0>)
100034e6:	3a01      	subs	r2, #1
100034e8:	601a      	str	r2, [r3, #0]
100034ea:	6af1      	ldr	r1, [r6, #44]	; 0x2c
100034ec:	6aeb      	ldr	r3, [r5, #44]	; 0x2c
100034ee:	4299      	cmp	r1, r3
100034f0:	d900      	bls.n	100034f4 <xTaskGenericNotify+0x90>
100034f2:	62e9      	str	r1, [r5, #44]	; 0x2c
100034f4:	4b14      	ldr	r3, [pc, #80]	; (10003548 <xTaskGenericNotify+0xe4>)
100034f6:	008a      	lsls	r2, r1, #2
100034f8:	469c      	mov	ip, r3
100034fa:	1852      	adds	r2, r2, r1
100034fc:	0092      	lsls	r2, r2, #2
100034fe:	189c      	adds	r4, r3, r2
10003500:	6a20      	ldr	r0, [r4, #32]
10003502:	6883      	ldr	r3, [r0, #8]
10003504:	60b0      	str	r0, [r6, #8]
10003506:	60f3      	str	r3, [r6, #12]
10003508:	6883      	ldr	r3, [r0, #8]
1000350a:	605f      	str	r7, [r3, #4]
1000350c:	4663      	mov	r3, ip
1000350e:	331c      	adds	r3, #28
10003510:	189b      	adds	r3, r3, r2
10003512:	6087      	str	r7, [r0, #8]
10003514:	6173      	str	r3, [r6, #20]
10003516:	69e3      	ldr	r3, [r4, #28]
10003518:	3301      	adds	r3, #1
1000351a:	61e3      	str	r3, [r4, #28]
1000351c:	686b      	ldr	r3, [r5, #4]
1000351e:	6adb      	ldr	r3, [r3, #44]	; 0x2c
10003520:	4299      	cmp	r1, r3
10003522:	d9c4      	bls.n	100034ae <xTaskGenericNotify+0x4a>
10003524:	f000 fc42 	bl	10003dac <vPortYield>
10003528:	e7c1      	b.n	100034ae <xTaskGenericNotify+0x4a>
1000352a:	4647      	mov	r7, r8
1000352c:	00a4      	lsls	r4, r4, #2
1000352e:	1934      	adds	r4, r6, r4
10003530:	6da2      	ldr	r2, [r4, #88]	; 0x58
10003532:	4317      	orrs	r7, r2
10003534:	65a7      	str	r7, [r4, #88]	; 0x58
10003536:	2d01      	cmp	r5, #1
10003538:	d1b9      	bne.n	100034ae <xTaskGenericNotify+0x4a>
1000353a:	e7c9      	b.n	100034d0 <xTaskGenericNotify+0x6c>
1000353c:	2400      	movs	r4, #0
1000353e:	e7b7      	b.n	100034b0 <xTaskGenericNotify+0x4c>
10003540:	605a      	str	r2, [r3, #4]
10003542:	e7ce      	b.n	100034e2 <xTaskGenericNotify+0x7e>
10003544:	20000e9c 	.word	0x20000e9c
10003548:	20000e1c 	.word	0x20000e1c

1000354c <xTaskGenericNotifyFromISR>:
1000354c:	b5f8      	push	{r3, r4, r5, r6, r7, lr}
1000354e:	4647      	mov	r7, r8
10003550:	46ce      	mov	lr, r9
10003552:	b580      	push	{r7, lr}
10003554:	9f08      	ldr	r7, [sp, #32]
10003556:	0006      	movs	r6, r0
10003558:	000c      	movs	r4, r1
1000355a:	4690      	mov	r8, r2
1000355c:	001d      	movs	r5, r3
1000355e:	f000 fc47 	bl	10003df0 <ulSetInterruptMaskFromISR>
10003562:	2f00      	cmp	r7, #0
10003564:	d004      	beq.n	10003570 <xTaskGenericNotifyFromISR+0x24>
10003566:	0023      	movs	r3, r4
10003568:	3316      	adds	r3, #22
1000356a:	009b      	lsls	r3, r3, #2
1000356c:	599b      	ldr	r3, [r3, r6]
1000356e:	603b      	str	r3, [r7, #0]
10003570:	2202      	movs	r2, #2
10003572:	1933      	adds	r3, r6, r4
10003574:	3364      	adds	r3, #100	; 0x64
10003576:	781f      	ldrb	r7, [r3, #0]
10003578:	701a      	strb	r2, [r3, #0]
1000357a:	b2ff      	uxtb	r7, r7
1000357c:	2d03      	cmp	r5, #3
1000357e:	d017      	beq.n	100035b0 <xTaskGenericNotifyFromISR+0x64>
10003580:	d812      	bhi.n	100035a8 <xTaskGenericNotifyFromISR+0x5c>
10003582:	2d01      	cmp	r5, #1
10003584:	d03b      	beq.n	100035fe <xTaskGenericNotifyFromISR+0xb2>
10003586:	2d02      	cmp	r5, #2
10003588:	d104      	bne.n	10003594 <xTaskGenericNotifyFromISR+0x48>
1000358a:	00a4      	lsls	r4, r4, #2
1000358c:	1934      	adds	r4, r6, r4
1000358e:	6da3      	ldr	r3, [r4, #88]	; 0x58
10003590:	3301      	adds	r3, #1
10003592:	65a3      	str	r3, [r4, #88]	; 0x58
10003594:	2f01      	cmp	r7, #1
10003596:	d011      	beq.n	100035bc <xTaskGenericNotifyFromISR+0x70>
10003598:	2401      	movs	r4, #1
1000359a:	f000 fc2d 	bl	10003df8 <vClearInterruptMaskFromISR>
1000359e:	0020      	movs	r0, r4
100035a0:	bcc0      	pop	{r6, r7}
100035a2:	46b9      	mov	r9, r7
100035a4:	46b0      	mov	r8, r6
100035a6:	bdf8      	pop	{r3, r4, r5, r6, r7, pc}
100035a8:	2d04      	cmp	r5, #4
100035aa:	d1f3      	bne.n	10003594 <xTaskGenericNotifyFromISR+0x48>
100035ac:	2f02      	cmp	r7, #2
100035ae:	d059      	beq.n	10003664 <xTaskGenericNotifyFromISR+0x118>
100035b0:	4643      	mov	r3, r8
100035b2:	3416      	adds	r4, #22
100035b4:	00a4      	lsls	r4, r4, #2
100035b6:	51a3      	str	r3, [r4, r6]
100035b8:	2f01      	cmp	r7, #1
100035ba:	d1ed      	bne.n	10003598 <xTaskGenericNotifyFromISR+0x4c>
100035bc:	4b2b      	ldr	r3, [pc, #172]	; (1000366c <xTaskGenericNotifyFromISR+0x120>)
100035be:	6f9a      	ldr	r2, [r3, #120]	; 0x78
100035c0:	2a00      	cmp	r2, #0
100035c2:	d025      	beq.n	10003610 <xTaskGenericNotifyFromISR+0xc4>
100035c4:	6e1a      	ldr	r2, [r3, #96]	; 0x60
100035c6:	6891      	ldr	r1, [r2, #8]
100035c8:	61f2      	str	r2, [r6, #28]
100035ca:	6231      	str	r1, [r6, #32]
100035cc:	0031      	movs	r1, r6
100035ce:	6894      	ldr	r4, [r2, #8]
100035d0:	3118      	adds	r1, #24
100035d2:	6061      	str	r1, [r4, #4]
100035d4:	6091      	str	r1, [r2, #8]
100035d6:	001a      	movs	r2, r3
100035d8:	325c      	adds	r2, #92	; 0x5c
100035da:	62b2      	str	r2, [r6, #40]	; 0x28
100035dc:	6dda      	ldr	r2, [r3, #92]	; 0x5c
100035de:	3201      	adds	r2, #1
100035e0:	65da      	str	r2, [r3, #92]	; 0x5c
100035e2:	6af2      	ldr	r2, [r6, #44]	; 0x2c
100035e4:	6859      	ldr	r1, [r3, #4]
100035e6:	6ac9      	ldr	r1, [r1, #44]	; 0x2c
100035e8:	4291      	cmp	r1, r2
100035ea:	d2d5      	bcs.n	10003598 <xTaskGenericNotifyFromISR+0x4c>
100035ec:	9a09      	ldr	r2, [sp, #36]	; 0x24
100035ee:	2a00      	cmp	r2, #0
100035f0:	d002      	beq.n	100035f8 <xTaskGenericNotifyFromISR+0xac>
100035f2:	0011      	movs	r1, r2
100035f4:	2201      	movs	r2, #1
100035f6:	600a      	str	r2, [r1, #0]
100035f8:	2201      	movs	r2, #1
100035fa:	631a      	str	r2, [r3, #48]	; 0x30
100035fc:	e7cc      	b.n	10003598 <xTaskGenericNotifyFromISR+0x4c>
100035fe:	4643      	mov	r3, r8
10003600:	00a4      	lsls	r4, r4, #2
10003602:	1934      	adds	r4, r6, r4
10003604:	6da2      	ldr	r2, [r4, #88]	; 0x58
10003606:	431a      	orrs	r2, r3
10003608:	65a2      	str	r2, [r4, #88]	; 0x58
1000360a:	2f01      	cmp	r7, #1
1000360c:	d1c4      	bne.n	10003598 <xTaskGenericNotifyFromISR+0x4c>
1000360e:	e7d5      	b.n	100035bc <xTaskGenericNotifyFromISR+0x70>
10003610:	68b4      	ldr	r4, [r6, #8]
10003612:	68f1      	ldr	r1, [r6, #12]
10003614:	6972      	ldr	r2, [r6, #20]
10003616:	60a1      	str	r1, [r4, #8]
10003618:	604c      	str	r4, [r1, #4]
1000361a:	1d34      	adds	r4, r6, #4
1000361c:	46a0      	mov	r8, r4
1000361e:	6854      	ldr	r4, [r2, #4]
10003620:	4544      	cmp	r4, r8
10003622:	d021      	beq.n	10003668 <xTaskGenericNotifyFromISR+0x11c>
10003624:	6811      	ldr	r1, [r2, #0]
10003626:	3901      	subs	r1, #1
10003628:	6011      	str	r1, [r2, #0]
1000362a:	6ad9      	ldr	r1, [r3, #44]	; 0x2c
1000362c:	6af2      	ldr	r2, [r6, #44]	; 0x2c
1000362e:	428a      	cmp	r2, r1
10003630:	d900      	bls.n	10003634 <xTaskGenericNotifyFromISR+0xe8>
10003632:	62da      	str	r2, [r3, #44]	; 0x2c
10003634:	490e      	ldr	r1, [pc, #56]	; (10003670 <xTaskGenericNotifyFromISR+0x124>)
10003636:	0094      	lsls	r4, r2, #2
10003638:	468c      	mov	ip, r1
1000363a:	18a4      	adds	r4, r4, r2
1000363c:	00a1      	lsls	r1, r4, #2
1000363e:	4689      	mov	r9, r1
10003640:	4667      	mov	r7, ip
10003642:	4644      	mov	r4, r8
10003644:	444f      	add	r7, r9
10003646:	6a3d      	ldr	r5, [r7, #32]
10003648:	68a9      	ldr	r1, [r5, #8]
1000364a:	60b5      	str	r5, [r6, #8]
1000364c:	60f1      	str	r1, [r6, #12]
1000364e:	68a9      	ldr	r1, [r5, #8]
10003650:	604c      	str	r4, [r1, #4]
10003652:	4661      	mov	r1, ip
10003654:	311c      	adds	r1, #28
10003656:	4449      	add	r1, r9
10003658:	60ac      	str	r4, [r5, #8]
1000365a:	6171      	str	r1, [r6, #20]
1000365c:	69f9      	ldr	r1, [r7, #28]
1000365e:	3101      	adds	r1, #1
10003660:	61f9      	str	r1, [r7, #28]
10003662:	e7bf      	b.n	100035e4 <xTaskGenericNotifyFromISR+0x98>
10003664:	2400      	movs	r4, #0
10003666:	e798      	b.n	1000359a <xTaskGenericNotifyFromISR+0x4e>
10003668:	6051      	str	r1, [r2, #4]
1000366a:	e7db      	b.n	10003624 <xTaskGenericNotifyFromISR+0xd8>
1000366c:	20000e9c 	.word	0x20000e9c
10003670:	20000e1c 	.word	0x20000e1c

10003674 <vTaskGenericNotifyGiveFromISR>:
10003674:	b5f0      	push	{r4, r5, r6, r7, lr}
10003676:	46d6      	mov	lr, sl
10003678:	4646      	mov	r6, r8
1000367a:	464f      	mov	r7, r9
1000367c:	000c      	movs	r4, r1
1000367e:	0005      	movs	r5, r0
10003680:	b5c0      	push	{r6, r7, lr}
10003682:	0016      	movs	r6, r2
10003684:	f000 fbb4 	bl	10003df0 <ulSetInterruptMaskFromISR>
10003688:	2102      	movs	r1, #2
1000368a:	192b      	adds	r3, r5, r4
1000368c:	3364      	adds	r3, #100	; 0x64
1000368e:	00a4      	lsls	r4, r4, #2
10003690:	781a      	ldrb	r2, [r3, #0]
10003692:	192c      	adds	r4, r5, r4
10003694:	7019      	strb	r1, [r3, #0]
10003696:	6da3      	ldr	r3, [r4, #88]	; 0x58
10003698:	3301      	adds	r3, #1
1000369a:	65a3      	str	r3, [r4, #88]	; 0x58
1000369c:	2a01      	cmp	r2, #1
1000369e:	d006      	beq.n	100036ae <vTaskGenericNotifyGiveFromISR+0x3a>
100036a0:	f000 fbaa 	bl	10003df8 <vClearInterruptMaskFromISR>
100036a4:	bce0      	pop	{r5, r6, r7}
100036a6:	46ba      	mov	sl, r7
100036a8:	46b1      	mov	r9, r6
100036aa:	46a8      	mov	r8, r5
100036ac:	bdf0      	pop	{r4, r5, r6, r7, pc}
100036ae:	4b27      	ldr	r3, [pc, #156]	; (1000374c <vTaskGenericNotifyGiveFromISR+0xd8>)
100036b0:	6f9a      	ldr	r2, [r3, #120]	; 0x78
100036b2:	2a00      	cmp	r2, #0
100036b4:	d01a      	beq.n	100036ec <vTaskGenericNotifyGiveFromISR+0x78>
100036b6:	6e1a      	ldr	r2, [r3, #96]	; 0x60
100036b8:	6891      	ldr	r1, [r2, #8]
100036ba:	61ea      	str	r2, [r5, #28]
100036bc:	6229      	str	r1, [r5, #32]
100036be:	0029      	movs	r1, r5
100036c0:	6894      	ldr	r4, [r2, #8]
100036c2:	3118      	adds	r1, #24
100036c4:	6061      	str	r1, [r4, #4]
100036c6:	6091      	str	r1, [r2, #8]
100036c8:	001a      	movs	r2, r3
100036ca:	325c      	adds	r2, #92	; 0x5c
100036cc:	62aa      	str	r2, [r5, #40]	; 0x28
100036ce:	6dda      	ldr	r2, [r3, #92]	; 0x5c
100036d0:	3201      	adds	r2, #1
100036d2:	65da      	str	r2, [r3, #92]	; 0x5c
100036d4:	6aea      	ldr	r2, [r5, #44]	; 0x2c
100036d6:	6859      	ldr	r1, [r3, #4]
100036d8:	6ac9      	ldr	r1, [r1, #44]	; 0x2c
100036da:	4291      	cmp	r1, r2
100036dc:	d2e0      	bcs.n	100036a0 <vTaskGenericNotifyGiveFromISR+0x2c>
100036de:	2e00      	cmp	r6, #0
100036e0:	d001      	beq.n	100036e6 <vTaskGenericNotifyGiveFromISR+0x72>
100036e2:	2201      	movs	r2, #1
100036e4:	6032      	str	r2, [r6, #0]
100036e6:	2201      	movs	r2, #1
100036e8:	631a      	str	r2, [r3, #48]	; 0x30
100036ea:	e7d9      	b.n	100036a0 <vTaskGenericNotifyGiveFromISR+0x2c>
100036ec:	68ac      	ldr	r4, [r5, #8]
100036ee:	68e9      	ldr	r1, [r5, #12]
100036f0:	696a      	ldr	r2, [r5, #20]
100036f2:	60a1      	str	r1, [r4, #8]
100036f4:	604c      	str	r4, [r1, #4]
100036f6:	1d2c      	adds	r4, r5, #4
100036f8:	46a4      	mov	ip, r4
100036fa:	6854      	ldr	r4, [r2, #4]
100036fc:	4564      	cmp	r4, ip
100036fe:	d022      	beq.n	10003746 <vTaskGenericNotifyGiveFromISR+0xd2>
10003700:	6811      	ldr	r1, [r2, #0]
10003702:	3901      	subs	r1, #1
10003704:	6011      	str	r1, [r2, #0]
10003706:	6ad9      	ldr	r1, [r3, #44]	; 0x2c
10003708:	6aea      	ldr	r2, [r5, #44]	; 0x2c
1000370a:	428a      	cmp	r2, r1
1000370c:	d900      	bls.n	10003710 <vTaskGenericNotifyGiveFromISR+0x9c>
1000370e:	62da      	str	r2, [r3, #44]	; 0x2c
10003710:	490f      	ldr	r1, [pc, #60]	; (10003750 <vTaskGenericNotifyGiveFromISR+0xdc>)
10003712:	0094      	lsls	r4, r2, #2
10003714:	4689      	mov	r9, r1
10003716:	18a4      	adds	r4, r4, r2
10003718:	00a1      	lsls	r1, r4, #2
1000371a:	468a      	mov	sl, r1
1000371c:	4649      	mov	r1, r9
1000371e:	4664      	mov	r4, ip
10003720:	4451      	add	r1, sl
10003722:	6a0f      	ldr	r7, [r1, #32]
10003724:	4688      	mov	r8, r1
10003726:	68b9      	ldr	r1, [r7, #8]
10003728:	60af      	str	r7, [r5, #8]
1000372a:	60e9      	str	r1, [r5, #12]
1000372c:	68b9      	ldr	r1, [r7, #8]
1000372e:	604c      	str	r4, [r1, #4]
10003730:	4649      	mov	r1, r9
10003732:	311c      	adds	r1, #28
10003734:	4451      	add	r1, sl
10003736:	60bc      	str	r4, [r7, #8]
10003738:	6169      	str	r1, [r5, #20]
1000373a:	4641      	mov	r1, r8
1000373c:	4644      	mov	r4, r8
1000373e:	69c9      	ldr	r1, [r1, #28]
10003740:	3101      	adds	r1, #1
10003742:	61e1      	str	r1, [r4, #28]
10003744:	e7c7      	b.n	100036d6 <vTaskGenericNotifyGiveFromISR+0x62>
10003746:	6051      	str	r1, [r2, #4]
10003748:	e7da      	b.n	10003700 <vTaskGenericNotifyGiveFromISR+0x8c>
1000374a:	46c0      	nop			; (mov r8, r8)
1000374c:	20000e9c 	.word	0x20000e9c
10003750:	20000e1c 	.word	0x20000e1c

10003754 <xTaskGenericNotifyStateClear>:
10003754:	b570      	push	{r4, r5, r6, lr}
10003756:	0004      	movs	r4, r0
10003758:	000d      	movs	r5, r1
1000375a:	2800      	cmp	r0, #0
1000375c:	d00d      	beq.n	1000377a <xTaskGenericNotifyStateClear+0x26>
1000375e:	1964      	adds	r4, r4, r5
10003760:	3464      	adds	r4, #100	; 0x64
10003762:	f000 fb2f 	bl	10003dc4 <vPortEnterCritical>
10003766:	7823      	ldrb	r3, [r4, #0]
10003768:	2500      	movs	r5, #0
1000376a:	2b02      	cmp	r3, #2
1000376c:	d101      	bne.n	10003772 <xTaskGenericNotifyStateClear+0x1e>
1000376e:	7025      	strb	r5, [r4, #0]
10003770:	3501      	adds	r5, #1
10003772:	f000 fb33 	bl	10003ddc <vPortExitCritical>
10003776:	0028      	movs	r0, r5
10003778:	bd70      	pop	{r4, r5, r6, pc}
1000377a:	4b01      	ldr	r3, [pc, #4]	; (10003780 <xTaskGenericNotifyStateClear+0x2c>)
1000377c:	685c      	ldr	r4, [r3, #4]
1000377e:	e7ee      	b.n	1000375e <xTaskGenericNotifyStateClear+0xa>
10003780:	20000e9c 	.word	0x20000e9c

10003784 <ulTaskGenericNotifyValueClear>:
10003784:	b570      	push	{r4, r5, r6, lr}
10003786:	0004      	movs	r4, r0
10003788:	000d      	movs	r5, r1
1000378a:	0016      	movs	r6, r2
1000378c:	2800      	cmp	r0, #0
1000378e:	d00b      	beq.n	100037a8 <ulTaskGenericNotifyValueClear+0x24>
10003790:	f000 fb18 	bl	10003dc4 <vPortEnterCritical>
10003794:	00a8      	lsls	r0, r5, #2
10003796:	1820      	adds	r0, r4, r0
10003798:	6d84      	ldr	r4, [r0, #88]	; 0x58
1000379a:	6d83      	ldr	r3, [r0, #88]	; 0x58
1000379c:	43b3      	bics	r3, r6
1000379e:	6583      	str	r3, [r0, #88]	; 0x58
100037a0:	f000 fb1c 	bl	10003ddc <vPortExitCritical>
100037a4:	0020      	movs	r0, r4
100037a6:	bd70      	pop	{r4, r5, r6, pc}
100037a8:	4b01      	ldr	r3, [pc, #4]	; (100037b0 <ulTaskGenericNotifyValueClear+0x2c>)
100037aa:	685c      	ldr	r4, [r3, #4]
100037ac:	e7f0      	b.n	10003790 <ulTaskGenericNotifyValueClear+0xc>
100037ae:	46c0      	nop			; (mov r8, r8)
100037b0:	20000e9c 	.word	0x20000e9c

100037b4 <prvTimerTask>:
100037b4:	b5f0      	push	{r4, r5, r6, r7, lr}
100037b6:	4645      	mov	r5, r8
100037b8:	46de      	mov	lr, fp
100037ba:	4657      	mov	r7, sl
100037bc:	464e      	mov	r6, r9
100037be:	b5e0      	push	{r5, r6, r7, lr}
100037c0:	4dc0      	ldr	r5, [pc, #768]	; (10003ac4 <prvTimerTask+0x310>)
100037c2:	b087      	sub	sp, #28
100037c4:	682b      	ldr	r3, [r5, #0]
100037c6:	681c      	ldr	r4, [r3, #0]
100037c8:	2c00      	cmp	r4, #0
100037ca:	d100      	bne.n	100037ce <prvTimerTask+0x1a>
100037cc:	e0d6      	b.n	1000397c <prvTimerTask+0x1c8>
100037ce:	68db      	ldr	r3, [r3, #12]
100037d0:	681c      	ldr	r4, [r3, #0]
100037d2:	f7ff fa17 	bl	10002c04 <vTaskSuspendAll>
100037d6:	f7ff fb1f 	bl	10002e18 <xTaskGetTickCount>
100037da:	686b      	ldr	r3, [r5, #4]
100037dc:	4681      	mov	r9, r0
100037de:	4298      	cmp	r0, r3
100037e0:	d200      	bcs.n	100037e4 <prvTimerTask+0x30>
100037e2:	e0da      	b.n	1000399a <prvTimerTask+0x1e6>
100037e4:	6068      	str	r0, [r5, #4]
100037e6:	4284      	cmp	r4, r0
100037e8:	d800      	bhi.n	100037ec <prvTimerTask+0x38>
100037ea:	e12e      	b.n	10003a4a <prvTimerTask+0x296>
100037ec:	2200      	movs	r2, #0
100037ee:	464b      	mov	r3, r9
100037f0:	68e8      	ldr	r0, [r5, #12]
100037f2:	1ae1      	subs	r1, r4, r3
100037f4:	f001 fc4e 	bl	10005094 <vQueueWaitForMessageRestricted>
100037f8:	f7ff fa0c 	bl	10002c14 <xTaskResumeAll>
100037fc:	2800      	cmp	r0, #0
100037fe:	d100      	bne.n	10003802 <prvTimerTask+0x4e>
10003800:	e115      	b.n	10003a2e <prvTimerTask+0x27a>
10003802:	2324      	movs	r3, #36	; 0x24
10003804:	469a      	mov	sl, r3
10003806:	2200      	movs	r2, #0
10003808:	68e8      	ldr	r0, [r5, #12]
1000380a:	a903      	add	r1, sp, #12
1000380c:	f000 fe92 	bl	10004534 <xQueueReceive>
10003810:	2800      	cmp	r0, #0
10003812:	d0d7      	beq.n	100037c4 <prvTimerTask+0x10>
10003814:	9b03      	ldr	r3, [sp, #12]
10003816:	9301      	str	r3, [sp, #4]
10003818:	2b00      	cmp	r3, #0
1000381a:	dbf4      	blt.n	10003806 <prvTimerTask+0x52>
1000381c:	9b05      	ldr	r3, [sp, #20]
1000381e:	4698      	mov	r8, r3
10003820:	695b      	ldr	r3, [r3, #20]
10003822:	2b00      	cmp	r3, #0
10003824:	d003      	beq.n	1000382e <prvTimerTask+0x7a>
10003826:	4643      	mov	r3, r8
10003828:	1d18      	adds	r0, r3, #4
1000382a:	f000 fb87 	bl	10003f3c <uxListRemove>
1000382e:	f7ff faf3 	bl	10002e18 <xTaskGetTickCount>
10003832:	686b      	ldr	r3, [r5, #4]
10003834:	4683      	mov	fp, r0
10003836:	4298      	cmp	r0, r3
10003838:	d30f      	bcc.n	1000385a <prvTimerTask+0xa6>
1000383a:	465b      	mov	r3, fp
1000383c:	606b      	str	r3, [r5, #4]
1000383e:	9b03      	ldr	r3, [sp, #12]
10003840:	2b09      	cmp	r3, #9
10003842:	d8e0      	bhi.n	10003806 <prvTimerTask+0x52>
10003844:	4aa0      	ldr	r2, [pc, #640]	; (10003ac8 <prvTimerTask+0x314>)
10003846:	009b      	lsls	r3, r3, #2
10003848:	58d3      	ldr	r3, [r2, r3]
1000384a:	469f      	mov	pc, r3
1000384c:	2201      	movs	r2, #1
1000384e:	4393      	bics	r3, r2
10003850:	4652      	mov	r2, sl
10003852:	54a3      	strb	r3, [r4, r2]
10003854:	0020      	movs	r0, r4
10003856:	6a23      	ldr	r3, [r4, #32]
10003858:	4798      	blx	r3
1000385a:	682b      	ldr	r3, [r5, #0]
1000385c:	681a      	ldr	r2, [r3, #0]
1000385e:	2a00      	cmp	r2, #0
10003860:	d100      	bne.n	10003864 <prvTimerTask+0xb0>
10003862:	e0e0      	b.n	10003a26 <prvTimerTask+0x272>
10003864:	68db      	ldr	r3, [r3, #12]
10003866:	68dc      	ldr	r4, [r3, #12]
10003868:	681e      	ldr	r6, [r3, #0]
1000386a:	1d23      	adds	r3, r4, #4
1000386c:	0018      	movs	r0, r3
1000386e:	4699      	mov	r9, r3
10003870:	f000 fb64 	bl	10003f3c <uxListRemove>
10003874:	4653      	mov	r3, sl
10003876:	2204      	movs	r2, #4
10003878:	5ce3      	ldrb	r3, [r4, r3]
1000387a:	421a      	tst	r2, r3
1000387c:	d0e6      	beq.n	1000384c <prvTimerTask+0x98>
1000387e:	69a3      	ldr	r3, [r4, #24]
10003880:	6124      	str	r4, [r4, #16]
10003882:	18f7      	adds	r7, r6, r3
10003884:	43f6      	mvns	r6, r6
10003886:	6067      	str	r7, [r4, #4]
10003888:	42b3      	cmp	r3, r6
1000388a:	d80a      	bhi.n	100038a2 <prvTimerTask+0xee>
1000388c:	003e      	movs	r6, r7
1000388e:	43f6      	mvns	r6, r6
10003890:	6a23      	ldr	r3, [r4, #32]
10003892:	0020      	movs	r0, r4
10003894:	4798      	blx	r3
10003896:	69a3      	ldr	r3, [r4, #24]
10003898:	6124      	str	r4, [r4, #16]
1000389a:	18ff      	adds	r7, r7, r3
1000389c:	6067      	str	r7, [r4, #4]
1000389e:	42b3      	cmp	r3, r6
100038a0:	d9f4      	bls.n	1000388c <prvTimerTask+0xd8>
100038a2:	4649      	mov	r1, r9
100038a4:	68a8      	ldr	r0, [r5, #8]
100038a6:	f000 fb31 	bl	10003f0c <vListInsert>
100038aa:	e7d3      	b.n	10003854 <prvTimerTask+0xa0>
100038ac:	4643      	mov	r3, r8
100038ae:	4652      	mov	r2, sl
100038b0:	5c98      	ldrb	r0, [r3, r2]
100038b2:	2301      	movs	r3, #1
100038b4:	4642      	mov	r2, r8
100038b6:	4651      	mov	r1, sl
100038b8:	4644      	mov	r4, r8
100038ba:	4303      	orrs	r3, r0
100038bc:	5453      	strb	r3, [r2, r1]
100038be:	6992      	ldr	r2, [r2, #24]
100038c0:	9904      	ldr	r1, [sp, #16]
100038c2:	6124      	str	r4, [r4, #16]
100038c4:	188b      	adds	r3, r1, r2
100038c6:	6063      	str	r3, [r4, #4]
100038c8:	455b      	cmp	r3, fp
100038ca:	d900      	bls.n	100038ce <prvTimerTask+0x11a>
100038cc:	e0b2      	b.n	10003a34 <prvTimerTask+0x280>
100038ce:	465c      	mov	r4, fp
100038d0:	1a61      	subs	r1, r4, r1
100038d2:	428a      	cmp	r2, r1
100038d4:	d900      	bls.n	100038d8 <prvTimerTask+0x124>
100038d6:	e0ef      	b.n	10003ab8 <prvTimerTask+0x304>
100038d8:	0741      	lsls	r1, r0, #29
100038da:	d414      	bmi.n	10003906 <prvTimerTask+0x152>
100038dc:	2301      	movs	r3, #1
100038de:	4652      	mov	r2, sl
100038e0:	4398      	bics	r0, r3
100038e2:	4643      	mov	r3, r8
100038e4:	5498      	strb	r0, [r3, r2]
100038e6:	4643      	mov	r3, r8
100038e8:	4640      	mov	r0, r8
100038ea:	6a1b      	ldr	r3, [r3, #32]
100038ec:	4798      	blx	r3
100038ee:	e78a      	b.n	10003806 <prvTimerTask+0x52>
100038f0:	4659      	mov	r1, fp
100038f2:	1acb      	subs	r3, r1, r3
100038f4:	4293      	cmp	r3, r2
100038f6:	d200      	bcs.n	100038fa <prvTimerTask+0x146>
100038f8:	e0d8      	b.n	10003aac <prvTimerTask+0x2f8>
100038fa:	4640      	mov	r0, r8
100038fc:	6a03      	ldr	r3, [r0, #32]
100038fe:	4798      	blx	r3
10003900:	4643      	mov	r3, r8
10003902:	699a      	ldr	r2, [r3, #24]
10003904:	0023      	movs	r3, r4
10003906:	4641      	mov	r1, r8
10003908:	189c      	adds	r4, r3, r2
1000390a:	604c      	str	r4, [r1, #4]
1000390c:	6109      	str	r1, [r1, #16]
1000390e:	45a3      	cmp	fp, r4
10003910:	d2ee      	bcs.n	100038f0 <prvTimerTask+0x13c>
10003912:	459b      	cmp	fp, r3
10003914:	d201      	bcs.n	1000391a <prvTimerTask+0x166>
10003916:	42a3      	cmp	r3, r4
10003918:	d9ef      	bls.n	100038fa <prvTimerTask+0x146>
1000391a:	4643      	mov	r3, r8
1000391c:	6828      	ldr	r0, [r5, #0]
1000391e:	1d19      	adds	r1, r3, #4
10003920:	f000 faf4 	bl	10003f0c <vListInsert>
10003924:	e7df      	b.n	100038e6 <prvTimerTask+0x132>
10003926:	4643      	mov	r3, r8
10003928:	4652      	mov	r2, sl
1000392a:	5c9b      	ldrb	r3, [r3, r2]
1000392c:	2201      	movs	r2, #1
1000392e:	4651      	mov	r1, sl
10003930:	4393      	bics	r3, r2
10003932:	4642      	mov	r2, r8
10003934:	5453      	strb	r3, [r2, r1]
10003936:	e766      	b.n	10003806 <prvTimerTask+0x52>
10003938:	4652      	mov	r2, sl
1000393a:	4643      	mov	r3, r8
1000393c:	5c9b      	ldrb	r3, [r3, r2]
1000393e:	2201      	movs	r2, #1
10003940:	4651      	mov	r1, sl
10003942:	4313      	orrs	r3, r2
10003944:	4642      	mov	r2, r8
10003946:	5453      	strb	r3, [r2, r1]
10003948:	9b04      	ldr	r3, [sp, #16]
1000394a:	4641      	mov	r1, r8
1000394c:	6193      	str	r3, [r2, #24]
1000394e:	465a      	mov	r2, fp
10003950:	189a      	adds	r2, r3, r2
10003952:	604a      	str	r2, [r1, #4]
10003954:	6109      	str	r1, [r1, #16]
10003956:	455a      	cmp	r2, fp
10003958:	d871      	bhi.n	10003a3e <prvTimerTask+0x28a>
1000395a:	2b00      	cmp	r3, #0
1000395c:	d100      	bne.n	10003960 <prvTimerTask+0x1ac>
1000395e:	e752      	b.n	10003806 <prvTimerTask+0x52>
10003960:	68a8      	ldr	r0, [r5, #8]
10003962:	3104      	adds	r1, #4
10003964:	f000 fad2 	bl	10003f0c <vListInsert>
10003968:	e74d      	b.n	10003806 <prvTimerTask+0x52>
1000396a:	4643      	mov	r3, r8
1000396c:	4652      	mov	r2, sl
1000396e:	5c9b      	ldrb	r3, [r3, r2]
10003970:	079a      	lsls	r2, r3, #30
10003972:	d4db      	bmi.n	1000392c <prvTimerTask+0x178>
10003974:	4640      	mov	r0, r8
10003976:	f000 f9d3 	bl	10003d20 <vPortFree>
1000397a:	e744      	b.n	10003806 <prvTimerTask+0x52>
1000397c:	f7ff f942 	bl	10002c04 <vTaskSuspendAll>
10003980:	f7ff fa4a 	bl	10002e18 <xTaskGetTickCount>
10003984:	686b      	ldr	r3, [r5, #4]
10003986:	4681      	mov	r9, r0
10003988:	4298      	cmp	r0, r3
1000398a:	d306      	bcc.n	1000399a <prvTimerTask+0x1e6>
1000398c:	464b      	mov	r3, r9
1000398e:	606b      	str	r3, [r5, #4]
10003990:	68ab      	ldr	r3, [r5, #8]
10003992:	681a      	ldr	r2, [r3, #0]
10003994:	4253      	negs	r3, r2
10003996:	415a      	adcs	r2, r3
10003998:	e729      	b.n	100037ee <prvTimerTask+0x3a>
1000399a:	682b      	ldr	r3, [r5, #0]
1000399c:	681a      	ldr	r2, [r3, #0]
1000399e:	2a00      	cmp	r2, #0
100039a0:	d039      	beq.n	10003a16 <prvTimerTask+0x262>
100039a2:	2224      	movs	r2, #36	; 0x24
100039a4:	4692      	mov	sl, r2
100039a6:	3a20      	subs	r2, #32
100039a8:	4693      	mov	fp, r2
100039aa:	e00a      	b.n	100039c2 <prvTimerTask+0x20e>
100039ac:	2201      	movs	r2, #1
100039ae:	4393      	bics	r3, r2
100039b0:	4652      	mov	r2, sl
100039b2:	54a3      	strb	r3, [r4, r2]
100039b4:	6a23      	ldr	r3, [r4, #32]
100039b6:	0020      	movs	r0, r4
100039b8:	4798      	blx	r3
100039ba:	682b      	ldr	r3, [r5, #0]
100039bc:	681a      	ldr	r2, [r3, #0]
100039be:	2a00      	cmp	r2, #0
100039c0:	d029      	beq.n	10003a16 <prvTimerTask+0x262>
100039c2:	68db      	ldr	r3, [r3, #12]
100039c4:	68dc      	ldr	r4, [r3, #12]
100039c6:	681e      	ldr	r6, [r3, #0]
100039c8:	1d23      	adds	r3, r4, #4
100039ca:	0018      	movs	r0, r3
100039cc:	4698      	mov	r8, r3
100039ce:	f000 fab5 	bl	10003f3c <uxListRemove>
100039d2:	4653      	mov	r3, sl
100039d4:	465a      	mov	r2, fp
100039d6:	5ce3      	ldrb	r3, [r4, r3]
100039d8:	421a      	tst	r2, r3
100039da:	d0e7      	beq.n	100039ac <prvTimerTask+0x1f8>
100039dc:	69a3      	ldr	r3, [r4, #24]
100039de:	6124      	str	r4, [r4, #16]
100039e0:	18f7      	adds	r7, r6, r3
100039e2:	43f6      	mvns	r6, r6
100039e4:	6067      	str	r7, [r4, #4]
100039e6:	42b3      	cmp	r3, r6
100039e8:	d80a      	bhi.n	10003a00 <prvTimerTask+0x24c>
100039ea:	003e      	movs	r6, r7
100039ec:	43f6      	mvns	r6, r6
100039ee:	6a23      	ldr	r3, [r4, #32]
100039f0:	0020      	movs	r0, r4
100039f2:	4798      	blx	r3
100039f4:	69a3      	ldr	r3, [r4, #24]
100039f6:	6124      	str	r4, [r4, #16]
100039f8:	18ff      	adds	r7, r7, r3
100039fa:	6067      	str	r7, [r4, #4]
100039fc:	42b3      	cmp	r3, r6
100039fe:	d9f4      	bls.n	100039ea <prvTimerTask+0x236>
10003a00:	4641      	mov	r1, r8
10003a02:	68a8      	ldr	r0, [r5, #8]
10003a04:	f000 fa82 	bl	10003f0c <vListInsert>
10003a08:	6a23      	ldr	r3, [r4, #32]
10003a0a:	0020      	movs	r0, r4
10003a0c:	4798      	blx	r3
10003a0e:	682b      	ldr	r3, [r5, #0]
10003a10:	681a      	ldr	r2, [r3, #0]
10003a12:	2a00      	cmp	r2, #0
10003a14:	d1d5      	bne.n	100039c2 <prvTimerTask+0x20e>
10003a16:	68aa      	ldr	r2, [r5, #8]
10003a18:	60ab      	str	r3, [r5, #8]
10003a1a:	464b      	mov	r3, r9
10003a1c:	602a      	str	r2, [r5, #0]
10003a1e:	606b      	str	r3, [r5, #4]
10003a20:	f7ff f8f8 	bl	10002c14 <xTaskResumeAll>
10003a24:	e6ed      	b.n	10003802 <prvTimerTask+0x4e>
10003a26:	68aa      	ldr	r2, [r5, #8]
10003a28:	60ab      	str	r3, [r5, #8]
10003a2a:	602a      	str	r2, [r5, #0]
10003a2c:	e705      	b.n	1000383a <prvTimerTask+0x86>
10003a2e:	f000 f9bd 	bl	10003dac <vPortYield>
10003a32:	e6e6      	b.n	10003802 <prvTimerTask+0x4e>
10003a34:	4559      	cmp	r1, fp
10003a36:	d902      	bls.n	10003a3e <prvTimerTask+0x28a>
10003a38:	4299      	cmp	r1, r3
10003a3a:	d800      	bhi.n	10003a3e <prvTimerTask+0x28a>
10003a3c:	e74c      	b.n	100038d8 <prvTimerTask+0x124>
10003a3e:	4641      	mov	r1, r8
10003a40:	6828      	ldr	r0, [r5, #0]
10003a42:	3104      	adds	r1, #4
10003a44:	f000 fa62 	bl	10003f0c <vListInsert>
10003a48:	e6dd      	b.n	10003806 <prvTimerTask+0x52>
10003a4a:	f7ff f8e3 	bl	10002c14 <xTaskResumeAll>
10003a4e:	682b      	ldr	r3, [r5, #0]
10003a50:	68db      	ldr	r3, [r3, #12]
10003a52:	68de      	ldr	r6, [r3, #12]
10003a54:	1d33      	adds	r3, r6, #4
10003a56:	0018      	movs	r0, r3
10003a58:	4698      	mov	r8, r3
10003a5a:	f000 fa6f 	bl	10003f3c <uxListRemove>
10003a5e:	2224      	movs	r2, #36	; 0x24
10003a60:	5cb3      	ldrb	r3, [r6, r2]
10003a62:	0759      	lsls	r1, r3, #29
10003a64:	d40e      	bmi.n	10003a84 <prvTimerTask+0x2d0>
10003a66:	2101      	movs	r1, #1
10003a68:	438b      	bics	r3, r1
10003a6a:	54b3      	strb	r3, [r6, r2]
10003a6c:	0030      	movs	r0, r6
10003a6e:	6a33      	ldr	r3, [r6, #32]
10003a70:	4798      	blx	r3
10003a72:	e6c6      	b.n	10003802 <prvTimerTask+0x4e>
10003a74:	464a      	mov	r2, r9
10003a76:	1b14      	subs	r4, r2, r4
10003a78:	42a3      	cmp	r3, r4
10003a7a:	d812      	bhi.n	10003aa2 <prvTimerTask+0x2ee>
10003a7c:	0030      	movs	r0, r6
10003a7e:	6a33      	ldr	r3, [r6, #32]
10003a80:	4798      	blx	r3
10003a82:	003c      	movs	r4, r7
10003a84:	69b3      	ldr	r3, [r6, #24]
10003a86:	6136      	str	r6, [r6, #16]
10003a88:	18e7      	adds	r7, r4, r3
10003a8a:	6077      	str	r7, [r6, #4]
10003a8c:	45b9      	cmp	r9, r7
10003a8e:	d2f1      	bcs.n	10003a74 <prvTimerTask+0x2c0>
10003a90:	45a1      	cmp	r9, r4
10003a92:	d201      	bcs.n	10003a98 <prvTimerTask+0x2e4>
10003a94:	42bc      	cmp	r4, r7
10003a96:	d9f1      	bls.n	10003a7c <prvTimerTask+0x2c8>
10003a98:	4641      	mov	r1, r8
10003a9a:	6828      	ldr	r0, [r5, #0]
10003a9c:	f000 fa36 	bl	10003f0c <vListInsert>
10003aa0:	e7e4      	b.n	10003a6c <prvTimerTask+0x2b8>
10003aa2:	4641      	mov	r1, r8
10003aa4:	68a8      	ldr	r0, [r5, #8]
10003aa6:	f000 fa31 	bl	10003f0c <vListInsert>
10003aaa:	e7df      	b.n	10003a6c <prvTimerTask+0x2b8>
10003aac:	4643      	mov	r3, r8
10003aae:	68a8      	ldr	r0, [r5, #8]
10003ab0:	1d19      	adds	r1, r3, #4
10003ab2:	f000 fa2b 	bl	10003f0c <vListInsert>
10003ab6:	e716      	b.n	100038e6 <prvTimerTask+0x132>
10003ab8:	4641      	mov	r1, r8
10003aba:	68a8      	ldr	r0, [r5, #8]
10003abc:	3104      	adds	r1, #4
10003abe:	f000 fa25 	bl	10003f0c <vListInsert>
10003ac2:	e6a0      	b.n	10003806 <prvTimerTask+0x52>
10003ac4:	20000f20 	.word	0x20000f20
10003ac8:	10005b30 	.word	0x10005b30

10003acc <xTimerCreateTimerTask>:
10003acc:	b570      	push	{r4, r5, r6, lr}
10003ace:	b082      	sub	sp, #8
10003ad0:	f000 f978 	bl	10003dc4 <vPortEnterCritical>
10003ad4:	4c16      	ldr	r4, [pc, #88]	; (10003b30 <xTimerCreateTimerTask+0x64>)
10003ad6:	68e3      	ldr	r3, [r4, #12]
10003ad8:	2b00      	cmp	r3, #0
10003ada:	d011      	beq.n	10003b00 <xTimerCreateTimerTask+0x34>
10003adc:	f000 f97e 	bl	10003ddc <vPortExitCritical>
10003ae0:	68e3      	ldr	r3, [r4, #12]
10003ae2:	2000      	movs	r0, #0
10003ae4:	2b00      	cmp	r3, #0
10003ae6:	d009      	beq.n	10003afc <xTimerCreateTimerTask+0x30>
10003ae8:	2303      	movs	r3, #3
10003aea:	3438      	adds	r4, #56	; 0x38
10003aec:	9300      	str	r3, [sp, #0]
10003aee:	2280      	movs	r2, #128	; 0x80
10003af0:	2300      	movs	r3, #0
10003af2:	4910      	ldr	r1, [pc, #64]	; (10003b34 <xTimerCreateTimerTask+0x68>)
10003af4:	4810      	ldr	r0, [pc, #64]	; (10003b38 <xTimerCreateTimerTask+0x6c>)
10003af6:	9401      	str	r4, [sp, #4]
10003af8:	f7fe fcb2 	bl	10002460 <xTaskCreate>
10003afc:	b002      	add	sp, #8
10003afe:	bd70      	pop	{r4, r5, r6, pc}
10003b00:	0026      	movs	r6, r4
10003b02:	0025      	movs	r5, r4
10003b04:	3610      	adds	r6, #16
10003b06:	0030      	movs	r0, r6
10003b08:	3524      	adds	r5, #36	; 0x24
10003b0a:	f000 f9e3 	bl	10003ed4 <vListInitialise>
10003b0e:	0028      	movs	r0, r5
10003b10:	f000 f9e0 	bl	10003ed4 <vListInitialise>
10003b14:	2200      	movs	r2, #0
10003b16:	210c      	movs	r1, #12
10003b18:	200a      	movs	r0, #10
10003b1a:	6026      	str	r6, [r4, #0]
10003b1c:	60a5      	str	r5, [r4, #8]
10003b1e:	f000 fa6f 	bl	10004000 <xQueueGenericCreate>
10003b22:	60e0      	str	r0, [r4, #12]
10003b24:	2800      	cmp	r0, #0
10003b26:	d0d9      	beq.n	10003adc <xTimerCreateTimerTask+0x10>
10003b28:	4904      	ldr	r1, [pc, #16]	; (10003b3c <xTimerCreateTimerTask+0x70>)
10003b2a:	f001 f9b1 	bl	10004e90 <vQueueAddToRegistry>
10003b2e:	e7d5      	b.n	10003adc <xTimerCreateTimerTask+0x10>
10003b30:	20000f20 	.word	0x20000f20
10003b34:	10005b60 	.word	0x10005b60
10003b38:	100037b5 	.word	0x100037b5
10003b3c:	10005b58 	.word	0x10005b58

10003b40 <xTimerCreate>:
10003b40:	b5f8      	push	{r3, r4, r5, r6, r7, lr}
10003b42:	4645      	mov	r5, r8
10003b44:	46de      	mov	lr, fp
10003b46:	4657      	mov	r7, sl
10003b48:	464e      	mov	r6, r9
10003b4a:	b5e0      	push	{r5, r6, r7, lr}
10003b4c:	0007      	movs	r7, r0
10003b4e:	2028      	movs	r0, #40	; 0x28
10003b50:	4688      	mov	r8, r1
10003b52:	0016      	movs	r6, r2
10003b54:	001d      	movs	r5, r3
10003b56:	f000 f8d7 	bl	10003d08 <pvPortMalloc>
10003b5a:	1e04      	subs	r4, r0, #0
10003b5c:	d01b      	beq.n	10003b96 <xTimerCreate+0x56>
10003b5e:	2324      	movs	r3, #36	; 0x24
10003b60:	2200      	movs	r2, #0
10003b62:	54c2      	strb	r2, [r0, r3]
10003b64:	f000 f92e 	bl	10003dc4 <vPortEnterCritical>
10003b68:	4b1d      	ldr	r3, [pc, #116]	; (10003be0 <xTimerCreate+0xa0>)
10003b6a:	4699      	mov	r9, r3
10003b6c:	68db      	ldr	r3, [r3, #12]
10003b6e:	2b00      	cmp	r3, #0
10003b70:	d018      	beq.n	10003ba4 <xTimerCreate+0x64>
10003b72:	f000 f933 	bl	10003ddc <vPortExitCritical>
10003b76:	4643      	mov	r3, r8
10003b78:	61a3      	str	r3, [r4, #24]
10003b7a:	9b0a      	ldr	r3, [sp, #40]	; 0x28
10003b7c:	6027      	str	r7, [r4, #0]
10003b7e:	61e5      	str	r5, [r4, #28]
10003b80:	6223      	str	r3, [r4, #32]
10003b82:	1d20      	adds	r0, r4, #4
10003b84:	f000 f9b2 	bl	10003eec <vListInitialiseItem>
10003b88:	2e00      	cmp	r6, #0
10003b8a:	d004      	beq.n	10003b96 <xTimerCreate+0x56>
10003b8c:	2224      	movs	r2, #36	; 0x24
10003b8e:	2104      	movs	r1, #4
10003b90:	5ca3      	ldrb	r3, [r4, r2]
10003b92:	430b      	orrs	r3, r1
10003b94:	54a3      	strb	r3, [r4, r2]
10003b96:	0020      	movs	r0, r4
10003b98:	bcf0      	pop	{r4, r5, r6, r7}
10003b9a:	46bb      	mov	fp, r7
10003b9c:	46b2      	mov	sl, r6
10003b9e:	46a9      	mov	r9, r5
10003ba0:	46a0      	mov	r8, r4
10003ba2:	bdf8      	pop	{r3, r4, r5, r6, r7, pc}
10003ba4:	3310      	adds	r3, #16
10003ba6:	444b      	add	r3, r9
10003ba8:	0018      	movs	r0, r3
10003baa:	469b      	mov	fp, r3
10003bac:	f000 f992 	bl	10003ed4 <vListInitialise>
10003bb0:	2324      	movs	r3, #36	; 0x24
10003bb2:	444b      	add	r3, r9
10003bb4:	0018      	movs	r0, r3
10003bb6:	469a      	mov	sl, r3
10003bb8:	f000 f98c 	bl	10003ed4 <vListInitialise>
10003bbc:	464b      	mov	r3, r9
10003bbe:	465a      	mov	r2, fp
10003bc0:	601a      	str	r2, [r3, #0]
10003bc2:	4652      	mov	r2, sl
10003bc4:	210c      	movs	r1, #12
10003bc6:	609a      	str	r2, [r3, #8]
10003bc8:	200a      	movs	r0, #10
10003bca:	2200      	movs	r2, #0
10003bcc:	f000 fa18 	bl	10004000 <xQueueGenericCreate>
10003bd0:	464b      	mov	r3, r9
10003bd2:	60d8      	str	r0, [r3, #12]
10003bd4:	2800      	cmp	r0, #0
10003bd6:	d0cc      	beq.n	10003b72 <xTimerCreate+0x32>
10003bd8:	4902      	ldr	r1, [pc, #8]	; (10003be4 <xTimerCreate+0xa4>)
10003bda:	f001 f959 	bl	10004e90 <vQueueAddToRegistry>
10003bde:	e7c8      	b.n	10003b72 <xTimerCreate+0x32>
10003be0:	20000f20 	.word	0x20000f20
10003be4:	10005b58 	.word	0x10005b58

10003be8 <xTimerGenericCommandFromTask>:
10003be8:	b510      	push	{r4, lr}
10003bea:	4c0f      	ldr	r4, [pc, #60]	; (10003c28 <xTimerGenericCommandFromTask+0x40>)
10003bec:	b084      	sub	sp, #16
10003bee:	68e3      	ldr	r3, [r4, #12]
10003bf0:	2b00      	cmp	r3, #0
10003bf2:	d004      	beq.n	10003bfe <xTimerGenericCommandFromTask+0x16>
10003bf4:	9101      	str	r1, [sp, #4]
10003bf6:	9202      	str	r2, [sp, #8]
10003bf8:	9003      	str	r0, [sp, #12]
10003bfa:	2905      	cmp	r1, #5
10003bfc:	dd02      	ble.n	10003c04 <xTimerGenericCommandFromTask+0x1c>
10003bfe:	2000      	movs	r0, #0
10003c00:	b004      	add	sp, #16
10003c02:	bd10      	pop	{r4, pc}
10003c04:	f7ff fb8a 	bl	1000331c <xTaskGetSchedulerState>
10003c08:	2802      	cmp	r0, #2
10003c0a:	d006      	beq.n	10003c1a <xTimerGenericCommandFromTask+0x32>
10003c0c:	2300      	movs	r3, #0
10003c0e:	2200      	movs	r2, #0
10003c10:	68e0      	ldr	r0, [r4, #12]
10003c12:	a901      	add	r1, sp, #4
10003c14:	f000 fa40 	bl	10004098 <xQueueGenericSend>
10003c18:	e7f2      	b.n	10003c00 <xTimerGenericCommandFromTask+0x18>
10003c1a:	2300      	movs	r3, #0
10003c1c:	68e0      	ldr	r0, [r4, #12]
10003c1e:	9a06      	ldr	r2, [sp, #24]
10003c20:	a901      	add	r1, sp, #4
10003c22:	f000 fa39 	bl	10004098 <xQueueGenericSend>
10003c26:	e7eb      	b.n	10003c00 <xTimerGenericCommandFromTask+0x18>
10003c28:	20000f20 	.word	0x20000f20

10003c2c <xTimerGenericCommandFromISR>:
10003c2c:	b530      	push	{r4, r5, lr}
10003c2e:	001c      	movs	r4, r3
10003c30:	4b09      	ldr	r3, [pc, #36]	; (10003c58 <xTimerGenericCommandFromISR+0x2c>)
10003c32:	b085      	sub	sp, #20
10003c34:	68dd      	ldr	r5, [r3, #12]
10003c36:	2d00      	cmp	r5, #0
10003c38:	d004      	beq.n	10003c44 <xTimerGenericCommandFromISR+0x18>
10003c3a:	9101      	str	r1, [sp, #4]
10003c3c:	9202      	str	r2, [sp, #8]
10003c3e:	9003      	str	r0, [sp, #12]
10003c40:	2905      	cmp	r1, #5
10003c42:	dc02      	bgt.n	10003c4a <xTimerGenericCommandFromISR+0x1e>
10003c44:	2000      	movs	r0, #0
10003c46:	b005      	add	sp, #20
10003c48:	bd30      	pop	{r4, r5, pc}
10003c4a:	2300      	movs	r3, #0
10003c4c:	0022      	movs	r2, r4
10003c4e:	0028      	movs	r0, r5
10003c50:	a901      	add	r1, sp, #4
10003c52:	f000 fbad 	bl	100043b0 <xQueueGenericSendFromISR>
10003c56:	e7f6      	b.n	10003c46 <xTimerGenericCommandFromISR+0x1a>
10003c58:	20000f20 	.word	0x20000f20

10003c5c <xTimerGetTimerDaemonTaskHandle>:
10003c5c:	4b01      	ldr	r3, [pc, #4]	; (10003c64 <xTimerGetTimerDaemonTaskHandle+0x8>)
10003c5e:	6b98      	ldr	r0, [r3, #56]	; 0x38
10003c60:	4770      	bx	lr
10003c62:	46c0      	nop			; (mov r8, r8)
10003c64:	20000f20 	.word	0x20000f20

10003c68 <xTimerGetPeriod>:
10003c68:	6980      	ldr	r0, [r0, #24]
10003c6a:	4770      	bx	lr

10003c6c <vTimerSetReloadMode>:
10003c6c:	b570      	push	{r4, r5, r6, lr}
10003c6e:	0004      	movs	r4, r0
10003c70:	000d      	movs	r5, r1
10003c72:	f000 f8a7 	bl	10003dc4 <vPortEnterCritical>
10003c76:	2324      	movs	r3, #36	; 0x24
10003c78:	2204      	movs	r2, #4
10003c7a:	5ce3      	ldrb	r3, [r4, r3]
10003c7c:	2d00      	cmp	r5, #0
10003c7e:	d005      	beq.n	10003c8c <vTimerSetReloadMode+0x20>
10003c80:	4313      	orrs	r3, r2
10003c82:	2224      	movs	r2, #36	; 0x24
10003c84:	54a3      	strb	r3, [r4, r2]
10003c86:	f000 f8a9 	bl	10003ddc <vPortExitCritical>
10003c8a:	bd70      	pop	{r4, r5, r6, pc}
10003c8c:	4393      	bics	r3, r2
10003c8e:	e7f8      	b.n	10003c82 <vTimerSetReloadMode+0x16>

10003c90 <xTimerGetReloadMode>:
10003c90:	b510      	push	{r4, lr}
10003c92:	0004      	movs	r4, r0
10003c94:	f000 f896 	bl	10003dc4 <vPortEnterCritical>
10003c98:	2324      	movs	r3, #36	; 0x24
10003c9a:	5ce4      	ldrb	r4, [r4, r3]
10003c9c:	f000 f89e 	bl	10003ddc <vPortExitCritical>
10003ca0:	0764      	lsls	r4, r4, #29
10003ca2:	0fe4      	lsrs	r4, r4, #31
10003ca4:	0020      	movs	r0, r4
10003ca6:	bd10      	pop	{r4, pc}

10003ca8 <uxTimerGetReloadMode>:
10003ca8:	b510      	push	{r4, lr}
10003caa:	0004      	movs	r4, r0
10003cac:	f000 f88a 	bl	10003dc4 <vPortEnterCritical>
10003cb0:	2324      	movs	r3, #36	; 0x24
10003cb2:	5ce4      	ldrb	r4, [r4, r3]
10003cb4:	f000 f892 	bl	10003ddc <vPortExitCritical>
10003cb8:	0764      	lsls	r4, r4, #29
10003cba:	0fe4      	lsrs	r4, r4, #31
10003cbc:	0020      	movs	r0, r4
10003cbe:	bd10      	pop	{r4, pc}

10003cc0 <xTimerGetExpiryTime>:
10003cc0:	6840      	ldr	r0, [r0, #4]
10003cc2:	4770      	bx	lr

10003cc4 <pcTimerGetName>:
10003cc4:	6800      	ldr	r0, [r0, #0]
10003cc6:	4770      	bx	lr

10003cc8 <xTimerIsTimerActive>:
10003cc8:	b510      	push	{r4, lr}
10003cca:	0004      	movs	r4, r0
10003ccc:	f000 f87a 	bl	10003dc4 <vPortEnterCritical>
10003cd0:	2324      	movs	r3, #36	; 0x24
10003cd2:	5ce3      	ldrb	r3, [r4, r3]
10003cd4:	2401      	movs	r4, #1
10003cd6:	401c      	ands	r4, r3
10003cd8:	f000 f880 	bl	10003ddc <vPortExitCritical>
10003cdc:	0020      	movs	r0, r4
10003cde:	bd10      	pop	{r4, pc}

10003ce0 <pvTimerGetTimerID>:
10003ce0:	b510      	push	{r4, lr}
10003ce2:	0004      	movs	r4, r0
10003ce4:	f000 f86e 	bl	10003dc4 <vPortEnterCritical>
10003ce8:	69e4      	ldr	r4, [r4, #28]
10003cea:	f000 f877 	bl	10003ddc <vPortExitCritical>
10003cee:	0020      	movs	r0, r4
10003cf0:	bd10      	pop	{r4, pc}
10003cf2:	46c0      	nop			; (mov r8, r8)

10003cf4 <vTimerSetTimerID>:
10003cf4:	b570      	push	{r4, r5, r6, lr}
10003cf6:	000d      	movs	r5, r1
10003cf8:	0004      	movs	r4, r0
10003cfa:	f000 f863 	bl	10003dc4 <vPortEnterCritical>
10003cfe:	61e5      	str	r5, [r4, #28]
10003d00:	f000 f86c 	bl	10003ddc <vPortExitCritical>
10003d04:	bd70      	pop	{r4, r5, r6, pc}
10003d06:	46c0      	nop			; (mov r8, r8)

10003d08 <pvPortMalloc>:
10003d08:	b510      	push	{r4, lr}
10003d0a:	0004      	movs	r4, r0
10003d0c:	f7fe ff7a 	bl	10002c04 <vTaskSuspendAll>
10003d10:	0020      	movs	r0, r4
10003d12:	f7fe f83f 	bl	10001d94 <__wrap_malloc>
10003d16:	0004      	movs	r4, r0
10003d18:	f7fe ff7c 	bl	10002c14 <xTaskResumeAll>
10003d1c:	0020      	movs	r0, r4
10003d1e:	bd10      	pop	{r4, pc}

10003d20 <vPortFree>:
10003d20:	b510      	push	{r4, lr}
10003d22:	1e04      	subs	r4, r0, #0
10003d24:	d006      	beq.n	10003d34 <vPortFree+0x14>
10003d26:	f7fe ff6d 	bl	10002c04 <vTaskSuspendAll>
10003d2a:	0020      	movs	r0, r4
10003d2c:	f7fe f844 	bl	10001db8 <__wrap_free>
10003d30:	f7fe ff70 	bl	10002c14 <xTaskResumeAll>
10003d34:	bd10      	pop	{r4, pc}
10003d36:	46c0      	nop			; (mov r8, r8)
	...

10003d40 <prvTaskExitError>:
10003d40:	2300      	movs	r3, #0
10003d42:	b082      	sub	sp, #8
10003d44:	9301      	str	r3, [sp, #4]
10003d46:	b672      	cpsid	i
10003d48:	9b01      	ldr	r3, [sp, #4]
10003d4a:	2b00      	cmp	r3, #0
10003d4c:	d0fc      	beq.n	10003d48 <prvTaskExitError+0x8>
10003d4e:	b002      	add	sp, #8
10003d50:	4770      	bx	lr
10003d52:	46c0      	nop			; (mov r8, r8)

10003d54 <vPortStartFirstTask>:
10003d54:	4a0a      	ldr	r2, [pc, #40]	; (10003d80 <pxCurrentTCBConst2>)
10003d56:	6813      	ldr	r3, [r2, #0]
10003d58:	6818      	ldr	r0, [r3, #0]
10003d5a:	3020      	adds	r0, #32
10003d5c:	f380 8809 	msr	PSP, r0
10003d60:	2002      	movs	r0, #2
10003d62:	f380 8814 	msr	CONTROL, r0
10003d66:	f3bf 8f6f 	isb	sy
10003d6a:	bc3f      	pop	{r0, r1, r2, r3, r4, r5}
10003d6c:	46ae      	mov	lr, r5
10003d6e:	bc08      	pop	{r3}
10003d70:	bc04      	pop	{r2}
10003d72:	b662      	cpsie	i
10003d74:	4718      	bx	r3
10003d76:	46c0      	nop			; (mov r8, r8)
10003d78:	46c0      	nop			; (mov r8, r8)
10003d7a:	46c0      	nop			; (mov r8, r8)
10003d7c:	46c0      	nop			; (mov r8, r8)
10003d7e:	46c0      	nop			; (mov r8, r8)

10003d80 <pxCurrentTCBConst2>:
10003d80:	20000ea0 	.word	0x20000ea0

10003d84 <pxPortInitialiseStack>:
10003d84:	b510      	push	{r4, lr}
10003d86:	2480      	movs	r4, #128	; 0x80
10003d88:	1f03      	subs	r3, r0, #4
10003d8a:	0464      	lsls	r4, r4, #17
10003d8c:	601c      	str	r4, [r3, #0]
10003d8e:	3b04      	subs	r3, #4
10003d90:	6019      	str	r1, [r3, #0]
10003d92:	4903      	ldr	r1, [pc, #12]	; (10003da0 <pxPortInitialiseStack+0x1c>)
10003d94:	3b04      	subs	r3, #4
10003d96:	6019      	str	r1, [r3, #0]
10003d98:	3b14      	subs	r3, #20
10003d9a:	3840      	subs	r0, #64	; 0x40
10003d9c:	601a      	str	r2, [r3, #0]
10003d9e:	bd10      	pop	{r4, pc}
10003da0:	10003d41 	.word	0x10003d41

10003da4 <isr_svcall>:
10003da4:	4770      	bx	lr
10003da6:	46c0      	nop			; (mov r8, r8)

10003da8 <vPortEndScheduler>:
10003da8:	4770      	bx	lr
10003daa:	46c0      	nop			; (mov r8, r8)

10003dac <vPortYield>:
10003dac:	2280      	movs	r2, #128	; 0x80
10003dae:	4b04      	ldr	r3, [pc, #16]	; (10003dc0 <vPortYield+0x14>)
10003db0:	0552      	lsls	r2, r2, #21
10003db2:	601a      	str	r2, [r3, #0]
10003db4:	f3bf 8f4f 	dsb	sy
10003db8:	f3bf 8f6f 	isb	sy
10003dbc:	4770      	bx	lr
10003dbe:	46c0      	nop			; (mov r8, r8)
10003dc0:	e000ed04 	.word	0xe000ed04

10003dc4 <vPortEnterCritical>:
10003dc4:	b672      	cpsid	i
10003dc6:	4a04      	ldr	r2, [pc, #16]	; (10003dd8 <vPortEnterCritical+0x14>)
10003dc8:	6813      	ldr	r3, [r2, #0]
10003dca:	3301      	adds	r3, #1
10003dcc:	6013      	str	r3, [r2, #0]
10003dce:	f3bf 8f4f 	dsb	sy
10003dd2:	f3bf 8f6f 	isb	sy
10003dd6:	4770      	bx	lr
10003dd8:	2000024c 	.word	0x2000024c

10003ddc <vPortExitCritical>:
10003ddc:	4a03      	ldr	r2, [pc, #12]	; (10003dec <vPortExitCritical+0x10>)
10003dde:	6813      	ldr	r3, [r2, #0]
10003de0:	3b01      	subs	r3, #1
10003de2:	6013      	str	r3, [r2, #0]
10003de4:	2b00      	cmp	r3, #0
10003de6:	d100      	bne.n	10003dea <vPortExitCritical+0xe>
10003de8:	b662      	cpsie	i
10003dea:	4770      	bx	lr
10003dec:	2000024c 	.word	0x2000024c

10003df0 <ulSetInterruptMaskFromISR>:
10003df0:	f3ef 8010 	mrs	r0, PRIMASK
10003df4:	b672      	cpsid	i
10003df6:	4770      	bx	lr

10003df8 <vClearInterruptMaskFromISR>:
10003df8:	f380 8810 	msr	PRIMASK, r0
10003dfc:	4770      	bx	lr
10003dfe:	46c0      	nop			; (mov r8, r8)

10003e00 <isr_pendsv>:
10003e00:	f3ef 8009 	mrs	r0, PSP
10003e04:	4b0e      	ldr	r3, [pc, #56]	; (10003e40 <pxCurrentTCBConst>)
10003e06:	681a      	ldr	r2, [r3, #0]
10003e08:	3820      	subs	r0, #32
10003e0a:	6010      	str	r0, [r2, #0]
10003e0c:	c0f0      	stmia	r0!, {r4, r5, r6, r7}
10003e0e:	4644      	mov	r4, r8
10003e10:	464d      	mov	r5, r9
10003e12:	4656      	mov	r6, sl
10003e14:	465f      	mov	r7, fp
10003e16:	c0f0      	stmia	r0!, {r4, r5, r6, r7}
10003e18:	b508      	push	{r3, lr}
10003e1a:	b672      	cpsid	i
10003e1c:	f7ff f840 	bl	10002ea0 <vTaskSwitchContext>
10003e20:	b662      	cpsie	i
10003e22:	bc0c      	pop	{r2, r3}
10003e24:	6811      	ldr	r1, [r2, #0]
10003e26:	6808      	ldr	r0, [r1, #0]
10003e28:	3010      	adds	r0, #16
10003e2a:	c8f0      	ldmia	r0!, {r4, r5, r6, r7}
10003e2c:	46a0      	mov	r8, r4
10003e2e:	46a9      	mov	r9, r5
10003e30:	46b2      	mov	sl, r6
10003e32:	46bb      	mov	fp, r7
10003e34:	f380 8809 	msr	PSP, r0
10003e38:	3820      	subs	r0, #32
10003e3a:	c8f0      	ldmia	r0!, {r4, r5, r6, r7}
10003e3c:	4718      	bx	r3
10003e3e:	46c0      	nop			; (mov r8, r8)

10003e40 <pxCurrentTCBConst>:
10003e40:	20000ea0 	.word	0x20000ea0

10003e44 <isr_systick>:
10003e44:	b510      	push	{r4, lr}
10003e46:	f7ff ffd3 	bl	10003df0 <ulSetInterruptMaskFromISR>
10003e4a:	0004      	movs	r4, r0
10003e4c:	f7ff f816 	bl	10002e7c <xTaskIncrementTick>
10003e50:	2800      	cmp	r0, #0
10003e52:	d003      	beq.n	10003e5c <isr_systick+0x18>
10003e54:	2280      	movs	r2, #128	; 0x80
10003e56:	4b03      	ldr	r3, [pc, #12]	; (10003e64 <isr_systick+0x20>)
10003e58:	0552      	lsls	r2, r2, #21
10003e5a:	601a      	str	r2, [r3, #0]
10003e5c:	0020      	movs	r0, r4
10003e5e:	f7ff ffcb 	bl	10003df8 <vClearInterruptMaskFromISR>
10003e62:	bd10      	pop	{r4, pc}
10003e64:	e000ed04 	.word	0xe000ed04

10003e68 <vPortSetupTimerInterrupt>:
10003e68:	2200      	movs	r2, #0
10003e6a:	4b05      	ldr	r3, [pc, #20]	; (10003e80 <vPortSetupTimerInterrupt+0x18>)
10003e6c:	4905      	ldr	r1, [pc, #20]	; (10003e84 <vPortSetupTimerInterrupt+0x1c>)
10003e6e:	601a      	str	r2, [r3, #0]
10003e70:	600a      	str	r2, [r1, #0]
10003e72:	4a05      	ldr	r2, [pc, #20]	; (10003e88 <vPortSetupTimerInterrupt+0x20>)
10003e74:	4905      	ldr	r1, [pc, #20]	; (10003e8c <vPortSetupTimerInterrupt+0x24>)
10003e76:	6011      	str	r1, [r2, #0]
10003e78:	2207      	movs	r2, #7
10003e7a:	601a      	str	r2, [r3, #0]
10003e7c:	4770      	bx	lr
10003e7e:	46c0      	nop			; (mov r8, r8)
10003e80:	e000e010 	.word	0xe000e010
10003e84:	e000e018 	.word	0xe000e018
10003e88:	e000e014 	.word	0xe000e014
10003e8c:	00144b4f 	.word	0x00144b4f

10003e90 <xPortStartScheduler>:
10003e90:	22ff      	movs	r2, #255	; 0xff
10003e92:	4b0e      	ldr	r3, [pc, #56]	; (10003ecc <xPortStartScheduler+0x3c>)
10003e94:	0412      	lsls	r2, r2, #16
10003e96:	6819      	ldr	r1, [r3, #0]
10003e98:	b510      	push	{r4, lr}
10003e9a:	430a      	orrs	r2, r1
10003e9c:	601a      	str	r2, [r3, #0]
10003e9e:	22ff      	movs	r2, #255	; 0xff
10003ea0:	2400      	movs	r4, #0
10003ea2:	6819      	ldr	r1, [r3, #0]
10003ea4:	0612      	lsls	r2, r2, #24
10003ea6:	430a      	orrs	r2, r1
10003ea8:	b082      	sub	sp, #8
10003eaa:	601a      	str	r2, [r3, #0]
10003eac:	f7ff ffdc 	bl	10003e68 <vPortSetupTimerInterrupt>
10003eb0:	4b07      	ldr	r3, [pc, #28]	; (10003ed0 <xPortStartScheduler+0x40>)
10003eb2:	601c      	str	r4, [r3, #0]
10003eb4:	f7ff ff4e 	bl	10003d54 <vPortStartFirstTask>
10003eb8:	f7fe fff2 	bl	10002ea0 <vTaskSwitchContext>
10003ebc:	9401      	str	r4, [sp, #4]
10003ebe:	b672      	cpsid	i
10003ec0:	9b01      	ldr	r3, [sp, #4]
10003ec2:	2b00      	cmp	r3, #0
10003ec4:	d0fc      	beq.n	10003ec0 <xPortStartScheduler+0x30>
10003ec6:	2000      	movs	r0, #0
10003ec8:	b002      	add	sp, #8
10003eca:	bd10      	pop	{r4, pc}
10003ecc:	e000ed20 	.word	0xe000ed20
10003ed0:	2000024c 	.word	0x2000024c

10003ed4 <vListInitialise>:
10003ed4:	0003      	movs	r3, r0
10003ed6:	3308      	adds	r3, #8
10003ed8:	2201      	movs	r2, #1
10003eda:	6043      	str	r3, [r0, #4]
10003edc:	60c3      	str	r3, [r0, #12]
10003ede:	6103      	str	r3, [r0, #16]
10003ee0:	2300      	movs	r3, #0
10003ee2:	4252      	negs	r2, r2
10003ee4:	6082      	str	r2, [r0, #8]
10003ee6:	6003      	str	r3, [r0, #0]
10003ee8:	4770      	bx	lr
10003eea:	46c0      	nop			; (mov r8, r8)

10003eec <vListInitialiseItem>:
10003eec:	2300      	movs	r3, #0
10003eee:	6103      	str	r3, [r0, #16]
10003ef0:	4770      	bx	lr
10003ef2:	46c0      	nop			; (mov r8, r8)

10003ef4 <vListInsertEnd>:
10003ef4:	6843      	ldr	r3, [r0, #4]
10003ef6:	689a      	ldr	r2, [r3, #8]
10003ef8:	604b      	str	r3, [r1, #4]
10003efa:	608a      	str	r2, [r1, #8]
10003efc:	689a      	ldr	r2, [r3, #8]
10003efe:	6051      	str	r1, [r2, #4]
10003f00:	6099      	str	r1, [r3, #8]
10003f02:	6803      	ldr	r3, [r0, #0]
10003f04:	6108      	str	r0, [r1, #16]
10003f06:	3301      	adds	r3, #1
10003f08:	6003      	str	r3, [r0, #0]
10003f0a:	4770      	bx	lr

10003f0c <vListInsert>:
10003f0c:	0003      	movs	r3, r0
10003f0e:	b530      	push	{r4, r5, lr}
10003f10:	680c      	ldr	r4, [r1, #0]
10003f12:	3308      	adds	r3, #8
10003f14:	1c62      	adds	r2, r4, #1
10003f16:	d00d      	beq.n	10003f34 <vListInsert+0x28>
10003f18:	001a      	movs	r2, r3
10003f1a:	685b      	ldr	r3, [r3, #4]
10003f1c:	681d      	ldr	r5, [r3, #0]
10003f1e:	42a5      	cmp	r5, r4
10003f20:	d9fa      	bls.n	10003f18 <vListInsert+0xc>
10003f22:	604b      	str	r3, [r1, #4]
10003f24:	6099      	str	r1, [r3, #8]
10003f26:	6803      	ldr	r3, [r0, #0]
10003f28:	608a      	str	r2, [r1, #8]
10003f2a:	3301      	adds	r3, #1
10003f2c:	6051      	str	r1, [r2, #4]
10003f2e:	6108      	str	r0, [r1, #16]
10003f30:	6003      	str	r3, [r0, #0]
10003f32:	bd30      	pop	{r4, r5, pc}
10003f34:	6902      	ldr	r2, [r0, #16]
10003f36:	6853      	ldr	r3, [r2, #4]
10003f38:	e7f3      	b.n	10003f22 <vListInsert+0x16>
10003f3a:	46c0      	nop			; (mov r8, r8)

10003f3c <uxListRemove>:
10003f3c:	6903      	ldr	r3, [r0, #16]
10003f3e:	6841      	ldr	r1, [r0, #4]
10003f40:	6882      	ldr	r2, [r0, #8]
10003f42:	608a      	str	r2, [r1, #8]
10003f44:	6051      	str	r1, [r2, #4]
10003f46:	6859      	ldr	r1, [r3, #4]
10003f48:	4281      	cmp	r1, r0
10003f4a:	d006      	beq.n	10003f5a <uxListRemove+0x1e>
10003f4c:	2200      	movs	r2, #0
10003f4e:	6102      	str	r2, [r0, #16]
10003f50:	681a      	ldr	r2, [r3, #0]
10003f52:	3a01      	subs	r2, #1
10003f54:	601a      	str	r2, [r3, #0]
10003f56:	6818      	ldr	r0, [r3, #0]
10003f58:	4770      	bx	lr
10003f5a:	605a      	str	r2, [r3, #4]
10003f5c:	e7f6      	b.n	10003f4c <uxListRemove+0x10>
10003f5e:	46c0      	nop			; (mov r8, r8)

10003f60 <xQueueGenericReset>:
10003f60:	b570      	push	{r4, r5, r6, lr}
10003f62:	0004      	movs	r4, r0
10003f64:	000d      	movs	r5, r1
10003f66:	2800      	cmp	r0, #0
10003f68:	d032      	beq.n	10003fd0 <xQueueGenericReset+0x70>
10003f6a:	6bc3      	ldr	r3, [r0, #60]	; 0x3c
10003f6c:	2000      	movs	r0, #0
10003f6e:	2b00      	cmp	r3, #0
10003f70:	d020      	beq.n	10003fb4 <xQueueGenericReset+0x54>
10003f72:	6c21      	ldr	r1, [r4, #64]	; 0x40
10003f74:	0c18      	lsrs	r0, r3, #16
10003f76:	0c0a      	lsrs	r2, r1, #16
10003f78:	d11d      	bne.n	10003fb6 <xQueueGenericReset+0x56>
10003f7a:	2800      	cmp	r0, #0
10003f7c:	d12a      	bne.n	10003fd4 <xQueueGenericReset+0x74>
10003f7e:	f7ff ff21 	bl	10003dc4 <vPortEnterCritical>
10003f82:	6c21      	ldr	r1, [r4, #64]	; 0x40
10003f84:	6be3      	ldr	r3, [r4, #60]	; 0x3c
10003f86:	6822      	ldr	r2, [r4, #0]
10003f88:	434b      	muls	r3, r1
10003f8a:	18d0      	adds	r0, r2, r3
10003f8c:	1a5b      	subs	r3, r3, r1
10003f8e:	18d3      	adds	r3, r2, r3
10003f90:	60a0      	str	r0, [r4, #8]
10003f92:	6062      	str	r2, [r4, #4]
10003f94:	60e3      	str	r3, [r4, #12]
10003f96:	2244      	movs	r2, #68	; 0x44
10003f98:	23ff      	movs	r3, #255	; 0xff
10003f9a:	2000      	movs	r0, #0
10003f9c:	63a0      	str	r0, [r4, #56]	; 0x38
10003f9e:	54a3      	strb	r3, [r4, r2]
10003fa0:	3201      	adds	r2, #1
10003fa2:	54a3      	strb	r3, [r4, r2]
10003fa4:	2d00      	cmp	r5, #0
10003fa6:	d118      	bne.n	10003fda <xQueueGenericReset+0x7a>
10003fa8:	6923      	ldr	r3, [r4, #16]
10003faa:	2b00      	cmp	r3, #0
10003fac:	d11e      	bne.n	10003fec <xQueueGenericReset+0x8c>
10003fae:	f7ff ff15 	bl	10003ddc <vPortExitCritical>
10003fb2:	2001      	movs	r0, #1
10003fb4:	bd70      	pop	{r4, r5, r6, pc}
10003fb6:	2800      	cmp	r0, #0
10003fb8:	d10a      	bne.n	10003fd0 <xQueueGenericReset+0x70>
10003fba:	1c18      	adds	r0, r3, #0
10003fbc:	b289      	uxth	r1, r1
10003fbe:	b29b      	uxth	r3, r3
10003fc0:	434b      	muls	r3, r1
10003fc2:	b280      	uxth	r0, r0
10003fc4:	b292      	uxth	r2, r2
10003fc6:	4342      	muls	r2, r0
10003fc8:	0c1b      	lsrs	r3, r3, #16
10003fca:	18d3      	adds	r3, r2, r3
10003fcc:	0c1b      	lsrs	r3, r3, #16
10003fce:	d0d6      	beq.n	10003f7e <xQueueGenericReset+0x1e>
10003fd0:	2000      	movs	r0, #0
10003fd2:	e7ef      	b.n	10003fb4 <xQueueGenericReset+0x54>
10003fd4:	1c02      	adds	r2, r0, #0
10003fd6:	1c08      	adds	r0, r1, #0
10003fd8:	e7f0      	b.n	10003fbc <xQueueGenericReset+0x5c>
10003fda:	0020      	movs	r0, r4
10003fdc:	3010      	adds	r0, #16
10003fde:	f7ff ff79 	bl	10003ed4 <vListInitialise>
10003fe2:	0020      	movs	r0, r4
10003fe4:	3024      	adds	r0, #36	; 0x24
10003fe6:	f7ff ff75 	bl	10003ed4 <vListInitialise>
10003fea:	e7e0      	b.n	10003fae <xQueueGenericReset+0x4e>
10003fec:	0020      	movs	r0, r4
10003fee:	3010      	adds	r0, #16
10003ff0:	f7ff f87e 	bl	100030f0 <xTaskRemoveFromEventList>
10003ff4:	2800      	cmp	r0, #0
10003ff6:	d0da      	beq.n	10003fae <xQueueGenericReset+0x4e>
10003ff8:	f7ff fed8 	bl	10003dac <vPortYield>
10003ffc:	e7d7      	b.n	10003fae <xQueueGenericReset+0x4e>
10003ffe:	46c0      	nop			; (mov r8, r8)

10004000 <xQueueGenericCreate>:
10004000:	b570      	push	{r4, r5, r6, lr}
10004002:	0005      	movs	r5, r0
10004004:	000e      	movs	r6, r1
10004006:	2800      	cmp	r0, #0
10004008:	d043      	beq.n	10004092 <xQueueGenericCreate+0x92>
1000400a:	0c0b      	lsrs	r3, r1, #16
1000400c:	0c02      	lsrs	r2, r0, #16
1000400e:	2b00      	cmp	r3, #0
10004010:	d131      	bne.n	10004076 <xQueueGenericCreate+0x76>
10004012:	1c33      	adds	r3, r6, #0
10004014:	2a00      	cmp	r2, #0
10004016:	d132      	bne.n	1000407e <xQueueGenericCreate+0x7e>
10004018:	0030      	movs	r0, r6
1000401a:	4368      	muls	r0, r5
1000401c:	0003      	movs	r3, r0
1000401e:	3349      	adds	r3, #73	; 0x49
10004020:	d837      	bhi.n	10004092 <xQueueGenericCreate+0x92>
10004022:	3048      	adds	r0, #72	; 0x48
10004024:	f7ff fe70 	bl	10003d08 <pvPortMalloc>
10004028:	1e04      	subs	r4, r0, #0
1000402a:	d032      	beq.n	10004092 <xQueueGenericCreate+0x92>
1000402c:	0003      	movs	r3, r0
1000402e:	2e00      	cmp	r6, #0
10004030:	d000      	beq.n	10004034 <xQueueGenericCreate+0x34>
10004032:	3348      	adds	r3, #72	; 0x48
10004034:	6023      	str	r3, [r4, #0]
10004036:	63e5      	str	r5, [r4, #60]	; 0x3c
10004038:	6426      	str	r6, [r4, #64]	; 0x40
1000403a:	f7ff fec3 	bl	10003dc4 <vPortEnterCritical>
1000403e:	6c21      	ldr	r1, [r4, #64]	; 0x40
10004040:	6be3      	ldr	r3, [r4, #60]	; 0x3c
10004042:	6822      	ldr	r2, [r4, #0]
10004044:	434b      	muls	r3, r1
10004046:	18d0      	adds	r0, r2, r3
10004048:	60a0      	str	r0, [r4, #8]
1000404a:	2000      	movs	r0, #0
1000404c:	1a5b      	subs	r3, r3, r1
1000404e:	18d3      	adds	r3, r2, r3
10004050:	6062      	str	r2, [r4, #4]
10004052:	60e3      	str	r3, [r4, #12]
10004054:	2244      	movs	r2, #68	; 0x44
10004056:	23ff      	movs	r3, #255	; 0xff
10004058:	63a0      	str	r0, [r4, #56]	; 0x38
1000405a:	0020      	movs	r0, r4
1000405c:	54a3      	strb	r3, [r4, r2]
1000405e:	3201      	adds	r2, #1
10004060:	54a3      	strb	r3, [r4, r2]
10004062:	3010      	adds	r0, #16
10004064:	f7ff ff36 	bl	10003ed4 <vListInitialise>
10004068:	0020      	movs	r0, r4
1000406a:	3024      	adds	r0, #36	; 0x24
1000406c:	f7ff ff32 	bl	10003ed4 <vListInitialise>
10004070:	f7ff feb4 	bl	10003ddc <vPortExitCritical>
10004074:	e00e      	b.n	10004094 <xQueueGenericCreate+0x94>
10004076:	2a00      	cmp	r2, #0
10004078:	d10b      	bne.n	10004092 <xQueueGenericCreate+0x92>
1000407a:	1c1a      	adds	r2, r3, #0
1000407c:	1c03      	adds	r3, r0, #0
1000407e:	b2b0      	uxth	r0, r6
10004080:	b2a9      	uxth	r1, r5
10004082:	4341      	muls	r1, r0
10004084:	b298      	uxth	r0, r3
10004086:	b293      	uxth	r3, r2
10004088:	4343      	muls	r3, r0
1000408a:	0c09      	lsrs	r1, r1, #16
1000408c:	185b      	adds	r3, r3, r1
1000408e:	0c1b      	lsrs	r3, r3, #16
10004090:	d0c2      	beq.n	10004018 <xQueueGenericCreate+0x18>
10004092:	2400      	movs	r4, #0
10004094:	0020      	movs	r0, r4
10004096:	bd70      	pop	{r4, r5, r6, pc}

10004098 <xQueueGenericSend>:
10004098:	b5f0      	push	{r4, r5, r6, r7, lr}
1000409a:	46ce      	mov	lr, r9
1000409c:	4647      	mov	r7, r8
1000409e:	0004      	movs	r4, r0
100040a0:	0006      	movs	r6, r0
100040a2:	b580      	push	{r7, lr}
100040a4:	b085      	sub	sp, #20
100040a6:	4699      	mov	r9, r3
100040a8:	9201      	str	r2, [sp, #4]
100040aa:	4688      	mov	r8, r1
100040ac:	f7ff fe8a 	bl	10003dc4 <vPortEnterCritical>
100040b0:	6ba3      	ldr	r3, [r4, #56]	; 0x38
100040b2:	6be2      	ldr	r2, [r4, #60]	; 0x3c
100040b4:	2500      	movs	r5, #0
100040b6:	3624      	adds	r6, #36	; 0x24
100040b8:	4293      	cmp	r3, r2
100040ba:	d37c      	bcc.n	100041b6 <xQueueGenericSend+0x11e>
100040bc:	464b      	mov	r3, r9
100040be:	2b02      	cmp	r3, #2
100040c0:	d100      	bne.n	100040c4 <xQueueGenericSend+0x2c>
100040c2:	e0e1      	b.n	10004288 <xQueueGenericSend+0x1f0>
100040c4:	9b01      	ldr	r3, [sp, #4]
100040c6:	2b00      	cmp	r3, #0
100040c8:	d100      	bne.n	100040cc <xQueueGenericSend+0x34>
100040ca:	e0f9      	b.n	100042c0 <xQueueGenericSend+0x228>
100040cc:	2d00      	cmp	r5, #0
100040ce:	d100      	bne.n	100040d2 <xQueueGenericSend+0x3a>
100040d0:	e0d6      	b.n	10004280 <xQueueGenericSend+0x1e8>
100040d2:	f7ff fe83 	bl	10003ddc <vPortExitCritical>
100040d6:	f7fe fd95 	bl	10002c04 <vTaskSuspendAll>
100040da:	f7ff fe73 	bl	10003dc4 <vPortEnterCritical>
100040de:	2244      	movs	r2, #68	; 0x44
100040e0:	5ca3      	ldrb	r3, [r4, r2]
100040e2:	b25b      	sxtb	r3, r3
100040e4:	3301      	adds	r3, #1
100040e6:	d101      	bne.n	100040ec <xQueueGenericSend+0x54>
100040e8:	2300      	movs	r3, #0
100040ea:	54a3      	strb	r3, [r4, r2]
100040ec:	2245      	movs	r2, #69	; 0x45
100040ee:	5ca3      	ldrb	r3, [r4, r2]
100040f0:	b25b      	sxtb	r3, r3
100040f2:	3301      	adds	r3, #1
100040f4:	d101      	bne.n	100040fa <xQueueGenericSend+0x62>
100040f6:	2300      	movs	r3, #0
100040f8:	54a3      	strb	r3, [r4, r2]
100040fa:	f7ff fe6f 	bl	10003ddc <vPortExitCritical>
100040fe:	a901      	add	r1, sp, #4
10004100:	a802      	add	r0, sp, #8
10004102:	f7ff f8b9 	bl	10003278 <xTaskCheckForTimeOut>
10004106:	2800      	cmp	r0, #0
10004108:	d000      	beq.n	1000410c <xQueueGenericSend+0x74>
1000410a:	e0dd      	b.n	100042c8 <xQueueGenericSend+0x230>
1000410c:	f7ff fe5a 	bl	10003dc4 <vPortEnterCritical>
10004110:	6ba3      	ldr	r3, [r4, #56]	; 0x38
10004112:	6be2      	ldr	r2, [r4, #60]	; 0x3c
10004114:	4293      	cmp	r3, r2
10004116:	d061      	beq.n	100041dc <xQueueGenericSend+0x144>
10004118:	f7ff fe60 	bl	10003ddc <vPortExitCritical>
1000411c:	f7ff fe52 	bl	10003dc4 <vPortEnterCritical>
10004120:	2345      	movs	r3, #69	; 0x45
10004122:	5ce5      	ldrb	r5, [r4, r3]
10004124:	b26d      	sxtb	r5, r5
10004126:	2d00      	cmp	r5, #0
10004128:	dc05      	bgt.n	10004136 <xQueueGenericSend+0x9e>
1000412a:	e013      	b.n	10004154 <xQueueGenericSend+0xbc>
1000412c:	3d01      	subs	r5, #1
1000412e:	b2eb      	uxtb	r3, r5
10004130:	b26d      	sxtb	r5, r5
10004132:	2b00      	cmp	r3, #0
10004134:	d00e      	beq.n	10004154 <xQueueGenericSend+0xbc>
10004136:	6a63      	ldr	r3, [r4, #36]	; 0x24
10004138:	2b00      	cmp	r3, #0
1000413a:	d00b      	beq.n	10004154 <xQueueGenericSend+0xbc>
1000413c:	0030      	movs	r0, r6
1000413e:	f7fe ffd7 	bl	100030f0 <xTaskRemoveFromEventList>
10004142:	2800      	cmp	r0, #0
10004144:	d0f2      	beq.n	1000412c <xQueueGenericSend+0x94>
10004146:	3d01      	subs	r5, #1
10004148:	f7ff f8be 	bl	100032c8 <vTaskMissedYield>
1000414c:	b2eb      	uxtb	r3, r5
1000414e:	b26d      	sxtb	r5, r5
10004150:	2b00      	cmp	r3, #0
10004152:	d1f0      	bne.n	10004136 <xQueueGenericSend+0x9e>
10004154:	2345      	movs	r3, #69	; 0x45
10004156:	22ff      	movs	r2, #255	; 0xff
10004158:	54e2      	strb	r2, [r4, r3]
1000415a:	f7ff fe3f 	bl	10003ddc <vPortExitCritical>
1000415e:	f7ff fe31 	bl	10003dc4 <vPortEnterCritical>
10004162:	2344      	movs	r3, #68	; 0x44
10004164:	0027      	movs	r7, r4
10004166:	5ce5      	ldrb	r5, [r4, r3]
10004168:	3710      	adds	r7, #16
1000416a:	b26d      	sxtb	r5, r5
1000416c:	2d00      	cmp	r5, #0
1000416e:	dc05      	bgt.n	1000417c <xQueueGenericSend+0xe4>
10004170:	e013      	b.n	1000419a <xQueueGenericSend+0x102>
10004172:	3d01      	subs	r5, #1
10004174:	b2eb      	uxtb	r3, r5
10004176:	b26d      	sxtb	r5, r5
10004178:	2b00      	cmp	r3, #0
1000417a:	d00e      	beq.n	1000419a <xQueueGenericSend+0x102>
1000417c:	6923      	ldr	r3, [r4, #16]
1000417e:	2b00      	cmp	r3, #0
10004180:	d00b      	beq.n	1000419a <xQueueGenericSend+0x102>
10004182:	0038      	movs	r0, r7
10004184:	f7fe ffb4 	bl	100030f0 <xTaskRemoveFromEventList>
10004188:	2800      	cmp	r0, #0
1000418a:	d0f2      	beq.n	10004172 <xQueueGenericSend+0xda>
1000418c:	3d01      	subs	r5, #1
1000418e:	f7ff f89b 	bl	100032c8 <vTaskMissedYield>
10004192:	b2eb      	uxtb	r3, r5
10004194:	b26d      	sxtb	r5, r5
10004196:	2b00      	cmp	r3, #0
10004198:	d1f0      	bne.n	1000417c <xQueueGenericSend+0xe4>
1000419a:	2344      	movs	r3, #68	; 0x44
1000419c:	22ff      	movs	r2, #255	; 0xff
1000419e:	54e2      	strb	r2, [r4, r3]
100041a0:	f7ff fe1c 	bl	10003ddc <vPortExitCritical>
100041a4:	f7fe fd36 	bl	10002c14 <xTaskResumeAll>
100041a8:	2501      	movs	r5, #1
100041aa:	f7ff fe0b 	bl	10003dc4 <vPortEnterCritical>
100041ae:	6ba3      	ldr	r3, [r4, #56]	; 0x38
100041b0:	6be2      	ldr	r2, [r4, #60]	; 0x3c
100041b2:	4293      	cmp	r3, r2
100041b4:	d282      	bcs.n	100040bc <xQueueGenericSend+0x24>
100041b6:	6c22      	ldr	r2, [r4, #64]	; 0x40
100041b8:	6ba5      	ldr	r5, [r4, #56]	; 0x38
100041ba:	2a00      	cmp	r2, #0
100041bc:	d000      	beq.n	100041c0 <xQueueGenericSend+0x128>
100041be:	e0cd      	b.n	1000435c <xQueueGenericSend+0x2c4>
100041c0:	3501      	adds	r5, #1
100041c2:	63a5      	str	r5, [r4, #56]	; 0x38
100041c4:	6a63      	ldr	r3, [r4, #36]	; 0x24
100041c6:	2b00      	cmp	r3, #0
100041c8:	d000      	beq.n	100041cc <xQueueGenericSend+0x134>
100041ca:	e0db      	b.n	10004384 <xQueueGenericSend+0x2ec>
100041cc:	f7ff fe06 	bl	10003ddc <vPortExitCritical>
100041d0:	2001      	movs	r0, #1
100041d2:	b005      	add	sp, #20
100041d4:	bcc0      	pop	{r6, r7}
100041d6:	46b9      	mov	r9, r7
100041d8:	46b0      	mov	r8, r6
100041da:	bdf0      	pop	{r4, r5, r6, r7, pc}
100041dc:	0027      	movs	r7, r4
100041de:	3710      	adds	r7, #16
100041e0:	f7ff fdfc 	bl	10003ddc <vPortExitCritical>
100041e4:	0038      	movs	r0, r7
100041e6:	9901      	ldr	r1, [sp, #4]
100041e8:	f7fe feac 	bl	10002f44 <vTaskPlaceOnEventList>
100041ec:	f7ff fdea 	bl	10003dc4 <vPortEnterCritical>
100041f0:	2345      	movs	r3, #69	; 0x45
100041f2:	5ce5      	ldrb	r5, [r4, r3]
100041f4:	b26d      	sxtb	r5, r5
100041f6:	2d00      	cmp	r5, #0
100041f8:	dc05      	bgt.n	10004206 <xQueueGenericSend+0x16e>
100041fa:	e013      	b.n	10004224 <xQueueGenericSend+0x18c>
100041fc:	3d01      	subs	r5, #1
100041fe:	b2ea      	uxtb	r2, r5
10004200:	b26d      	sxtb	r5, r5
10004202:	2a00      	cmp	r2, #0
10004204:	d00e      	beq.n	10004224 <xQueueGenericSend+0x18c>
10004206:	6a63      	ldr	r3, [r4, #36]	; 0x24
10004208:	2b00      	cmp	r3, #0
1000420a:	d00b      	beq.n	10004224 <xQueueGenericSend+0x18c>
1000420c:	0030      	movs	r0, r6
1000420e:	f7fe ff6f 	bl	100030f0 <xTaskRemoveFromEventList>
10004212:	2800      	cmp	r0, #0
10004214:	d0f2      	beq.n	100041fc <xQueueGenericSend+0x164>
10004216:	3d01      	subs	r5, #1
10004218:	f7ff f856 	bl	100032c8 <vTaskMissedYield>
1000421c:	b2ea      	uxtb	r2, r5
1000421e:	b26d      	sxtb	r5, r5
10004220:	2a00      	cmp	r2, #0
10004222:	d1f0      	bne.n	10004206 <xQueueGenericSend+0x16e>
10004224:	2345      	movs	r3, #69	; 0x45
10004226:	22ff      	movs	r2, #255	; 0xff
10004228:	54e2      	strb	r2, [r4, r3]
1000422a:	f7ff fdd7 	bl	10003ddc <vPortExitCritical>
1000422e:	f7ff fdc9 	bl	10003dc4 <vPortEnterCritical>
10004232:	2344      	movs	r3, #68	; 0x44
10004234:	5ce5      	ldrb	r5, [r4, r3]
10004236:	b26d      	sxtb	r5, r5
10004238:	2d00      	cmp	r5, #0
1000423a:	dc05      	bgt.n	10004248 <xQueueGenericSend+0x1b0>
1000423c:	e013      	b.n	10004266 <xQueueGenericSend+0x1ce>
1000423e:	3d01      	subs	r5, #1
10004240:	b2ea      	uxtb	r2, r5
10004242:	b26d      	sxtb	r5, r5
10004244:	2a00      	cmp	r2, #0
10004246:	d00e      	beq.n	10004266 <xQueueGenericSend+0x1ce>
10004248:	6923      	ldr	r3, [r4, #16]
1000424a:	2b00      	cmp	r3, #0
1000424c:	d00b      	beq.n	10004266 <xQueueGenericSend+0x1ce>
1000424e:	0038      	movs	r0, r7
10004250:	f7fe ff4e 	bl	100030f0 <xTaskRemoveFromEventList>
10004254:	2800      	cmp	r0, #0
10004256:	d0f2      	beq.n	1000423e <xQueueGenericSend+0x1a6>
10004258:	3d01      	subs	r5, #1
1000425a:	f7ff f835 	bl	100032c8 <vTaskMissedYield>
1000425e:	b2ea      	uxtb	r2, r5
10004260:	b26d      	sxtb	r5, r5
10004262:	2a00      	cmp	r2, #0
10004264:	d1f0      	bne.n	10004248 <xQueueGenericSend+0x1b0>
10004266:	2344      	movs	r3, #68	; 0x44
10004268:	22ff      	movs	r2, #255	; 0xff
1000426a:	54e2      	strb	r2, [r4, r3]
1000426c:	f7ff fdb6 	bl	10003ddc <vPortExitCritical>
10004270:	f7fe fcd0 	bl	10002c14 <xTaskResumeAll>
10004274:	2800      	cmp	r0, #0
10004276:	d197      	bne.n	100041a8 <xQueueGenericSend+0x110>
10004278:	f7ff fd98 	bl	10003dac <vPortYield>
1000427c:	2501      	movs	r5, #1
1000427e:	e794      	b.n	100041aa <xQueueGenericSend+0x112>
10004280:	a802      	add	r0, sp, #8
10004282:	f7fe fff1 	bl	10003268 <vTaskInternalSetTimeOutState>
10004286:	e724      	b.n	100040d2 <xQueueGenericSend+0x3a>
10004288:	6c22      	ldr	r2, [r4, #64]	; 0x40
1000428a:	6ba5      	ldr	r5, [r4, #56]	; 0x38
1000428c:	2a00      	cmp	r2, #0
1000428e:	d097      	beq.n	100041c0 <xQueueGenericSend+0x128>
10004290:	4641      	mov	r1, r8
10004292:	68e0      	ldr	r0, [r4, #12]
10004294:	f7fd fda2 	bl	10001ddc <__wrap___aeabi_memcpy>
10004298:	68e1      	ldr	r1, [r4, #12]
1000429a:	6c23      	ldr	r3, [r4, #64]	; 0x40
1000429c:	425a      	negs	r2, r3
1000429e:	1acb      	subs	r3, r1, r3
100042a0:	6821      	ldr	r1, [r4, #0]
100042a2:	60e3      	str	r3, [r4, #12]
100042a4:	428b      	cmp	r3, r1
100042a6:	d207      	bcs.n	100042b8 <xQueueGenericSend+0x220>
100042a8:	68a3      	ldr	r3, [r4, #8]
100042aa:	469c      	mov	ip, r3
100042ac:	4462      	add	r2, ip
100042ae:	60e2      	str	r2, [r4, #12]
100042b0:	464b      	mov	r3, r9
100042b2:	2b02      	cmp	r3, #2
100042b4:	d000      	beq.n	100042b8 <xQueueGenericSend+0x220>
100042b6:	e783      	b.n	100041c0 <xQueueGenericSend+0x128>
100042b8:	2d00      	cmp	r5, #0
100042ba:	d000      	beq.n	100042be <xQueueGenericSend+0x226>
100042bc:	e781      	b.n	100041c2 <xQueueGenericSend+0x12a>
100042be:	e77f      	b.n	100041c0 <xQueueGenericSend+0x128>
100042c0:	f7ff fd8c 	bl	10003ddc <vPortExitCritical>
100042c4:	2000      	movs	r0, #0
100042c6:	e784      	b.n	100041d2 <xQueueGenericSend+0x13a>
100042c8:	f7ff fd7c 	bl	10003dc4 <vPortEnterCritical>
100042cc:	2345      	movs	r3, #69	; 0x45
100042ce:	0026      	movs	r6, r4
100042d0:	5ce5      	ldrb	r5, [r4, r3]
100042d2:	3624      	adds	r6, #36	; 0x24
100042d4:	b26d      	sxtb	r5, r5
100042d6:	2d00      	cmp	r5, #0
100042d8:	dc05      	bgt.n	100042e6 <xQueueGenericSend+0x24e>
100042da:	e013      	b.n	10004304 <xQueueGenericSend+0x26c>
100042dc:	3d01      	subs	r5, #1
100042de:	b2ea      	uxtb	r2, r5
100042e0:	b26d      	sxtb	r5, r5
100042e2:	2a00      	cmp	r2, #0
100042e4:	d00e      	beq.n	10004304 <xQueueGenericSend+0x26c>
100042e6:	6a63      	ldr	r3, [r4, #36]	; 0x24
100042e8:	2b00      	cmp	r3, #0
100042ea:	d00b      	beq.n	10004304 <xQueueGenericSend+0x26c>
100042ec:	0030      	movs	r0, r6
100042ee:	f7fe feff 	bl	100030f0 <xTaskRemoveFromEventList>
100042f2:	2800      	cmp	r0, #0
100042f4:	d0f2      	beq.n	100042dc <xQueueGenericSend+0x244>
100042f6:	3d01      	subs	r5, #1
100042f8:	f7fe ffe6 	bl	100032c8 <vTaskMissedYield>
100042fc:	b2ea      	uxtb	r2, r5
100042fe:	b26d      	sxtb	r5, r5
10004300:	2a00      	cmp	r2, #0
10004302:	d1f0      	bne.n	100042e6 <xQueueGenericSend+0x24e>
10004304:	2345      	movs	r3, #69	; 0x45
10004306:	22ff      	movs	r2, #255	; 0xff
10004308:	54e2      	strb	r2, [r4, r3]
1000430a:	f7ff fd67 	bl	10003ddc <vPortExitCritical>
1000430e:	f7ff fd59 	bl	10003dc4 <vPortEnterCritical>
10004312:	2344      	movs	r3, #68	; 0x44
10004314:	0026      	movs	r6, r4
10004316:	5ce5      	ldrb	r5, [r4, r3]
10004318:	3610      	adds	r6, #16
1000431a:	b26d      	sxtb	r5, r5
1000431c:	2d00      	cmp	r5, #0
1000431e:	dc05      	bgt.n	1000432c <xQueueGenericSend+0x294>
10004320:	e013      	b.n	1000434a <xQueueGenericSend+0x2b2>
10004322:	3d01      	subs	r5, #1
10004324:	b2ea      	uxtb	r2, r5
10004326:	b26d      	sxtb	r5, r5
10004328:	2a00      	cmp	r2, #0
1000432a:	d00e      	beq.n	1000434a <xQueueGenericSend+0x2b2>
1000432c:	6923      	ldr	r3, [r4, #16]
1000432e:	2b00      	cmp	r3, #0
10004330:	d00b      	beq.n	1000434a <xQueueGenericSend+0x2b2>
10004332:	0030      	movs	r0, r6
10004334:	f7fe fedc 	bl	100030f0 <xTaskRemoveFromEventList>
10004338:	2800      	cmp	r0, #0
1000433a:	d0f2      	beq.n	10004322 <xQueueGenericSend+0x28a>
1000433c:	3d01      	subs	r5, #1
1000433e:	f7fe ffc3 	bl	100032c8 <vTaskMissedYield>
10004342:	b2ea      	uxtb	r2, r5
10004344:	b26d      	sxtb	r5, r5
10004346:	2a00      	cmp	r2, #0
10004348:	d1f0      	bne.n	1000432c <xQueueGenericSend+0x294>
1000434a:	2344      	movs	r3, #68	; 0x44
1000434c:	22ff      	movs	r2, #255	; 0xff
1000434e:	54e2      	strb	r2, [r4, r3]
10004350:	f7ff fd44 	bl	10003ddc <vPortExitCritical>
10004354:	f7fe fc5e 	bl	10002c14 <xTaskResumeAll>
10004358:	2000      	movs	r0, #0
1000435a:	e73a      	b.n	100041d2 <xQueueGenericSend+0x13a>
1000435c:	464b      	mov	r3, r9
1000435e:	4641      	mov	r1, r8
10004360:	2b00      	cmp	r3, #0
10004362:	d119      	bne.n	10004398 <xQueueGenericSend+0x300>
10004364:	6860      	ldr	r0, [r4, #4]
10004366:	f7fd fd39 	bl	10001ddc <__wrap___aeabi_memcpy>
1000436a:	6c22      	ldr	r2, [r4, #64]	; 0x40
1000436c:	6863      	ldr	r3, [r4, #4]
1000436e:	4694      	mov	ip, r2
10004370:	68a2      	ldr	r2, [r4, #8]
10004372:	4463      	add	r3, ip
10004374:	6063      	str	r3, [r4, #4]
10004376:	4293      	cmp	r3, r2
10004378:	d200      	bcs.n	1000437c <xQueueGenericSend+0x2e4>
1000437a:	e721      	b.n	100041c0 <xQueueGenericSend+0x128>
1000437c:	6823      	ldr	r3, [r4, #0]
1000437e:	3501      	adds	r5, #1
10004380:	6063      	str	r3, [r4, #4]
10004382:	e71e      	b.n	100041c2 <xQueueGenericSend+0x12a>
10004384:	0020      	movs	r0, r4
10004386:	3024      	adds	r0, #36	; 0x24
10004388:	f7fe feb2 	bl	100030f0 <xTaskRemoveFromEventList>
1000438c:	2800      	cmp	r0, #0
1000438e:	d100      	bne.n	10004392 <xQueueGenericSend+0x2fa>
10004390:	e71c      	b.n	100041cc <xQueueGenericSend+0x134>
10004392:	f7ff fd0b 	bl	10003dac <vPortYield>
10004396:	e719      	b.n	100041cc <xQueueGenericSend+0x134>
10004398:	68e0      	ldr	r0, [r4, #12]
1000439a:	f7fd fd1f 	bl	10001ddc <__wrap___aeabi_memcpy>
1000439e:	68e1      	ldr	r1, [r4, #12]
100043a0:	6c23      	ldr	r3, [r4, #64]	; 0x40
100043a2:	425a      	negs	r2, r3
100043a4:	1acb      	subs	r3, r1, r3
100043a6:	6821      	ldr	r1, [r4, #0]
100043a8:	60e3      	str	r3, [r4, #12]
100043aa:	428b      	cmp	r3, r1
100043ac:	d280      	bcs.n	100042b0 <xQueueGenericSend+0x218>
100043ae:	e77b      	b.n	100042a8 <xQueueGenericSend+0x210>

100043b0 <xQueueGenericSendFromISR>:
100043b0:	b5f0      	push	{r4, r5, r6, r7, lr}
100043b2:	464f      	mov	r7, r9
100043b4:	46d6      	mov	lr, sl
100043b6:	4646      	mov	r6, r8
100043b8:	b5c0      	push	{r6, r7, lr}
100043ba:	0004      	movs	r4, r0
100043bc:	4699      	mov	r9, r3
100043be:	000f      	movs	r7, r1
100043c0:	4690      	mov	r8, r2
100043c2:	f7ff fd15 	bl	10003df0 <ulSetInterruptMaskFromISR>
100043c6:	6be3      	ldr	r3, [r4, #60]	; 0x3c
100043c8:	0005      	movs	r5, r0
100043ca:	6ba0      	ldr	r0, [r4, #56]	; 0x38
100043cc:	4298      	cmp	r0, r3
100043ce:	d337      	bcc.n	10004440 <xQueueGenericSendFromISR+0x90>
100043d0:	464b      	mov	r3, r9
100043d2:	2b02      	cmp	r3, #2
100043d4:	d009      	beq.n	100043ea <xQueueGenericSendFromISR+0x3a>
100043d6:	2400      	movs	r4, #0
100043d8:	0028      	movs	r0, r5
100043da:	f7ff fd0d 	bl	10003df8 <vClearInterruptMaskFromISR>
100043de:	0020      	movs	r0, r4
100043e0:	bce0      	pop	{r5, r6, r7}
100043e2:	46ba      	mov	sl, r7
100043e4:	46b1      	mov	r9, r6
100043e6:	46a8      	mov	r8, r5
100043e8:	bdf0      	pop	{r4, r5, r6, r7, pc}
100043ea:	2345      	movs	r3, #69	; 0x45
100043ec:	6c22      	ldr	r2, [r4, #64]	; 0x40
100043ee:	5ce6      	ldrb	r6, [r4, r3]
100043f0:	6ba3      	ldr	r3, [r4, #56]	; 0x38
100043f2:	6ba3      	ldr	r3, [r4, #56]	; 0x38
100043f4:	b276      	sxtb	r6, r6
100043f6:	469a      	mov	sl, r3
100043f8:	2a00      	cmp	r2, #0
100043fa:	d02a      	beq.n	10004452 <xQueueGenericSendFromISR+0xa2>
100043fc:	0039      	movs	r1, r7
100043fe:	68e0      	ldr	r0, [r4, #12]
10004400:	f7fd fcec 	bl	10001ddc <__wrap___aeabi_memcpy>
10004404:	68e1      	ldr	r1, [r4, #12]
10004406:	6c23      	ldr	r3, [r4, #64]	; 0x40
10004408:	425a      	negs	r2, r3
1000440a:	1acb      	subs	r3, r1, r3
1000440c:	6821      	ldr	r1, [r4, #0]
1000440e:	60e3      	str	r3, [r4, #12]
10004410:	428b      	cmp	r3, r1
10004412:	d249      	bcs.n	100044a8 <xQueueGenericSendFromISR+0xf8>
10004414:	68a3      	ldr	r3, [r4, #8]
10004416:	469c      	mov	ip, r3
10004418:	4462      	add	r2, ip
1000441a:	60e2      	str	r2, [r4, #12]
1000441c:	464b      	mov	r3, r9
1000441e:	2b02      	cmp	r3, #2
10004420:	d042      	beq.n	100044a8 <xQueueGenericSendFromISR+0xf8>
10004422:	4653      	mov	r3, sl
10004424:	3301      	adds	r3, #1
10004426:	63a3      	str	r3, [r4, #56]	; 0x38
10004428:	1c73      	adds	r3, r6, #1
1000442a:	d016      	beq.n	1000445a <xQueueGenericSendFromISR+0xaa>
1000442c:	f7fe fd00 	bl	10002e30 <uxTaskGetNumberOfTasks>
10004430:	4286      	cmp	r6, r0
10004432:	d215      	bcs.n	10004460 <xQueueGenericSendFromISR+0xb0>
10004434:	2345      	movs	r3, #69	; 0x45
10004436:	3601      	adds	r6, #1
10004438:	b276      	sxtb	r6, r6
1000443a:	54e6      	strb	r6, [r4, r3]
1000443c:	2401      	movs	r4, #1
1000443e:	e7cb      	b.n	100043d8 <xQueueGenericSendFromISR+0x28>
10004440:	2345      	movs	r3, #69	; 0x45
10004442:	6c22      	ldr	r2, [r4, #64]	; 0x40
10004444:	5ce6      	ldrb	r6, [r4, r3]
10004446:	6ba3      	ldr	r3, [r4, #56]	; 0x38
10004448:	6ba3      	ldr	r3, [r4, #56]	; 0x38
1000444a:	b276      	sxtb	r6, r6
1000444c:	469a      	mov	sl, r3
1000444e:	2a00      	cmp	r2, #0
10004450:	d108      	bne.n	10004464 <xQueueGenericSendFromISR+0xb4>
10004452:	3301      	adds	r3, #1
10004454:	63a3      	str	r3, [r4, #56]	; 0x38
10004456:	1c73      	adds	r3, r6, #1
10004458:	d1e8      	bne.n	1000442c <xQueueGenericSendFromISR+0x7c>
1000445a:	6a63      	ldr	r3, [r4, #36]	; 0x24
1000445c:	2b00      	cmp	r3, #0
1000445e:	d115      	bne.n	1000448c <xQueueGenericSendFromISR+0xdc>
10004460:	2401      	movs	r4, #1
10004462:	e7b9      	b.n	100043d8 <xQueueGenericSendFromISR+0x28>
10004464:	464b      	mov	r3, r9
10004466:	0039      	movs	r1, r7
10004468:	2b00      	cmp	r3, #0
1000446a:	d121      	bne.n	100044b0 <xQueueGenericSendFromISR+0x100>
1000446c:	6860      	ldr	r0, [r4, #4]
1000446e:	f7fd fcb5 	bl	10001ddc <__wrap___aeabi_memcpy>
10004472:	6c22      	ldr	r2, [r4, #64]	; 0x40
10004474:	6863      	ldr	r3, [r4, #4]
10004476:	4694      	mov	ip, r2
10004478:	68a2      	ldr	r2, [r4, #8]
1000447a:	4463      	add	r3, ip
1000447c:	6063      	str	r3, [r4, #4]
1000447e:	4293      	cmp	r3, r2
10004480:	d3cf      	bcc.n	10004422 <xQueueGenericSendFromISR+0x72>
10004482:	6823      	ldr	r3, [r4, #0]
10004484:	6063      	str	r3, [r4, #4]
10004486:	4653      	mov	r3, sl
10004488:	3301      	adds	r3, #1
1000448a:	e7e3      	b.n	10004454 <xQueueGenericSendFromISR+0xa4>
1000448c:	0020      	movs	r0, r4
1000448e:	3024      	adds	r0, #36	; 0x24
10004490:	f7fe fe2e 	bl	100030f0 <xTaskRemoveFromEventList>
10004494:	2800      	cmp	r0, #0
10004496:	d0e3      	beq.n	10004460 <xQueueGenericSendFromISR+0xb0>
10004498:	4643      	mov	r3, r8
1000449a:	2b00      	cmp	r3, #0
1000449c:	d0e0      	beq.n	10004460 <xQueueGenericSendFromISR+0xb0>
1000449e:	2301      	movs	r3, #1
100044a0:	4642      	mov	r2, r8
100044a2:	2401      	movs	r4, #1
100044a4:	6013      	str	r3, [r2, #0]
100044a6:	e797      	b.n	100043d8 <xQueueGenericSendFromISR+0x28>
100044a8:	4653      	mov	r3, sl
100044aa:	2b00      	cmp	r3, #0
100044ac:	d1d2      	bne.n	10004454 <xQueueGenericSendFromISR+0xa4>
100044ae:	e7d0      	b.n	10004452 <xQueueGenericSendFromISR+0xa2>
100044b0:	68e0      	ldr	r0, [r4, #12]
100044b2:	f7fd fc93 	bl	10001ddc <__wrap___aeabi_memcpy>
100044b6:	68e1      	ldr	r1, [r4, #12]
100044b8:	6c23      	ldr	r3, [r4, #64]	; 0x40
100044ba:	425a      	negs	r2, r3
100044bc:	1acb      	subs	r3, r1, r3
100044be:	6821      	ldr	r1, [r4, #0]
100044c0:	60e3      	str	r3, [r4, #12]
100044c2:	428b      	cmp	r3, r1
100044c4:	d2aa      	bcs.n	1000441c <xQueueGenericSendFromISR+0x6c>
100044c6:	e7a5      	b.n	10004414 <xQueueGenericSendFromISR+0x64>

100044c8 <xQueueGiveFromISR>:
100044c8:	b5f0      	push	{r4, r5, r6, r7, lr}
100044ca:	46c6      	mov	lr, r8
100044cc:	0004      	movs	r4, r0
100044ce:	b500      	push	{lr}
100044d0:	000e      	movs	r6, r1
100044d2:	f7ff fc8d 	bl	10003df0 <ulSetInterruptMaskFromISR>
100044d6:	6ba3      	ldr	r3, [r4, #56]	; 0x38
100044d8:	6be2      	ldr	r2, [r4, #60]	; 0x3c
100044da:	0005      	movs	r5, r0
100044dc:	2700      	movs	r7, #0
100044de:	429a      	cmp	r2, r3
100044e0:	d90b      	bls.n	100044fa <xQueueGiveFromISR+0x32>
100044e2:	2245      	movs	r2, #69	; 0x45
100044e4:	5ca7      	ldrb	r7, [r4, r2]
100044e6:	3301      	adds	r3, #1
100044e8:	b27f      	sxtb	r7, r7
100044ea:	4690      	mov	r8, r2
100044ec:	63a3      	str	r3, [r4, #56]	; 0x38
100044ee:	1c7b      	adds	r3, r7, #1
100044f0:	d10a      	bne.n	10004508 <xQueueGiveFromISR+0x40>
100044f2:	6a63      	ldr	r3, [r4, #36]	; 0x24
100044f4:	2b00      	cmp	r3, #0
100044f6:	d111      	bne.n	1000451c <xQueueGiveFromISR+0x54>
100044f8:	2701      	movs	r7, #1
100044fa:	0028      	movs	r0, r5
100044fc:	f7ff fc7c 	bl	10003df8 <vClearInterruptMaskFromISR>
10004500:	0038      	movs	r0, r7
10004502:	bc80      	pop	{r7}
10004504:	46b8      	mov	r8, r7
10004506:	bdf0      	pop	{r4, r5, r6, r7, pc}
10004508:	f7fe fc92 	bl	10002e30 <uxTaskGetNumberOfTasks>
1000450c:	4287      	cmp	r7, r0
1000450e:	d2f3      	bcs.n	100044f8 <xQueueGiveFromISR+0x30>
10004510:	4643      	mov	r3, r8
10004512:	3701      	adds	r7, #1
10004514:	b27f      	sxtb	r7, r7
10004516:	54e7      	strb	r7, [r4, r3]
10004518:	2701      	movs	r7, #1
1000451a:	e7ee      	b.n	100044fa <xQueueGiveFromISR+0x32>
1000451c:	0020      	movs	r0, r4
1000451e:	3024      	adds	r0, #36	; 0x24
10004520:	f7fe fde6 	bl	100030f0 <xTaskRemoveFromEventList>
10004524:	2800      	cmp	r0, #0
10004526:	d0e7      	beq.n	100044f8 <xQueueGiveFromISR+0x30>
10004528:	2e00      	cmp	r6, #0
1000452a:	d0e5      	beq.n	100044f8 <xQueueGiveFromISR+0x30>
1000452c:	2301      	movs	r3, #1
1000452e:	2701      	movs	r7, #1
10004530:	6033      	str	r3, [r6, #0]
10004532:	e7e2      	b.n	100044fa <xQueueGiveFromISR+0x32>

10004534 <xQueueReceive>:
10004534:	b5f0      	push	{r4, r5, r6, r7, lr}
10004536:	46ce      	mov	lr, r9
10004538:	4647      	mov	r7, r8
1000453a:	0004      	movs	r4, r0
1000453c:	b580      	push	{r7, lr}
1000453e:	b085      	sub	sp, #20
10004540:	4688      	mov	r8, r1
10004542:	9201      	str	r2, [sp, #4]
10004544:	f7ff fc3e 	bl	10003dc4 <vPortEnterCritical>
10004548:	6ba5      	ldr	r5, [r4, #56]	; 0x38
1000454a:	2d00      	cmp	r5, #0
1000454c:	d000      	beq.n	10004550 <xQueueReceive+0x1c>
1000454e:	e11f      	b.n	10004790 <xQueueReceive+0x25c>
10004550:	9b01      	ldr	r3, [sp, #4]
10004552:	2b00      	cmp	r3, #0
10004554:	d100      	bne.n	10004558 <xQueueReceive+0x24>
10004556:	e0cb      	b.n	100046f0 <xQueueReceive+0x1bc>
10004558:	0026      	movs	r6, r4
1000455a:	a802      	add	r0, sp, #8
1000455c:	f7fe fe84 	bl	10003268 <vTaskInternalSetTimeOutState>
10004560:	2744      	movs	r7, #68	; 0x44
10004562:	3624      	adds	r6, #36	; 0x24
10004564:	f7ff fc3a 	bl	10003ddc <vPortExitCritical>
10004568:	f7fe fb4c 	bl	10002c04 <vTaskSuspendAll>
1000456c:	f7ff fc2a 	bl	10003dc4 <vPortEnterCritical>
10004570:	5de3      	ldrb	r3, [r4, r7]
10004572:	b25b      	sxtb	r3, r3
10004574:	3301      	adds	r3, #1
10004576:	d101      	bne.n	1000457c <xQueueReceive+0x48>
10004578:	2300      	movs	r3, #0
1000457a:	55e3      	strb	r3, [r4, r7]
1000457c:	2245      	movs	r2, #69	; 0x45
1000457e:	5ca3      	ldrb	r3, [r4, r2]
10004580:	b25b      	sxtb	r3, r3
10004582:	3301      	adds	r3, #1
10004584:	d101      	bne.n	1000458a <xQueueReceive+0x56>
10004586:	2300      	movs	r3, #0
10004588:	54a3      	strb	r3, [r4, r2]
1000458a:	f7ff fc27 	bl	10003ddc <vPortExitCritical>
1000458e:	a901      	add	r1, sp, #4
10004590:	a802      	add	r0, sp, #8
10004592:	f7fe fe71 	bl	10003278 <xTaskCheckForTimeOut>
10004596:	2800      	cmp	r0, #0
10004598:	d155      	bne.n	10004646 <xQueueReceive+0x112>
1000459a:	f7ff fc13 	bl	10003dc4 <vPortEnterCritical>
1000459e:	6ba3      	ldr	r3, [r4, #56]	; 0x38
100045a0:	2b00      	cmp	r3, #0
100045a2:	d000      	beq.n	100045a6 <xQueueReceive+0x72>
100045a4:	e0ac      	b.n	10004700 <xQueueReceive+0x1cc>
100045a6:	f7ff fc19 	bl	10003ddc <vPortExitCritical>
100045aa:	0030      	movs	r0, r6
100045ac:	9901      	ldr	r1, [sp, #4]
100045ae:	f7fe fcc9 	bl	10002f44 <vTaskPlaceOnEventList>
100045b2:	f7ff fc07 	bl	10003dc4 <vPortEnterCritical>
100045b6:	2345      	movs	r3, #69	; 0x45
100045b8:	5ce5      	ldrb	r5, [r4, r3]
100045ba:	b26d      	sxtb	r5, r5
100045bc:	2d00      	cmp	r5, #0
100045be:	dc05      	bgt.n	100045cc <xQueueReceive+0x98>
100045c0:	e013      	b.n	100045ea <xQueueReceive+0xb6>
100045c2:	3d01      	subs	r5, #1
100045c4:	b2ea      	uxtb	r2, r5
100045c6:	b26d      	sxtb	r5, r5
100045c8:	2a00      	cmp	r2, #0
100045ca:	d00e      	beq.n	100045ea <xQueueReceive+0xb6>
100045cc:	6a63      	ldr	r3, [r4, #36]	; 0x24
100045ce:	2b00      	cmp	r3, #0
100045d0:	d00b      	beq.n	100045ea <xQueueReceive+0xb6>
100045d2:	0030      	movs	r0, r6
100045d4:	f7fe fd8c 	bl	100030f0 <xTaskRemoveFromEventList>
100045d8:	2800      	cmp	r0, #0
100045da:	d0f2      	beq.n	100045c2 <xQueueReceive+0x8e>
100045dc:	3d01      	subs	r5, #1
100045de:	f7fe fe73 	bl	100032c8 <vTaskMissedYield>
100045e2:	b2ea      	uxtb	r2, r5
100045e4:	b26d      	sxtb	r5, r5
100045e6:	2a00      	cmp	r2, #0
100045e8:	d1f0      	bne.n	100045cc <xQueueReceive+0x98>
100045ea:	2345      	movs	r3, #69	; 0x45
100045ec:	22ff      	movs	r2, #255	; 0xff
100045ee:	54e2      	strb	r2, [r4, r3]
100045f0:	f7ff fbf4 	bl	10003ddc <vPortExitCritical>
100045f4:	f7ff fbe6 	bl	10003dc4 <vPortEnterCritical>
100045f8:	2310      	movs	r3, #16
100045fa:	4699      	mov	r9, r3
100045fc:	5de5      	ldrb	r5, [r4, r7]
100045fe:	44a1      	add	r9, r4
10004600:	b26d      	sxtb	r5, r5
10004602:	2d00      	cmp	r5, #0
10004604:	dc05      	bgt.n	10004612 <xQueueReceive+0xde>
10004606:	e013      	b.n	10004630 <xQueueReceive+0xfc>
10004608:	3d01      	subs	r5, #1
1000460a:	b2ea      	uxtb	r2, r5
1000460c:	b26d      	sxtb	r5, r5
1000460e:	2a00      	cmp	r2, #0
10004610:	d00e      	beq.n	10004630 <xQueueReceive+0xfc>
10004612:	6923      	ldr	r3, [r4, #16]
10004614:	2b00      	cmp	r3, #0
10004616:	d00b      	beq.n	10004630 <xQueueReceive+0xfc>
10004618:	4648      	mov	r0, r9
1000461a:	f7fe fd69 	bl	100030f0 <xTaskRemoveFromEventList>
1000461e:	2800      	cmp	r0, #0
10004620:	d0f2      	beq.n	10004608 <xQueueReceive+0xd4>
10004622:	3d01      	subs	r5, #1
10004624:	f7fe fe50 	bl	100032c8 <vTaskMissedYield>
10004628:	b2ea      	uxtb	r2, r5
1000462a:	b26d      	sxtb	r5, r5
1000462c:	2a00      	cmp	r2, #0
1000462e:	d1f0      	bne.n	10004612 <xQueueReceive+0xde>
10004630:	23ff      	movs	r3, #255	; 0xff
10004632:	55e3      	strb	r3, [r4, r7]
10004634:	f7ff fbd2 	bl	10003ddc <vPortExitCritical>
10004638:	f7fe faec 	bl	10002c14 <xTaskResumeAll>
1000463c:	2800      	cmp	r0, #0
1000463e:	d14e      	bne.n	100046de <xQueueReceive+0x1aa>
10004640:	f7ff fbb4 	bl	10003dac <vPortYield>
10004644:	e04b      	b.n	100046de <xQueueReceive+0x1aa>
10004646:	f7ff fbbd 	bl	10003dc4 <vPortEnterCritical>
1000464a:	2345      	movs	r3, #69	; 0x45
1000464c:	5ce5      	ldrb	r5, [r4, r3]
1000464e:	b26d      	sxtb	r5, r5
10004650:	2d00      	cmp	r5, #0
10004652:	dc05      	bgt.n	10004660 <xQueueReceive+0x12c>
10004654:	e013      	b.n	1000467e <xQueueReceive+0x14a>
10004656:	3d01      	subs	r5, #1
10004658:	b2ea      	uxtb	r2, r5
1000465a:	b26d      	sxtb	r5, r5
1000465c:	2a00      	cmp	r2, #0
1000465e:	d00e      	beq.n	1000467e <xQueueReceive+0x14a>
10004660:	6a63      	ldr	r3, [r4, #36]	; 0x24
10004662:	2b00      	cmp	r3, #0
10004664:	d00b      	beq.n	1000467e <xQueueReceive+0x14a>
10004666:	0030      	movs	r0, r6
10004668:	f7fe fd42 	bl	100030f0 <xTaskRemoveFromEventList>
1000466c:	2800      	cmp	r0, #0
1000466e:	d0f2      	beq.n	10004656 <xQueueReceive+0x122>
10004670:	3d01      	subs	r5, #1
10004672:	f7fe fe29 	bl	100032c8 <vTaskMissedYield>
10004676:	b2ea      	uxtb	r2, r5
10004678:	b26d      	sxtb	r5, r5
1000467a:	2a00      	cmp	r2, #0
1000467c:	d1f0      	bne.n	10004660 <xQueueReceive+0x12c>
1000467e:	2345      	movs	r3, #69	; 0x45
10004680:	22ff      	movs	r2, #255	; 0xff
10004682:	54e2      	strb	r2, [r4, r3]
10004684:	f7ff fbaa 	bl	10003ddc <vPortExitCritical>
10004688:	f7ff fb9c 	bl	10003dc4 <vPortEnterCritical>
1000468c:	2310      	movs	r3, #16
1000468e:	4699      	mov	r9, r3
10004690:	5de5      	ldrb	r5, [r4, r7]
10004692:	44a1      	add	r9, r4
10004694:	b26d      	sxtb	r5, r5
10004696:	2d00      	cmp	r5, #0
10004698:	dc05      	bgt.n	100046a6 <xQueueReceive+0x172>
1000469a:	e013      	b.n	100046c4 <xQueueReceive+0x190>
1000469c:	3d01      	subs	r5, #1
1000469e:	b2ea      	uxtb	r2, r5
100046a0:	b26d      	sxtb	r5, r5
100046a2:	2a00      	cmp	r2, #0
100046a4:	d00e      	beq.n	100046c4 <xQueueReceive+0x190>
100046a6:	6923      	ldr	r3, [r4, #16]
100046a8:	2b00      	cmp	r3, #0
100046aa:	d00b      	beq.n	100046c4 <xQueueReceive+0x190>
100046ac:	4648      	mov	r0, r9
100046ae:	f7fe fd1f 	bl	100030f0 <xTaskRemoveFromEventList>
100046b2:	2800      	cmp	r0, #0
100046b4:	d0f2      	beq.n	1000469c <xQueueReceive+0x168>
100046b6:	3d01      	subs	r5, #1
100046b8:	f7fe fe06 	bl	100032c8 <vTaskMissedYield>
100046bc:	b2ea      	uxtb	r2, r5
100046be:	b26d      	sxtb	r5, r5
100046c0:	2a00      	cmp	r2, #0
100046c2:	d1f0      	bne.n	100046a6 <xQueueReceive+0x172>
100046c4:	23ff      	movs	r3, #255	; 0xff
100046c6:	55e3      	strb	r3, [r4, r7]
100046c8:	f7ff fb88 	bl	10003ddc <vPortExitCritical>
100046cc:	f7fe faa2 	bl	10002c14 <xTaskResumeAll>
100046d0:	f7ff fb78 	bl	10003dc4 <vPortEnterCritical>
100046d4:	6ba3      	ldr	r3, [r4, #56]	; 0x38
100046d6:	2b00      	cmp	r3, #0
100046d8:	d00a      	beq.n	100046f0 <xQueueReceive+0x1bc>
100046da:	f7ff fb7f 	bl	10003ddc <vPortExitCritical>
100046de:	f7ff fb71 	bl	10003dc4 <vPortEnterCritical>
100046e2:	6ba5      	ldr	r5, [r4, #56]	; 0x38
100046e4:	2d00      	cmp	r5, #0
100046e6:	d153      	bne.n	10004790 <xQueueReceive+0x25c>
100046e8:	9b01      	ldr	r3, [sp, #4]
100046ea:	2b00      	cmp	r3, #0
100046ec:	d000      	beq.n	100046f0 <xQueueReceive+0x1bc>
100046ee:	e739      	b.n	10004564 <xQueueReceive+0x30>
100046f0:	f7ff fb74 	bl	10003ddc <vPortExitCritical>
100046f4:	2000      	movs	r0, #0
100046f6:	b005      	add	sp, #20
100046f8:	bcc0      	pop	{r6, r7}
100046fa:	46b9      	mov	r9, r7
100046fc:	46b0      	mov	r8, r6
100046fe:	bdf0      	pop	{r4, r5, r6, r7, pc}
10004700:	f7ff fb6c 	bl	10003ddc <vPortExitCritical>
10004704:	f7ff fb5e 	bl	10003dc4 <vPortEnterCritical>
10004708:	2345      	movs	r3, #69	; 0x45
1000470a:	5ce5      	ldrb	r5, [r4, r3]
1000470c:	b26d      	sxtb	r5, r5
1000470e:	2d00      	cmp	r5, #0
10004710:	dc05      	bgt.n	1000471e <xQueueReceive+0x1ea>
10004712:	e013      	b.n	1000473c <xQueueReceive+0x208>
10004714:	3d01      	subs	r5, #1
10004716:	b2ea      	uxtb	r2, r5
10004718:	b26d      	sxtb	r5, r5
1000471a:	2a00      	cmp	r2, #0
1000471c:	d00e      	beq.n	1000473c <xQueueReceive+0x208>
1000471e:	6a63      	ldr	r3, [r4, #36]	; 0x24
10004720:	2b00      	cmp	r3, #0
10004722:	d00b      	beq.n	1000473c <xQueueReceive+0x208>
10004724:	0030      	movs	r0, r6
10004726:	f7fe fce3 	bl	100030f0 <xTaskRemoveFromEventList>
1000472a:	2800      	cmp	r0, #0
1000472c:	d0f2      	beq.n	10004714 <xQueueReceive+0x1e0>
1000472e:	3d01      	subs	r5, #1
10004730:	f7fe fdca 	bl	100032c8 <vTaskMissedYield>
10004734:	b2ea      	uxtb	r2, r5
10004736:	b26d      	sxtb	r5, r5
10004738:	2a00      	cmp	r2, #0
1000473a:	d1f0      	bne.n	1000471e <xQueueReceive+0x1ea>
1000473c:	2345      	movs	r3, #69	; 0x45
1000473e:	22ff      	movs	r2, #255	; 0xff
10004740:	54e2      	strb	r2, [r4, r3]
10004742:	f7ff fb4b 	bl	10003ddc <vPortExitCritical>
10004746:	f7ff fb3d 	bl	10003dc4 <vPortEnterCritical>
1000474a:	2310      	movs	r3, #16
1000474c:	4699      	mov	r9, r3
1000474e:	5de5      	ldrb	r5, [r4, r7]
10004750:	44a1      	add	r9, r4
10004752:	b26d      	sxtb	r5, r5
10004754:	2d00      	cmp	r5, #0
10004756:	dc05      	bgt.n	10004764 <xQueueReceive+0x230>
10004758:	e013      	b.n	10004782 <xQueueReceive+0x24e>
1000475a:	3d01      	subs	r5, #1
1000475c:	b2ea      	uxtb	r2, r5
1000475e:	b26d      	sxtb	r5, r5
10004760:	2a00      	cmp	r2, #0
10004762:	d00e      	beq.n	10004782 <xQueueReceive+0x24e>
10004764:	6923      	ldr	r3, [r4, #16]
10004766:	2b00      	cmp	r3, #0
10004768:	d00b      	beq.n	10004782 <xQueueReceive+0x24e>
1000476a:	4648      	mov	r0, r9
1000476c:	f7fe fcc0 	bl	100030f0 <xTaskRemoveFromEventList>
10004770:	2800      	cmp	r0, #0
10004772:	d0f2      	beq.n	1000475a <xQueueReceive+0x226>
10004774:	3d01      	subs	r5, #1
10004776:	f7fe fda7 	bl	100032c8 <vTaskMissedYield>
1000477a:	b2ea      	uxtb	r2, r5
1000477c:	b26d      	sxtb	r5, r5
1000477e:	2a00      	cmp	r2, #0
10004780:	d1f0      	bne.n	10004764 <xQueueReceive+0x230>
10004782:	23ff      	movs	r3, #255	; 0xff
10004784:	55e3      	strb	r3, [r4, r7]
10004786:	f7ff fb29 	bl	10003ddc <vPortExitCritical>
1000478a:	f7fe fa43 	bl	10002c14 <xTaskResumeAll>
1000478e:	e7a6      	b.n	100046de <xQueueReceive+0x1aa>
10004790:	6c22      	ldr	r2, [r4, #64]	; 0x40
10004792:	2a00      	cmp	r2, #0
10004794:	d008      	beq.n	100047a8 <xQueueReceive+0x274>
10004796:	68e3      	ldr	r3, [r4, #12]
10004798:	1899      	adds	r1, r3, r2
1000479a:	68a3      	ldr	r3, [r4, #8]
1000479c:	60e1      	str	r1, [r4, #12]
1000479e:	4299      	cmp	r1, r3
100047a0:	d20b      	bcs.n	100047ba <xQueueReceive+0x286>
100047a2:	4640      	mov	r0, r8
100047a4:	f7fd fb1a 	bl	10001ddc <__wrap___aeabi_memcpy>
100047a8:	3d01      	subs	r5, #1
100047aa:	63a5      	str	r5, [r4, #56]	; 0x38
100047ac:	6923      	ldr	r3, [r4, #16]
100047ae:	2b00      	cmp	r3, #0
100047b0:	d106      	bne.n	100047c0 <xQueueReceive+0x28c>
100047b2:	f7ff fb13 	bl	10003ddc <vPortExitCritical>
100047b6:	2001      	movs	r0, #1
100047b8:	e79d      	b.n	100046f6 <xQueueReceive+0x1c2>
100047ba:	6821      	ldr	r1, [r4, #0]
100047bc:	60e1      	str	r1, [r4, #12]
100047be:	e7f0      	b.n	100047a2 <xQueueReceive+0x26e>
100047c0:	0020      	movs	r0, r4
100047c2:	3010      	adds	r0, #16
100047c4:	f7fe fc94 	bl	100030f0 <xTaskRemoveFromEventList>
100047c8:	2800      	cmp	r0, #0
100047ca:	d0f2      	beq.n	100047b2 <xQueueReceive+0x27e>
100047cc:	f7ff faee 	bl	10003dac <vPortYield>
100047d0:	e7ef      	b.n	100047b2 <xQueueReceive+0x27e>
100047d2:	46c0      	nop			; (mov r8, r8)

100047d4 <xQueueSemaphoreTake>:
100047d4:	b5f0      	push	{r4, r5, r6, r7, lr}
100047d6:	46c6      	mov	lr, r8
100047d8:	0004      	movs	r4, r0
100047da:	b500      	push	{lr}
100047dc:	b084      	sub	sp, #16
100047de:	9101      	str	r1, [sp, #4]
100047e0:	f7ff faf0 	bl	10003dc4 <vPortEnterCritical>
100047e4:	6ba3      	ldr	r3, [r4, #56]	; 0x38
100047e6:	2b00      	cmp	r3, #0
100047e8:	d000      	beq.n	100047ec <xQueueSemaphoreTake+0x18>
100047ea:	e122      	b.n	10004a32 <xQueueSemaphoreTake+0x25e>
100047ec:	9b01      	ldr	r3, [sp, #4]
100047ee:	2b00      	cmp	r3, #0
100047f0:	d100      	bne.n	100047f4 <xQueueSemaphoreTake+0x20>
100047f2:	e0cb      	b.n	1000498c <xQueueSemaphoreTake+0x1b8>
100047f4:	0026      	movs	r6, r4
100047f6:	a802      	add	r0, sp, #8
100047f8:	f7fe fd36 	bl	10003268 <vTaskInternalSetTimeOutState>
100047fc:	2744      	movs	r7, #68	; 0x44
100047fe:	3624      	adds	r6, #36	; 0x24
10004800:	f7ff faec 	bl	10003ddc <vPortExitCritical>
10004804:	f7fe f9fe 	bl	10002c04 <vTaskSuspendAll>
10004808:	f7ff fadc 	bl	10003dc4 <vPortEnterCritical>
1000480c:	5de3      	ldrb	r3, [r4, r7]
1000480e:	b25b      	sxtb	r3, r3
10004810:	3301      	adds	r3, #1
10004812:	d101      	bne.n	10004818 <xQueueSemaphoreTake+0x44>
10004814:	2300      	movs	r3, #0
10004816:	55e3      	strb	r3, [r4, r7]
10004818:	2245      	movs	r2, #69	; 0x45
1000481a:	5ca3      	ldrb	r3, [r4, r2]
1000481c:	b25b      	sxtb	r3, r3
1000481e:	3301      	adds	r3, #1
10004820:	d101      	bne.n	10004826 <xQueueSemaphoreTake+0x52>
10004822:	2300      	movs	r3, #0
10004824:	54a3      	strb	r3, [r4, r2]
10004826:	f7ff fad9 	bl	10003ddc <vPortExitCritical>
1000482a:	a901      	add	r1, sp, #4
1000482c:	a802      	add	r0, sp, #8
1000482e:	f7fe fd23 	bl	10003278 <xTaskCheckForTimeOut>
10004832:	2800      	cmp	r0, #0
10004834:	d155      	bne.n	100048e2 <xQueueSemaphoreTake+0x10e>
10004836:	f7ff fac5 	bl	10003dc4 <vPortEnterCritical>
1000483a:	6ba3      	ldr	r3, [r4, #56]	; 0x38
1000483c:	2b00      	cmp	r3, #0
1000483e:	d000      	beq.n	10004842 <xQueueSemaphoreTake+0x6e>
10004840:	e0ab      	b.n	1000499a <xQueueSemaphoreTake+0x1c6>
10004842:	f7ff facb 	bl	10003ddc <vPortExitCritical>
10004846:	0030      	movs	r0, r6
10004848:	9901      	ldr	r1, [sp, #4]
1000484a:	f7fe fb7b 	bl	10002f44 <vTaskPlaceOnEventList>
1000484e:	f7ff fab9 	bl	10003dc4 <vPortEnterCritical>
10004852:	2345      	movs	r3, #69	; 0x45
10004854:	5ce5      	ldrb	r5, [r4, r3]
10004856:	b26d      	sxtb	r5, r5
10004858:	2d00      	cmp	r5, #0
1000485a:	dc05      	bgt.n	10004868 <xQueueSemaphoreTake+0x94>
1000485c:	e013      	b.n	10004886 <xQueueSemaphoreTake+0xb2>
1000485e:	3d01      	subs	r5, #1
10004860:	b2ea      	uxtb	r2, r5
10004862:	b26d      	sxtb	r5, r5
10004864:	2a00      	cmp	r2, #0
10004866:	d00e      	beq.n	10004886 <xQueueSemaphoreTake+0xb2>
10004868:	6a63      	ldr	r3, [r4, #36]	; 0x24
1000486a:	2b00      	cmp	r3, #0
1000486c:	d00b      	beq.n	10004886 <xQueueSemaphoreTake+0xb2>
1000486e:	0030      	movs	r0, r6
10004870:	f7fe fc3e 	bl	100030f0 <xTaskRemoveFromEventList>
10004874:	2800      	cmp	r0, #0
10004876:	d0f2      	beq.n	1000485e <xQueueSemaphoreTake+0x8a>
10004878:	3d01      	subs	r5, #1
1000487a:	f7fe fd25 	bl	100032c8 <vTaskMissedYield>
1000487e:	b2ea      	uxtb	r2, r5
10004880:	b26d      	sxtb	r5, r5
10004882:	2a00      	cmp	r2, #0
10004884:	d1f0      	bne.n	10004868 <xQueueSemaphoreTake+0x94>
10004886:	2345      	movs	r3, #69	; 0x45
10004888:	22ff      	movs	r2, #255	; 0xff
1000488a:	54e2      	strb	r2, [r4, r3]
1000488c:	f7ff faa6 	bl	10003ddc <vPortExitCritical>
10004890:	f7ff fa98 	bl	10003dc4 <vPortEnterCritical>
10004894:	5de5      	ldrb	r5, [r4, r7]
10004896:	b26d      	sxtb	r5, r5
10004898:	2d00      	cmp	r5, #0
1000489a:	dd17      	ble.n	100048cc <xQueueSemaphoreTake+0xf8>
1000489c:	2310      	movs	r3, #16
1000489e:	4698      	mov	r8, r3
100048a0:	44a0      	add	r8, r4
100048a2:	e004      	b.n	100048ae <xQueueSemaphoreTake+0xda>
100048a4:	3d01      	subs	r5, #1
100048a6:	b2ea      	uxtb	r2, r5
100048a8:	b26d      	sxtb	r5, r5
100048aa:	2a00      	cmp	r2, #0
100048ac:	d00e      	beq.n	100048cc <xQueueSemaphoreTake+0xf8>
100048ae:	6923      	ldr	r3, [r4, #16]
100048b0:	2b00      	cmp	r3, #0
100048b2:	d00b      	beq.n	100048cc <xQueueSemaphoreTake+0xf8>
100048b4:	4640      	mov	r0, r8
100048b6:	f7fe fc1b 	bl	100030f0 <xTaskRemoveFromEventList>
100048ba:	2800      	cmp	r0, #0
100048bc:	d0f2      	beq.n	100048a4 <xQueueSemaphoreTake+0xd0>
100048be:	3d01      	subs	r5, #1
100048c0:	f7fe fd02 	bl	100032c8 <vTaskMissedYield>
100048c4:	b2ea      	uxtb	r2, r5
100048c6:	b26d      	sxtb	r5, r5
100048c8:	2a00      	cmp	r2, #0
100048ca:	d1f0      	bne.n	100048ae <xQueueSemaphoreTake+0xda>
100048cc:	23ff      	movs	r3, #255	; 0xff
100048ce:	55e3      	strb	r3, [r4, r7]
100048d0:	f7ff fa84 	bl	10003ddc <vPortExitCritical>
100048d4:	f7fe f99e 	bl	10002c14 <xTaskResumeAll>
100048d8:	2800      	cmp	r0, #0
100048da:	d14e      	bne.n	1000497a <xQueueSemaphoreTake+0x1a6>
100048dc:	f7ff fa66 	bl	10003dac <vPortYield>
100048e0:	e04b      	b.n	1000497a <xQueueSemaphoreTake+0x1a6>
100048e2:	f7ff fa6f 	bl	10003dc4 <vPortEnterCritical>
100048e6:	2345      	movs	r3, #69	; 0x45
100048e8:	5ce5      	ldrb	r5, [r4, r3]
100048ea:	b26d      	sxtb	r5, r5
100048ec:	2d00      	cmp	r5, #0
100048ee:	dc05      	bgt.n	100048fc <xQueueSemaphoreTake+0x128>
100048f0:	e013      	b.n	1000491a <xQueueSemaphoreTake+0x146>
100048f2:	3d01      	subs	r5, #1
100048f4:	b2ea      	uxtb	r2, r5
100048f6:	b26d      	sxtb	r5, r5
100048f8:	2a00      	cmp	r2, #0
100048fa:	d00e      	beq.n	1000491a <xQueueSemaphoreTake+0x146>
100048fc:	6a63      	ldr	r3, [r4, #36]	; 0x24
100048fe:	2b00      	cmp	r3, #0
10004900:	d00b      	beq.n	1000491a <xQueueSemaphoreTake+0x146>
10004902:	0030      	movs	r0, r6
10004904:	f7fe fbf4 	bl	100030f0 <xTaskRemoveFromEventList>
10004908:	2800      	cmp	r0, #0
1000490a:	d0f2      	beq.n	100048f2 <xQueueSemaphoreTake+0x11e>
1000490c:	3d01      	subs	r5, #1
1000490e:	f7fe fcdb 	bl	100032c8 <vTaskMissedYield>
10004912:	b2ea      	uxtb	r2, r5
10004914:	b26d      	sxtb	r5, r5
10004916:	2a00      	cmp	r2, #0
10004918:	d1f0      	bne.n	100048fc <xQueueSemaphoreTake+0x128>
1000491a:	2345      	movs	r3, #69	; 0x45
1000491c:	22ff      	movs	r2, #255	; 0xff
1000491e:	54e2      	strb	r2, [r4, r3]
10004920:	f7ff fa5c 	bl	10003ddc <vPortExitCritical>
10004924:	f7ff fa4e 	bl	10003dc4 <vPortEnterCritical>
10004928:	5de5      	ldrb	r5, [r4, r7]
1000492a:	b26d      	sxtb	r5, r5
1000492c:	2d00      	cmp	r5, #0
1000492e:	dd17      	ble.n	10004960 <xQueueSemaphoreTake+0x18c>
10004930:	2310      	movs	r3, #16
10004932:	4698      	mov	r8, r3
10004934:	44a0      	add	r8, r4
10004936:	e004      	b.n	10004942 <xQueueSemaphoreTake+0x16e>
10004938:	3d01      	subs	r5, #1
1000493a:	b2ea      	uxtb	r2, r5
1000493c:	b26d      	sxtb	r5, r5
1000493e:	2a00      	cmp	r2, #0
10004940:	d00e      	beq.n	10004960 <xQueueSemaphoreTake+0x18c>
10004942:	6923      	ldr	r3, [r4, #16]
10004944:	2b00      	cmp	r3, #0
10004946:	d00b      	beq.n	10004960 <xQueueSemaphoreTake+0x18c>
10004948:	4640      	mov	r0, r8
1000494a:	f7fe fbd1 	bl	100030f0 <xTaskRemoveFromEventList>
1000494e:	2800      	cmp	r0, #0
10004950:	d0f2      	beq.n	10004938 <xQueueSemaphoreTake+0x164>
10004952:	3d01      	subs	r5, #1
10004954:	f7fe fcb8 	bl	100032c8 <vTaskMissedYield>
10004958:	b2ea      	uxtb	r2, r5
1000495a:	b26d      	sxtb	r5, r5
1000495c:	2a00      	cmp	r2, #0
1000495e:	d1f0      	bne.n	10004942 <xQueueSemaphoreTake+0x16e>
10004960:	23ff      	movs	r3, #255	; 0xff
10004962:	55e3      	strb	r3, [r4, r7]
10004964:	f7ff fa3a 	bl	10003ddc <vPortExitCritical>
10004968:	f7fe f954 	bl	10002c14 <xTaskResumeAll>
1000496c:	f7ff fa2a 	bl	10003dc4 <vPortEnterCritical>
10004970:	6ba3      	ldr	r3, [r4, #56]	; 0x38
10004972:	2b00      	cmp	r3, #0
10004974:	d00a      	beq.n	1000498c <xQueueSemaphoreTake+0x1b8>
10004976:	f7ff fa31 	bl	10003ddc <vPortExitCritical>
1000497a:	f7ff fa23 	bl	10003dc4 <vPortEnterCritical>
1000497e:	6ba3      	ldr	r3, [r4, #56]	; 0x38
10004980:	2b00      	cmp	r3, #0
10004982:	d156      	bne.n	10004a32 <xQueueSemaphoreTake+0x25e>
10004984:	9b01      	ldr	r3, [sp, #4]
10004986:	2b00      	cmp	r3, #0
10004988:	d000      	beq.n	1000498c <xQueueSemaphoreTake+0x1b8>
1000498a:	e739      	b.n	10004800 <xQueueSemaphoreTake+0x2c>
1000498c:	f7ff fa26 	bl	10003ddc <vPortExitCritical>
10004990:	2000      	movs	r0, #0
10004992:	b004      	add	sp, #16
10004994:	bc80      	pop	{r7}
10004996:	46b8      	mov	r8, r7
10004998:	bdf0      	pop	{r4, r5, r6, r7, pc}
1000499a:	f7ff fa1f 	bl	10003ddc <vPortExitCritical>
1000499e:	f7ff fa11 	bl	10003dc4 <vPortEnterCritical>
100049a2:	2345      	movs	r3, #69	; 0x45
100049a4:	5ce5      	ldrb	r5, [r4, r3]
100049a6:	b26d      	sxtb	r5, r5
100049a8:	2d00      	cmp	r5, #0
100049aa:	dc05      	bgt.n	100049b8 <xQueueSemaphoreTake+0x1e4>
100049ac:	e013      	b.n	100049d6 <xQueueSemaphoreTake+0x202>
100049ae:	3d01      	subs	r5, #1
100049b0:	b2ea      	uxtb	r2, r5
100049b2:	b26d      	sxtb	r5, r5
100049b4:	2a00      	cmp	r2, #0
100049b6:	d00e      	beq.n	100049d6 <xQueueSemaphoreTake+0x202>
100049b8:	6a63      	ldr	r3, [r4, #36]	; 0x24
100049ba:	2b00      	cmp	r3, #0
100049bc:	d00b      	beq.n	100049d6 <xQueueSemaphoreTake+0x202>
100049be:	0030      	movs	r0, r6
100049c0:	f7fe fb96 	bl	100030f0 <xTaskRemoveFromEventList>
100049c4:	2800      	cmp	r0, #0
100049c6:	d0f2      	beq.n	100049ae <xQueueSemaphoreTake+0x1da>
100049c8:	3d01      	subs	r5, #1
100049ca:	f7fe fc7d 	bl	100032c8 <vTaskMissedYield>
100049ce:	b2ea      	uxtb	r2, r5
100049d0:	b26d      	sxtb	r5, r5
100049d2:	2a00      	cmp	r2, #0
100049d4:	d1f0      	bne.n	100049b8 <xQueueSemaphoreTake+0x1e4>
100049d6:	2345      	movs	r3, #69	; 0x45
100049d8:	22ff      	movs	r2, #255	; 0xff
100049da:	54e2      	strb	r2, [r4, r3]
100049dc:	f7ff f9fe 	bl	10003ddc <vPortExitCritical>
100049e0:	f7ff f9f0 	bl	10003dc4 <vPortEnterCritical>
100049e4:	5de5      	ldrb	r5, [r4, r7]
100049e6:	b26d      	sxtb	r5, r5
100049e8:	2d00      	cmp	r5, #0
100049ea:	dd17      	ble.n	10004a1c <xQueueSemaphoreTake+0x248>
100049ec:	2310      	movs	r3, #16
100049ee:	4698      	mov	r8, r3
100049f0:	44a0      	add	r8, r4
100049f2:	e004      	b.n	100049fe <xQueueSemaphoreTake+0x22a>
100049f4:	3d01      	subs	r5, #1
100049f6:	b2ea      	uxtb	r2, r5
100049f8:	b26d      	sxtb	r5, r5
100049fa:	2a00      	cmp	r2, #0
100049fc:	d00e      	beq.n	10004a1c <xQueueSemaphoreTake+0x248>
100049fe:	6923      	ldr	r3, [r4, #16]
10004a00:	2b00      	cmp	r3, #0
10004a02:	d00b      	beq.n	10004a1c <xQueueSemaphoreTake+0x248>
10004a04:	4640      	mov	r0, r8
10004a06:	f7fe fb73 	bl	100030f0 <xTaskRemoveFromEventList>
10004a0a:	2800      	cmp	r0, #0
10004a0c:	d0f2      	beq.n	100049f4 <xQueueSemaphoreTake+0x220>
10004a0e:	3d01      	subs	r5, #1
10004a10:	f7fe fc5a 	bl	100032c8 <vTaskMissedYield>
10004a14:	b2ea      	uxtb	r2, r5
10004a16:	b26d      	sxtb	r5, r5
10004a18:	2a00      	cmp	r2, #0
10004a1a:	d1f0      	bne.n	100049fe <xQueueSemaphoreTake+0x22a>
10004a1c:	23ff      	movs	r3, #255	; 0xff
10004a1e:	55e3      	strb	r3, [r4, r7]
10004a20:	f7ff f9dc 	bl	10003ddc <vPortExitCritical>
10004a24:	f7fe f8f6 	bl	10002c14 <xTaskResumeAll>
10004a28:	f7ff f9cc 	bl	10003dc4 <vPortEnterCritical>
10004a2c:	6ba3      	ldr	r3, [r4, #56]	; 0x38
10004a2e:	2b00      	cmp	r3, #0
10004a30:	d0a8      	beq.n	10004984 <xQueueSemaphoreTake+0x1b0>
10004a32:	3b01      	subs	r3, #1
10004a34:	63a3      	str	r3, [r4, #56]	; 0x38
10004a36:	6923      	ldr	r3, [r4, #16]
10004a38:	2b00      	cmp	r3, #0
10004a3a:	d103      	bne.n	10004a44 <xQueueSemaphoreTake+0x270>
10004a3c:	f7ff f9ce 	bl	10003ddc <vPortExitCritical>
10004a40:	2001      	movs	r0, #1
10004a42:	e7a6      	b.n	10004992 <xQueueSemaphoreTake+0x1be>
10004a44:	0020      	movs	r0, r4
10004a46:	3010      	adds	r0, #16
10004a48:	f7fe fb52 	bl	100030f0 <xTaskRemoveFromEventList>
10004a4c:	2800      	cmp	r0, #0
10004a4e:	d0f5      	beq.n	10004a3c <xQueueSemaphoreTake+0x268>
10004a50:	f7ff f9ac 	bl	10003dac <vPortYield>
10004a54:	e7f2      	b.n	10004a3c <xQueueSemaphoreTake+0x268>
10004a56:	46c0      	nop			; (mov r8, r8)

10004a58 <xQueuePeek>:
10004a58:	b5f0      	push	{r4, r5, r6, r7, lr}
10004a5a:	46ce      	mov	lr, r9
10004a5c:	4647      	mov	r7, r8
10004a5e:	0004      	movs	r4, r0
10004a60:	b580      	push	{r7, lr}
10004a62:	b085      	sub	sp, #20
10004a64:	4688      	mov	r8, r1
10004a66:	9201      	str	r2, [sp, #4]
10004a68:	f7ff f9ac 	bl	10003dc4 <vPortEnterCritical>
10004a6c:	6ba3      	ldr	r3, [r4, #56]	; 0x38
10004a6e:	2b00      	cmp	r3, #0
10004a70:	d000      	beq.n	10004a74 <xQueuePeek+0x1c>
10004a72:	e11f      	b.n	10004cb4 <xQueuePeek+0x25c>
10004a74:	9b01      	ldr	r3, [sp, #4]
10004a76:	2b00      	cmp	r3, #0
10004a78:	d100      	bne.n	10004a7c <xQueuePeek+0x24>
10004a7a:	e0cb      	b.n	10004c14 <xQueuePeek+0x1bc>
10004a7c:	0026      	movs	r6, r4
10004a7e:	a802      	add	r0, sp, #8
10004a80:	f7fe fbf2 	bl	10003268 <vTaskInternalSetTimeOutState>
10004a84:	2744      	movs	r7, #68	; 0x44
10004a86:	3624      	adds	r6, #36	; 0x24
10004a88:	f7ff f9a8 	bl	10003ddc <vPortExitCritical>
10004a8c:	f7fe f8ba 	bl	10002c04 <vTaskSuspendAll>
10004a90:	f7ff f998 	bl	10003dc4 <vPortEnterCritical>
10004a94:	5de3      	ldrb	r3, [r4, r7]
10004a96:	b25b      	sxtb	r3, r3
10004a98:	3301      	adds	r3, #1
10004a9a:	d101      	bne.n	10004aa0 <xQueuePeek+0x48>
10004a9c:	2300      	movs	r3, #0
10004a9e:	55e3      	strb	r3, [r4, r7]
10004aa0:	2245      	movs	r2, #69	; 0x45
10004aa2:	5ca3      	ldrb	r3, [r4, r2]
10004aa4:	b25b      	sxtb	r3, r3
10004aa6:	3301      	adds	r3, #1
10004aa8:	d101      	bne.n	10004aae <xQueuePeek+0x56>
10004aaa:	2300      	movs	r3, #0
10004aac:	54a3      	strb	r3, [r4, r2]
10004aae:	f7ff f995 	bl	10003ddc <vPortExitCritical>
10004ab2:	a901      	add	r1, sp, #4
10004ab4:	a802      	add	r0, sp, #8
10004ab6:	f7fe fbdf 	bl	10003278 <xTaskCheckForTimeOut>
10004aba:	2800      	cmp	r0, #0
10004abc:	d155      	bne.n	10004b6a <xQueuePeek+0x112>
10004abe:	f7ff f981 	bl	10003dc4 <vPortEnterCritical>
10004ac2:	6ba3      	ldr	r3, [r4, #56]	; 0x38
10004ac4:	2b00      	cmp	r3, #0
10004ac6:	d000      	beq.n	10004aca <xQueuePeek+0x72>
10004ac8:	e0ac      	b.n	10004c24 <xQueuePeek+0x1cc>
10004aca:	f7ff f987 	bl	10003ddc <vPortExitCritical>
10004ace:	0030      	movs	r0, r6
10004ad0:	9901      	ldr	r1, [sp, #4]
10004ad2:	f7fe fa37 	bl	10002f44 <vTaskPlaceOnEventList>
10004ad6:	f7ff f975 	bl	10003dc4 <vPortEnterCritical>
10004ada:	2345      	movs	r3, #69	; 0x45
10004adc:	5ce5      	ldrb	r5, [r4, r3]
10004ade:	b26d      	sxtb	r5, r5
10004ae0:	2d00      	cmp	r5, #0
10004ae2:	dc05      	bgt.n	10004af0 <xQueuePeek+0x98>
10004ae4:	e013      	b.n	10004b0e <xQueuePeek+0xb6>
10004ae6:	3d01      	subs	r5, #1
10004ae8:	b2ea      	uxtb	r2, r5
10004aea:	b26d      	sxtb	r5, r5
10004aec:	2a00      	cmp	r2, #0
10004aee:	d00e      	beq.n	10004b0e <xQueuePeek+0xb6>
10004af0:	6a63      	ldr	r3, [r4, #36]	; 0x24
10004af2:	2b00      	cmp	r3, #0
10004af4:	d00b      	beq.n	10004b0e <xQueuePeek+0xb6>
10004af6:	0030      	movs	r0, r6
10004af8:	f7fe fafa 	bl	100030f0 <xTaskRemoveFromEventList>
10004afc:	2800      	cmp	r0, #0
10004afe:	d0f2      	beq.n	10004ae6 <xQueuePeek+0x8e>
10004b00:	3d01      	subs	r5, #1
10004b02:	f7fe fbe1 	bl	100032c8 <vTaskMissedYield>
10004b06:	b2ea      	uxtb	r2, r5
10004b08:	b26d      	sxtb	r5, r5
10004b0a:	2a00      	cmp	r2, #0
10004b0c:	d1f0      	bne.n	10004af0 <xQueuePeek+0x98>
10004b0e:	2345      	movs	r3, #69	; 0x45
10004b10:	22ff      	movs	r2, #255	; 0xff
10004b12:	54e2      	strb	r2, [r4, r3]
10004b14:	f7ff f962 	bl	10003ddc <vPortExitCritical>
10004b18:	f7ff f954 	bl	10003dc4 <vPortEnterCritical>
10004b1c:	2310      	movs	r3, #16
10004b1e:	4699      	mov	r9, r3
10004b20:	5de5      	ldrb	r5, [r4, r7]
10004b22:	44a1      	add	r9, r4
10004b24:	b26d      	sxtb	r5, r5
10004b26:	2d00      	cmp	r5, #0
10004b28:	dc05      	bgt.n	10004b36 <xQueuePeek+0xde>
10004b2a:	e013      	b.n	10004b54 <xQueuePeek+0xfc>
10004b2c:	3d01      	subs	r5, #1
10004b2e:	b2ea      	uxtb	r2, r5
10004b30:	b26d      	sxtb	r5, r5
10004b32:	2a00      	cmp	r2, #0
10004b34:	d00e      	beq.n	10004b54 <xQueuePeek+0xfc>
10004b36:	6923      	ldr	r3, [r4, #16]
10004b38:	2b00      	cmp	r3, #0
10004b3a:	d00b      	beq.n	10004b54 <xQueuePeek+0xfc>
10004b3c:	4648      	mov	r0, r9
10004b3e:	f7fe fad7 	bl	100030f0 <xTaskRemoveFromEventList>
10004b42:	2800      	cmp	r0, #0
10004b44:	d0f2      	beq.n	10004b2c <xQueuePeek+0xd4>
10004b46:	3d01      	subs	r5, #1
10004b48:	f7fe fbbe 	bl	100032c8 <vTaskMissedYield>
10004b4c:	b2ea      	uxtb	r2, r5
10004b4e:	b26d      	sxtb	r5, r5
10004b50:	2a00      	cmp	r2, #0
10004b52:	d1f0      	bne.n	10004b36 <xQueuePeek+0xde>
10004b54:	23ff      	movs	r3, #255	; 0xff
10004b56:	55e3      	strb	r3, [r4, r7]
10004b58:	f7ff f940 	bl	10003ddc <vPortExitCritical>
10004b5c:	f7fe f85a 	bl	10002c14 <xTaskResumeAll>
10004b60:	2800      	cmp	r0, #0
10004b62:	d14e      	bne.n	10004c02 <xQueuePeek+0x1aa>
10004b64:	f7ff f922 	bl	10003dac <vPortYield>
10004b68:	e04b      	b.n	10004c02 <xQueuePeek+0x1aa>
10004b6a:	f7ff f92b 	bl	10003dc4 <vPortEnterCritical>
10004b6e:	2345      	movs	r3, #69	; 0x45
10004b70:	5ce5      	ldrb	r5, [r4, r3]
10004b72:	b26d      	sxtb	r5, r5
10004b74:	2d00      	cmp	r5, #0
10004b76:	dc05      	bgt.n	10004b84 <xQueuePeek+0x12c>
10004b78:	e013      	b.n	10004ba2 <xQueuePeek+0x14a>
10004b7a:	3d01      	subs	r5, #1
10004b7c:	b2ea      	uxtb	r2, r5
10004b7e:	b26d      	sxtb	r5, r5
10004b80:	2a00      	cmp	r2, #0
10004b82:	d00e      	beq.n	10004ba2 <xQueuePeek+0x14a>
10004b84:	6a63      	ldr	r3, [r4, #36]	; 0x24
10004b86:	2b00      	cmp	r3, #0
10004b88:	d00b      	beq.n	10004ba2 <xQueuePeek+0x14a>
10004b8a:	0030      	movs	r0, r6
10004b8c:	f7fe fab0 	bl	100030f0 <xTaskRemoveFromEventList>
10004b90:	2800      	cmp	r0, #0
10004b92:	d0f2      	beq.n	10004b7a <xQueuePeek+0x122>
10004b94:	3d01      	subs	r5, #1
10004b96:	f7fe fb97 	bl	100032c8 <vTaskMissedYield>
10004b9a:	b2ea      	uxtb	r2, r5
10004b9c:	b26d      	sxtb	r5, r5
10004b9e:	2a00      	cmp	r2, #0
10004ba0:	d1f0      	bne.n	10004b84 <xQueuePeek+0x12c>
10004ba2:	2345      	movs	r3, #69	; 0x45
10004ba4:	22ff      	movs	r2, #255	; 0xff
10004ba6:	54e2      	strb	r2, [r4, r3]
10004ba8:	f7ff f918 	bl	10003ddc <vPortExitCritical>
10004bac:	f7ff f90a 	bl	10003dc4 <vPortEnterCritical>
10004bb0:	2310      	movs	r3, #16
10004bb2:	4699      	mov	r9, r3
10004bb4:	5de5      	ldrb	r5, [r4, r7]
10004bb6:	44a1      	add	r9, r4
10004bb8:	b26d      	sxtb	r5, r5
10004bba:	2d00      	cmp	r5, #0
10004bbc:	dc05      	bgt.n	10004bca <xQueuePeek+0x172>
10004bbe:	e013      	b.n	10004be8 <xQueuePeek+0x190>
10004bc0:	3d01      	subs	r5, #1
10004bc2:	b2ea      	uxtb	r2, r5
10004bc4:	b26d      	sxtb	r5, r5
10004bc6:	2a00      	cmp	r2, #0
10004bc8:	d00e      	beq.n	10004be8 <xQueuePeek+0x190>
10004bca:	6923      	ldr	r3, [r4, #16]
10004bcc:	2b00      	cmp	r3, #0
10004bce:	d00b      	beq.n	10004be8 <xQueuePeek+0x190>
10004bd0:	4648      	mov	r0, r9
10004bd2:	f7fe fa8d 	bl	100030f0 <xTaskRemoveFromEventList>
10004bd6:	2800      	cmp	r0, #0
10004bd8:	d0f2      	beq.n	10004bc0 <xQueuePeek+0x168>
10004bda:	3d01      	subs	r5, #1
10004bdc:	f7fe fb74 	bl	100032c8 <vTaskMissedYield>
10004be0:	b2ea      	uxtb	r2, r5
10004be2:	b26d      	sxtb	r5, r5
10004be4:	2a00      	cmp	r2, #0
10004be6:	d1f0      	bne.n	10004bca <xQueuePeek+0x172>
10004be8:	23ff      	movs	r3, #255	; 0xff
10004bea:	55e3      	strb	r3, [r4, r7]
10004bec:	f7ff f8f6 	bl	10003ddc <vPortExitCritical>
10004bf0:	f7fe f810 	bl	10002c14 <xTaskResumeAll>
10004bf4:	f7ff f8e6 	bl	10003dc4 <vPortEnterCritical>
10004bf8:	6ba3      	ldr	r3, [r4, #56]	; 0x38
10004bfa:	2b00      	cmp	r3, #0
10004bfc:	d00a      	beq.n	10004c14 <xQueuePeek+0x1bc>
10004bfe:	f7ff f8ed 	bl	10003ddc <vPortExitCritical>
10004c02:	f7ff f8df 	bl	10003dc4 <vPortEnterCritical>
10004c06:	6ba3      	ldr	r3, [r4, #56]	; 0x38
10004c08:	2b00      	cmp	r3, #0
10004c0a:	d153      	bne.n	10004cb4 <xQueuePeek+0x25c>
10004c0c:	9b01      	ldr	r3, [sp, #4]
10004c0e:	2b00      	cmp	r3, #0
10004c10:	d000      	beq.n	10004c14 <xQueuePeek+0x1bc>
10004c12:	e739      	b.n	10004a88 <xQueuePeek+0x30>
10004c14:	f7ff f8e2 	bl	10003ddc <vPortExitCritical>
10004c18:	2000      	movs	r0, #0
10004c1a:	b005      	add	sp, #20
10004c1c:	bcc0      	pop	{r6, r7}
10004c1e:	46b9      	mov	r9, r7
10004c20:	46b0      	mov	r8, r6
10004c22:	bdf0      	pop	{r4, r5, r6, r7, pc}
10004c24:	f7ff f8da 	bl	10003ddc <vPortExitCritical>
10004c28:	f7ff f8cc 	bl	10003dc4 <vPortEnterCritical>
10004c2c:	2345      	movs	r3, #69	; 0x45
10004c2e:	5ce5      	ldrb	r5, [r4, r3]
10004c30:	b26d      	sxtb	r5, r5
10004c32:	2d00      	cmp	r5, #0
10004c34:	dc05      	bgt.n	10004c42 <xQueuePeek+0x1ea>
10004c36:	e013      	b.n	10004c60 <xQueuePeek+0x208>
10004c38:	3d01      	subs	r5, #1
10004c3a:	b2ea      	uxtb	r2, r5
10004c3c:	b26d      	sxtb	r5, r5
10004c3e:	2a00      	cmp	r2, #0
10004c40:	d00e      	beq.n	10004c60 <xQueuePeek+0x208>
10004c42:	6a63      	ldr	r3, [r4, #36]	; 0x24
10004c44:	2b00      	cmp	r3, #0
10004c46:	d00b      	beq.n	10004c60 <xQueuePeek+0x208>
10004c48:	0030      	movs	r0, r6
10004c4a:	f7fe fa51 	bl	100030f0 <xTaskRemoveFromEventList>
10004c4e:	2800      	cmp	r0, #0
10004c50:	d0f2      	beq.n	10004c38 <xQueuePeek+0x1e0>
10004c52:	3d01      	subs	r5, #1
10004c54:	f7fe fb38 	bl	100032c8 <vTaskMissedYield>
10004c58:	b2ea      	uxtb	r2, r5
10004c5a:	b26d      	sxtb	r5, r5
10004c5c:	2a00      	cmp	r2, #0
10004c5e:	d1f0      	bne.n	10004c42 <xQueuePeek+0x1ea>
10004c60:	2345      	movs	r3, #69	; 0x45
10004c62:	22ff      	movs	r2, #255	; 0xff
10004c64:	54e2      	strb	r2, [r4, r3]
10004c66:	f7ff f8b9 	bl	10003ddc <vPortExitCritical>
10004c6a:	f7ff f8ab 	bl	10003dc4 <vPortEnterCritical>
10004c6e:	2310      	movs	r3, #16
10004c70:	4699      	mov	r9, r3
10004c72:	5de5      	ldrb	r5, [r4, r7]
10004c74:	44a1      	add	r9, r4
10004c76:	b26d      	sxtb	r5, r5
10004c78:	2d00      	cmp	r5, #0
10004c7a:	dc05      	bgt.n	10004c88 <xQueuePeek+0x230>
10004c7c:	e013      	b.n	10004ca6 <xQueuePeek+0x24e>
10004c7e:	3d01      	subs	r5, #1
10004c80:	b2ea      	uxtb	r2, r5
10004c82:	b26d      	sxtb	r5, r5
10004c84:	2a00      	cmp	r2, #0
10004c86:	d00e      	beq.n	10004ca6 <xQueuePeek+0x24e>
10004c88:	6923      	ldr	r3, [r4, #16]
10004c8a:	2b00      	cmp	r3, #0
10004c8c:	d00b      	beq.n	10004ca6 <xQueuePeek+0x24e>
10004c8e:	4648      	mov	r0, r9
10004c90:	f7fe fa2e 	bl	100030f0 <xTaskRemoveFromEventList>
10004c94:	2800      	cmp	r0, #0
10004c96:	d0f2      	beq.n	10004c7e <xQueuePeek+0x226>
10004c98:	3d01      	subs	r5, #1
10004c9a:	f7fe fb15 	bl	100032c8 <vTaskMissedYield>
10004c9e:	b2ea      	uxtb	r2, r5
10004ca0:	b26d      	sxtb	r5, r5
10004ca2:	2a00      	cmp	r2, #0
10004ca4:	d1f0      	bne.n	10004c88 <xQueuePeek+0x230>
10004ca6:	23ff      	movs	r3, #255	; 0xff
10004ca8:	55e3      	strb	r3, [r4, r7]
10004caa:	f7ff f897 	bl	10003ddc <vPortExitCritical>
10004cae:	f7fd ffb1 	bl	10002c14 <xTaskResumeAll>
10004cb2:	e7a6      	b.n	10004c02 <xQueuePeek+0x1aa>
10004cb4:	6c22      	ldr	r2, [r4, #64]	; 0x40
10004cb6:	68e5      	ldr	r5, [r4, #12]
10004cb8:	2a00      	cmp	r2, #0
10004cba:	d007      	beq.n	10004ccc <xQueuePeek+0x274>
10004cbc:	68a3      	ldr	r3, [r4, #8]
10004cbe:	18a9      	adds	r1, r5, r2
10004cc0:	60e1      	str	r1, [r4, #12]
10004cc2:	4299      	cmp	r1, r3
10004cc4:	d20a      	bcs.n	10004cdc <xQueuePeek+0x284>
10004cc6:	4640      	mov	r0, r8
10004cc8:	f7fd f888 	bl	10001ddc <__wrap___aeabi_memcpy>
10004ccc:	6a63      	ldr	r3, [r4, #36]	; 0x24
10004cce:	60e5      	str	r5, [r4, #12]
10004cd0:	2b00      	cmp	r3, #0
10004cd2:	d106      	bne.n	10004ce2 <xQueuePeek+0x28a>
10004cd4:	f7ff f882 	bl	10003ddc <vPortExitCritical>
10004cd8:	2001      	movs	r0, #1
10004cda:	e79e      	b.n	10004c1a <xQueuePeek+0x1c2>
10004cdc:	6821      	ldr	r1, [r4, #0]
10004cde:	60e1      	str	r1, [r4, #12]
10004ce0:	e7f1      	b.n	10004cc6 <xQueuePeek+0x26e>
10004ce2:	0020      	movs	r0, r4
10004ce4:	3024      	adds	r0, #36	; 0x24
10004ce6:	f7fe fa03 	bl	100030f0 <xTaskRemoveFromEventList>
10004cea:	2800      	cmp	r0, #0
10004cec:	d0f2      	beq.n	10004cd4 <xQueuePeek+0x27c>
10004cee:	f7ff f85d 	bl	10003dac <vPortYield>
10004cf2:	e7ef      	b.n	10004cd4 <xQueuePeek+0x27c>

10004cf4 <xQueueReceiveFromISR>:
10004cf4:	b5f8      	push	{r3, r4, r5, r6, r7, lr}
10004cf6:	46ce      	mov	lr, r9
10004cf8:	4647      	mov	r7, r8
10004cfa:	0004      	movs	r4, r0
10004cfc:	b580      	push	{r7, lr}
10004cfe:	4689      	mov	r9, r1
10004d00:	4690      	mov	r8, r2
10004d02:	f7ff f875 	bl	10003df0 <ulSetInterruptMaskFromISR>
10004d06:	6ba6      	ldr	r6, [r4, #56]	; 0x38
10004d08:	0005      	movs	r5, r0
10004d0a:	2700      	movs	r7, #0
10004d0c:	2e00      	cmp	r6, #0
10004d0e:	d107      	bne.n	10004d20 <xQueueReceiveFromISR+0x2c>
10004d10:	0028      	movs	r0, r5
10004d12:	f7ff f871 	bl	10003df8 <vClearInterruptMaskFromISR>
10004d16:	0038      	movs	r0, r7
10004d18:	bcc0      	pop	{r6, r7}
10004d1a:	46b9      	mov	r9, r7
10004d1c:	46b0      	mov	r8, r6
10004d1e:	bdf8      	pop	{r3, r4, r5, r6, r7, pc}
10004d20:	2344      	movs	r3, #68	; 0x44
10004d22:	6c22      	ldr	r2, [r4, #64]	; 0x40
10004d24:	5ce7      	ldrb	r7, [r4, r3]
10004d26:	b27f      	sxtb	r7, r7
10004d28:	2a00      	cmp	r2, #0
10004d2a:	d00a      	beq.n	10004d42 <xQueueReceiveFromISR+0x4e>
10004d2c:	68e3      	ldr	r3, [r4, #12]
10004d2e:	1899      	adds	r1, r3, r2
10004d30:	68a3      	ldr	r3, [r4, #8]
10004d32:	60e1      	str	r1, [r4, #12]
10004d34:	4299      	cmp	r1, r3
10004d36:	d301      	bcc.n	10004d3c <xQueueReceiveFromISR+0x48>
10004d38:	6821      	ldr	r1, [r4, #0]
10004d3a:	60e1      	str	r1, [r4, #12]
10004d3c:	4648      	mov	r0, r9
10004d3e:	f7fd f84d 	bl	10001ddc <__wrap___aeabi_memcpy>
10004d42:	3e01      	subs	r6, #1
10004d44:	63a6      	str	r6, [r4, #56]	; 0x38
10004d46:	1c7b      	adds	r3, r7, #1
10004d48:	d104      	bne.n	10004d54 <xQueueReceiveFromISR+0x60>
10004d4a:	6923      	ldr	r3, [r4, #16]
10004d4c:	2b00      	cmp	r3, #0
10004d4e:	d10b      	bne.n	10004d68 <xQueueReceiveFromISR+0x74>
10004d50:	2701      	movs	r7, #1
10004d52:	e7dd      	b.n	10004d10 <xQueueReceiveFromISR+0x1c>
10004d54:	f7fe f86c 	bl	10002e30 <uxTaskGetNumberOfTasks>
10004d58:	4287      	cmp	r7, r0
10004d5a:	d2f9      	bcs.n	10004d50 <xQueueReceiveFromISR+0x5c>
10004d5c:	2344      	movs	r3, #68	; 0x44
10004d5e:	3701      	adds	r7, #1
10004d60:	b27f      	sxtb	r7, r7
10004d62:	54e7      	strb	r7, [r4, r3]
10004d64:	2701      	movs	r7, #1
10004d66:	e7d3      	b.n	10004d10 <xQueueReceiveFromISR+0x1c>
10004d68:	0020      	movs	r0, r4
10004d6a:	3010      	adds	r0, #16
10004d6c:	f7fe f9c0 	bl	100030f0 <xTaskRemoveFromEventList>
10004d70:	2800      	cmp	r0, #0
10004d72:	d0ed      	beq.n	10004d50 <xQueueReceiveFromISR+0x5c>
10004d74:	4643      	mov	r3, r8
10004d76:	2b00      	cmp	r3, #0
10004d78:	d0ea      	beq.n	10004d50 <xQueueReceiveFromISR+0x5c>
10004d7a:	2301      	movs	r3, #1
10004d7c:	4642      	mov	r2, r8
10004d7e:	2701      	movs	r7, #1
10004d80:	6013      	str	r3, [r2, #0]
10004d82:	e7c5      	b.n	10004d10 <xQueueReceiveFromISR+0x1c>

10004d84 <xQueuePeekFromISR>:
10004d84:	b5f8      	push	{r3, r4, r5, r6, r7, lr}
10004d86:	0004      	movs	r4, r0
10004d88:	000f      	movs	r7, r1
10004d8a:	f7ff f831 	bl	10003df0 <ulSetInterruptMaskFromISR>
10004d8e:	6ba3      	ldr	r3, [r4, #56]	; 0x38
10004d90:	0005      	movs	r5, r0
10004d92:	2600      	movs	r6, #0
10004d94:	2b00      	cmp	r3, #0
10004d96:	d104      	bne.n	10004da2 <xQueuePeekFromISR+0x1e>
10004d98:	0028      	movs	r0, r5
10004d9a:	f7ff f82d 	bl	10003df8 <vClearInterruptMaskFromISR>
10004d9e:	0030      	movs	r0, r6
10004da0:	bdf8      	pop	{r3, r4, r5, r6, r7, pc}
10004da2:	6c22      	ldr	r2, [r4, #64]	; 0x40
10004da4:	68e6      	ldr	r6, [r4, #12]
10004da6:	2a00      	cmp	r2, #0
10004da8:	d009      	beq.n	10004dbe <xQueuePeekFromISR+0x3a>
10004daa:	68a3      	ldr	r3, [r4, #8]
10004dac:	18b1      	adds	r1, r6, r2
10004dae:	60e1      	str	r1, [r4, #12]
10004db0:	4299      	cmp	r1, r3
10004db2:	d301      	bcc.n	10004db8 <xQueuePeekFromISR+0x34>
10004db4:	6821      	ldr	r1, [r4, #0]
10004db6:	60e1      	str	r1, [r4, #12]
10004db8:	0038      	movs	r0, r7
10004dba:	f7fd f80f 	bl	10001ddc <__wrap___aeabi_memcpy>
10004dbe:	60e6      	str	r6, [r4, #12]
10004dc0:	2601      	movs	r6, #1
10004dc2:	e7e9      	b.n	10004d98 <xQueuePeekFromISR+0x14>

10004dc4 <uxQueueMessagesWaiting>:
10004dc4:	b510      	push	{r4, lr}
10004dc6:	0004      	movs	r4, r0
10004dc8:	f7fe fffc 	bl	10003dc4 <vPortEnterCritical>
10004dcc:	6ba4      	ldr	r4, [r4, #56]	; 0x38
10004dce:	f7ff f805 	bl	10003ddc <vPortExitCritical>
10004dd2:	0020      	movs	r0, r4
10004dd4:	bd10      	pop	{r4, pc}
10004dd6:	46c0      	nop			; (mov r8, r8)

10004dd8 <uxQueueSpacesAvailable>:
10004dd8:	b510      	push	{r4, lr}
10004dda:	0004      	movs	r4, r0
10004ddc:	f7fe fff2 	bl	10003dc4 <vPortEnterCritical>
10004de0:	6ba3      	ldr	r3, [r4, #56]	; 0x38
10004de2:	6be4      	ldr	r4, [r4, #60]	; 0x3c
10004de4:	1ae4      	subs	r4, r4, r3
10004de6:	f7fe fff9 	bl	10003ddc <vPortExitCritical>
10004dea:	0020      	movs	r0, r4
10004dec:	bd10      	pop	{r4, pc}
10004dee:	46c0      	nop			; (mov r8, r8)

10004df0 <uxQueueMessagesWaitingFromISR>:
10004df0:	6b80      	ldr	r0, [r0, #56]	; 0x38
10004df2:	4770      	bx	lr

10004df4 <vQueueDelete>:
10004df4:	4b1e      	ldr	r3, [pc, #120]	; (10004e70 <vQueueDelete+0x7c>)
10004df6:	b570      	push	{r4, r5, r6, lr}
10004df8:	685a      	ldr	r2, [r3, #4]
10004dfa:	4290      	cmp	r0, r2
10004dfc:	d01d      	beq.n	10004e3a <vQueueDelete+0x46>
10004dfe:	68da      	ldr	r2, [r3, #12]
10004e00:	4290      	cmp	r0, r2
10004e02:	d022      	beq.n	10004e4a <vQueueDelete+0x56>
10004e04:	695a      	ldr	r2, [r3, #20]
10004e06:	4290      	cmp	r0, r2
10004e08:	d021      	beq.n	10004e4e <vQueueDelete+0x5a>
10004e0a:	69da      	ldr	r2, [r3, #28]
10004e0c:	4290      	cmp	r0, r2
10004e0e:	d020      	beq.n	10004e52 <vQueueDelete+0x5e>
10004e10:	6a5a      	ldr	r2, [r3, #36]	; 0x24
10004e12:	4290      	cmp	r0, r2
10004e14:	d01f      	beq.n	10004e56 <vQueueDelete+0x62>
10004e16:	6ada      	ldr	r2, [r3, #44]	; 0x2c
10004e18:	4290      	cmp	r0, r2
10004e1a:	d01e      	beq.n	10004e5a <vQueueDelete+0x66>
10004e1c:	6b5a      	ldr	r2, [r3, #52]	; 0x34
10004e1e:	4290      	cmp	r0, r2
10004e20:	d01d      	beq.n	10004e5e <vQueueDelete+0x6a>
10004e22:	6bda      	ldr	r2, [r3, #60]	; 0x3c
10004e24:	4290      	cmp	r0, r2
10004e26:	d01c      	beq.n	10004e62 <vQueueDelete+0x6e>
10004e28:	6c5a      	ldr	r2, [r3, #68]	; 0x44
10004e2a:	4290      	cmp	r0, r2
10004e2c:	d01b      	beq.n	10004e66 <vQueueDelete+0x72>
10004e2e:	6cda      	ldr	r2, [r3, #76]	; 0x4c
10004e30:	4290      	cmp	r0, r2
10004e32:	d01a      	beq.n	10004e6a <vQueueDelete+0x76>
10004e34:	f7fe ff74 	bl	10003d20 <vPortFree>
10004e38:	bd70      	pop	{r4, r5, r6, pc}
10004e3a:	2200      	movs	r2, #0
10004e3c:	2400      	movs	r4, #0
10004e3e:	2500      	movs	r5, #0
10004e40:	00d2      	lsls	r2, r2, #3
10004e42:	189b      	adds	r3, r3, r2
10004e44:	601c      	str	r4, [r3, #0]
10004e46:	605d      	str	r5, [r3, #4]
10004e48:	e7f4      	b.n	10004e34 <vQueueDelete+0x40>
10004e4a:	2201      	movs	r2, #1
10004e4c:	e7f6      	b.n	10004e3c <vQueueDelete+0x48>
10004e4e:	2202      	movs	r2, #2
10004e50:	e7f4      	b.n	10004e3c <vQueueDelete+0x48>
10004e52:	2203      	movs	r2, #3
10004e54:	e7f2      	b.n	10004e3c <vQueueDelete+0x48>
10004e56:	2204      	movs	r2, #4
10004e58:	e7f0      	b.n	10004e3c <vQueueDelete+0x48>
10004e5a:	2205      	movs	r2, #5
10004e5c:	e7ee      	b.n	10004e3c <vQueueDelete+0x48>
10004e5e:	2206      	movs	r2, #6
10004e60:	e7ec      	b.n	10004e3c <vQueueDelete+0x48>
10004e62:	2207      	movs	r2, #7
10004e64:	e7ea      	b.n	10004e3c <vQueueDelete+0x48>
10004e66:	2208      	movs	r2, #8
10004e68:	e7e8      	b.n	10004e3c <vQueueDelete+0x48>
10004e6a:	2209      	movs	r2, #9
10004e6c:	e7e6      	b.n	10004e3c <vQueueDelete+0x48>
10004e6e:	46c0      	nop			; (mov r8, r8)
10004e70:	20000ab0 	.word	0x20000ab0

10004e74 <uxQueueGetQueueItemSize>:
10004e74:	6c00      	ldr	r0, [r0, #64]	; 0x40
10004e76:	4770      	bx	lr

10004e78 <uxQueueGetQueueLength>:
10004e78:	6bc0      	ldr	r0, [r0, #60]	; 0x3c
10004e7a:	4770      	bx	lr

10004e7c <xQueueIsQueueEmptyFromISR>:
10004e7c:	6b80      	ldr	r0, [r0, #56]	; 0x38
10004e7e:	4243      	negs	r3, r0
10004e80:	4158      	adcs	r0, r3
10004e82:	4770      	bx	lr

10004e84 <xQueueIsQueueFullFromISR>:
10004e84:	6b83      	ldr	r3, [r0, #56]	; 0x38
10004e86:	6bc0      	ldr	r0, [r0, #60]	; 0x3c
10004e88:	1ac0      	subs	r0, r0, r3
10004e8a:	4243      	negs	r3, r0
10004e8c:	4158      	adcs	r0, r3
10004e8e:	4770      	bx	lr

10004e90 <vQueueAddToRegistry>:
10004e90:	b570      	push	{r4, r5, r6, lr}
10004e92:	2900      	cmp	r1, #0
10004e94:	d00f      	beq.n	10004eb6 <vQueueAddToRegistry+0x26>
10004e96:	2600      	movs	r6, #0
10004e98:	2300      	movs	r3, #0
10004e9a:	4c42      	ldr	r4, [pc, #264]	; (10004fa4 <vQueueAddToRegistry+0x114>)
10004e9c:	00da      	lsls	r2, r3, #3
10004e9e:	18a5      	adds	r5, r4, r2
10004ea0:	686d      	ldr	r5, [r5, #4]
10004ea2:	4285      	cmp	r5, r0
10004ea4:	d100      	bne.n	10004ea8 <vQueueAddToRegistry+0x18>
10004ea6:	e06f      	b.n	10004f88 <vQueueAddToRegistry+0xf8>
10004ea8:	2e00      	cmp	r6, #0
10004eaa:	d005      	beq.n	10004eb8 <vQueueAddToRegistry+0x28>
10004eac:	3301      	adds	r3, #1
10004eae:	2b0a      	cmp	r3, #10
10004eb0:	d1f4      	bne.n	10004e9c <vQueueAddToRegistry+0xc>
10004eb2:	6031      	str	r1, [r6, #0]
10004eb4:	6070      	str	r0, [r6, #4]
10004eb6:	bd70      	pop	{r4, r5, r6, pc}
10004eb8:	58a5      	ldr	r5, [r4, r2]
10004eba:	2d00      	cmp	r5, #0
10004ebc:	d061      	beq.n	10004f82 <vQueueAddToRegistry+0xf2>
10004ebe:	1c5d      	adds	r5, r3, #1
10004ec0:	2b09      	cmp	r3, #9
10004ec2:	d0f8      	beq.n	10004eb6 <vQueueAddToRegistry+0x26>
10004ec4:	00ea      	lsls	r2, r5, #3
10004ec6:	18a6      	adds	r6, r4, r2
10004ec8:	6876      	ldr	r6, [r6, #4]
10004eca:	42b0      	cmp	r0, r6
10004ecc:	d05c      	beq.n	10004f88 <vQueueAddToRegistry+0xf8>
10004ece:	58a6      	ldr	r6, [r4, r2]
10004ed0:	2e00      	cmp	r6, #0
10004ed2:	d05d      	beq.n	10004f90 <vQueueAddToRegistry+0x100>
10004ed4:	1c9d      	adds	r5, r3, #2
10004ed6:	2b08      	cmp	r3, #8
10004ed8:	d0ed      	beq.n	10004eb6 <vQueueAddToRegistry+0x26>
10004eda:	00ea      	lsls	r2, r5, #3
10004edc:	18a6      	adds	r6, r4, r2
10004ede:	6876      	ldr	r6, [r6, #4]
10004ee0:	42b0      	cmp	r0, r6
10004ee2:	d051      	beq.n	10004f88 <vQueueAddToRegistry+0xf8>
10004ee4:	58a6      	ldr	r6, [r4, r2]
10004ee6:	2e00      	cmp	r6, #0
10004ee8:	d052      	beq.n	10004f90 <vQueueAddToRegistry+0x100>
10004eea:	1cdd      	adds	r5, r3, #3
10004eec:	2b07      	cmp	r3, #7
10004eee:	d0e2      	beq.n	10004eb6 <vQueueAddToRegistry+0x26>
10004ef0:	00ea      	lsls	r2, r5, #3
10004ef2:	18a6      	adds	r6, r4, r2
10004ef4:	6876      	ldr	r6, [r6, #4]
10004ef6:	4286      	cmp	r6, r0
10004ef8:	d046      	beq.n	10004f88 <vQueueAddToRegistry+0xf8>
10004efa:	58a6      	ldr	r6, [r4, r2]
10004efc:	2e00      	cmp	r6, #0
10004efe:	d047      	beq.n	10004f90 <vQueueAddToRegistry+0x100>
10004f00:	1d1d      	adds	r5, r3, #4
10004f02:	2b06      	cmp	r3, #6
10004f04:	d0d7      	beq.n	10004eb6 <vQueueAddToRegistry+0x26>
10004f06:	00ea      	lsls	r2, r5, #3
10004f08:	18a6      	adds	r6, r4, r2
10004f0a:	6876      	ldr	r6, [r6, #4]
10004f0c:	42b0      	cmp	r0, r6
10004f0e:	d03b      	beq.n	10004f88 <vQueueAddToRegistry+0xf8>
10004f10:	58a6      	ldr	r6, [r4, r2]
10004f12:	2e00      	cmp	r6, #0
10004f14:	d03c      	beq.n	10004f90 <vQueueAddToRegistry+0x100>
10004f16:	1d5d      	adds	r5, r3, #5
10004f18:	2b05      	cmp	r3, #5
10004f1a:	d0cc      	beq.n	10004eb6 <vQueueAddToRegistry+0x26>
10004f1c:	00ea      	lsls	r2, r5, #3
10004f1e:	18a6      	adds	r6, r4, r2
10004f20:	6876      	ldr	r6, [r6, #4]
10004f22:	42b0      	cmp	r0, r6
10004f24:	d030      	beq.n	10004f88 <vQueueAddToRegistry+0xf8>
10004f26:	58a6      	ldr	r6, [r4, r2]
10004f28:	2e00      	cmp	r6, #0
10004f2a:	d031      	beq.n	10004f90 <vQueueAddToRegistry+0x100>
10004f2c:	1d9a      	adds	r2, r3, #6
10004f2e:	2b04      	cmp	r3, #4
10004f30:	d0c1      	beq.n	10004eb6 <vQueueAddToRegistry+0x26>
10004f32:	00d5      	lsls	r5, r2, #3
10004f34:	1966      	adds	r6, r4, r5
10004f36:	6876      	ldr	r6, [r6, #4]
10004f38:	42b0      	cmp	r0, r6
10004f3a:	d024      	beq.n	10004f86 <vQueueAddToRegistry+0xf6>
10004f3c:	5965      	ldr	r5, [r4, r5]
10004f3e:	2d00      	cmp	r5, #0
10004f40:	d029      	beq.n	10004f96 <vQueueAddToRegistry+0x106>
10004f42:	1ddd      	adds	r5, r3, #7
10004f44:	2b03      	cmp	r3, #3
10004f46:	d0b6      	beq.n	10004eb6 <vQueueAddToRegistry+0x26>
10004f48:	00ea      	lsls	r2, r5, #3
10004f4a:	18a6      	adds	r6, r4, r2
10004f4c:	6876      	ldr	r6, [r6, #4]
10004f4e:	42b0      	cmp	r0, r6
10004f50:	d01a      	beq.n	10004f88 <vQueueAddToRegistry+0xf8>
10004f52:	58a6      	ldr	r6, [r4, r2]
10004f54:	2e00      	cmp	r6, #0
10004f56:	d01b      	beq.n	10004f90 <vQueueAddToRegistry+0x100>
10004f58:	3501      	adds	r5, #1
10004f5a:	2b02      	cmp	r3, #2
10004f5c:	d0ab      	beq.n	10004eb6 <vQueueAddToRegistry+0x26>
10004f5e:	00ea      	lsls	r2, r5, #3
10004f60:	18a6      	adds	r6, r4, r2
10004f62:	6876      	ldr	r6, [r6, #4]
10004f64:	42b0      	cmp	r0, r6
10004f66:	d00f      	beq.n	10004f88 <vQueueAddToRegistry+0xf8>
10004f68:	58a6      	ldr	r6, [r4, r2]
10004f6a:	2e00      	cmp	r6, #0
10004f6c:	d010      	beq.n	10004f90 <vQueueAddToRegistry+0x100>
10004f6e:	2b01      	cmp	r3, #1
10004f70:	d0a1      	beq.n	10004eb6 <vQueueAddToRegistry+0x26>
10004f72:	6ce3      	ldr	r3, [r4, #76]	; 0x4c
10004f74:	4298      	cmp	r0, r3
10004f76:	d012      	beq.n	10004f9e <vQueueAddToRegistry+0x10e>
10004f78:	6ca3      	ldr	r3, [r4, #72]	; 0x48
10004f7a:	2b00      	cmp	r3, #0
10004f7c:	d19b      	bne.n	10004eb6 <vQueueAddToRegistry+0x26>
10004f7e:	2309      	movs	r3, #9
10004f80:	2248      	movs	r2, #72	; 0x48
10004f82:	18a6      	adds	r6, r4, r2
10004f84:	e792      	b.n	10004eac <vQueueAddToRegistry+0x1c>
10004f86:	00d2      	lsls	r2, r2, #3
10004f88:	18a6      	adds	r6, r4, r2
10004f8a:	6031      	str	r1, [r6, #0]
10004f8c:	6070      	str	r0, [r6, #4]
10004f8e:	e792      	b.n	10004eb6 <vQueueAddToRegistry+0x26>
10004f90:	002b      	movs	r3, r5
10004f92:	18a6      	adds	r6, r4, r2
10004f94:	e78a      	b.n	10004eac <vQueueAddToRegistry+0x1c>
10004f96:	0013      	movs	r3, r2
10004f98:	00d2      	lsls	r2, r2, #3
10004f9a:	18a6      	adds	r6, r4, r2
10004f9c:	e786      	b.n	10004eac <vQueueAddToRegistry+0x1c>
10004f9e:	2248      	movs	r2, #72	; 0x48
10004fa0:	18a6      	adds	r6, r4, r2
10004fa2:	e7f2      	b.n	10004f8a <vQueueAddToRegistry+0xfa>
10004fa4:	20000ab0 	.word	0x20000ab0

10004fa8 <pcQueueGetName>:
10004fa8:	4a1b      	ldr	r2, [pc, #108]	; (10005018 <pcQueueGetName+0x70>)
10004faa:	0003      	movs	r3, r0
10004fac:	6851      	ldr	r1, [r2, #4]
10004fae:	4288      	cmp	r0, r1
10004fb0:	d01c      	beq.n	10004fec <pcQueueGetName+0x44>
10004fb2:	68d1      	ldr	r1, [r2, #12]
10004fb4:	4288      	cmp	r0, r1
10004fb6:	d01d      	beq.n	10004ff4 <pcQueueGetName+0x4c>
10004fb8:	6951      	ldr	r1, [r2, #20]
10004fba:	4288      	cmp	r0, r1
10004fbc:	d01c      	beq.n	10004ff8 <pcQueueGetName+0x50>
10004fbe:	69d1      	ldr	r1, [r2, #28]
10004fc0:	4288      	cmp	r0, r1
10004fc2:	d01b      	beq.n	10004ffc <pcQueueGetName+0x54>
10004fc4:	6a51      	ldr	r1, [r2, #36]	; 0x24
10004fc6:	4288      	cmp	r0, r1
10004fc8:	d01a      	beq.n	10005000 <pcQueueGetName+0x58>
10004fca:	6ad1      	ldr	r1, [r2, #44]	; 0x2c
10004fcc:	4288      	cmp	r0, r1
10004fce:	d019      	beq.n	10005004 <pcQueueGetName+0x5c>
10004fd0:	6b51      	ldr	r1, [r2, #52]	; 0x34
10004fd2:	4288      	cmp	r0, r1
10004fd4:	d018      	beq.n	10005008 <pcQueueGetName+0x60>
10004fd6:	6bd1      	ldr	r1, [r2, #60]	; 0x3c
10004fd8:	4288      	cmp	r0, r1
10004fda:	d017      	beq.n	1000500c <pcQueueGetName+0x64>
10004fdc:	6c51      	ldr	r1, [r2, #68]	; 0x44
10004fde:	4288      	cmp	r0, r1
10004fe0:	d016      	beq.n	10005010 <pcQueueGetName+0x68>
10004fe2:	6cd1      	ldr	r1, [r2, #76]	; 0x4c
10004fe4:	2000      	movs	r0, #0
10004fe6:	4299      	cmp	r1, r3
10004fe8:	d014      	beq.n	10005014 <pcQueueGetName+0x6c>
10004fea:	4770      	bx	lr
10004fec:	2300      	movs	r3, #0
10004fee:	00db      	lsls	r3, r3, #3
10004ff0:	58d0      	ldr	r0, [r2, r3]
10004ff2:	e7fa      	b.n	10004fea <pcQueueGetName+0x42>
10004ff4:	2301      	movs	r3, #1
10004ff6:	e7fa      	b.n	10004fee <pcQueueGetName+0x46>
10004ff8:	2302      	movs	r3, #2
10004ffa:	e7f8      	b.n	10004fee <pcQueueGetName+0x46>
10004ffc:	2303      	movs	r3, #3
10004ffe:	e7f6      	b.n	10004fee <pcQueueGetName+0x46>
10005000:	2304      	movs	r3, #4
10005002:	e7f4      	b.n	10004fee <pcQueueGetName+0x46>
10005004:	2305      	movs	r3, #5
10005006:	e7f2      	b.n	10004fee <pcQueueGetName+0x46>
10005008:	2306      	movs	r3, #6
1000500a:	e7f0      	b.n	10004fee <pcQueueGetName+0x46>
1000500c:	2307      	movs	r3, #7
1000500e:	e7ee      	b.n	10004fee <pcQueueGetName+0x46>
10005010:	2308      	movs	r3, #8
10005012:	e7ec      	b.n	10004fee <pcQueueGetName+0x46>
10005014:	2309      	movs	r3, #9
10005016:	e7ea      	b.n	10004fee <pcQueueGetName+0x46>
10005018:	20000ab0 	.word	0x20000ab0

1000501c <vQueueUnregisterQueue>:
1000501c:	4b1c      	ldr	r3, [pc, #112]	; (10005090 <vQueueUnregisterQueue+0x74>)
1000501e:	685a      	ldr	r2, [r3, #4]
10005020:	4290      	cmp	r0, r2
10005022:	d01b      	beq.n	1000505c <vQueueUnregisterQueue+0x40>
10005024:	68da      	ldr	r2, [r3, #12]
10005026:	4290      	cmp	r0, r2
10005028:	d020      	beq.n	1000506c <vQueueUnregisterQueue+0x50>
1000502a:	695a      	ldr	r2, [r3, #20]
1000502c:	4290      	cmp	r0, r2
1000502e:	d01f      	beq.n	10005070 <vQueueUnregisterQueue+0x54>
10005030:	69da      	ldr	r2, [r3, #28]
10005032:	4290      	cmp	r0, r2
10005034:	d01e      	beq.n	10005074 <vQueueUnregisterQueue+0x58>
10005036:	6a5a      	ldr	r2, [r3, #36]	; 0x24
10005038:	4290      	cmp	r0, r2
1000503a:	d01d      	beq.n	10005078 <vQueueUnregisterQueue+0x5c>
1000503c:	6ada      	ldr	r2, [r3, #44]	; 0x2c
1000503e:	4290      	cmp	r0, r2
10005040:	d01c      	beq.n	1000507c <vQueueUnregisterQueue+0x60>
10005042:	6b5a      	ldr	r2, [r3, #52]	; 0x34
10005044:	4290      	cmp	r0, r2
10005046:	d01b      	beq.n	10005080 <vQueueUnregisterQueue+0x64>
10005048:	6bda      	ldr	r2, [r3, #60]	; 0x3c
1000504a:	4290      	cmp	r0, r2
1000504c:	d01a      	beq.n	10005084 <vQueueUnregisterQueue+0x68>
1000504e:	6c5a      	ldr	r2, [r3, #68]	; 0x44
10005050:	4290      	cmp	r0, r2
10005052:	d019      	beq.n	10005088 <vQueueUnregisterQueue+0x6c>
10005054:	6cda      	ldr	r2, [r3, #76]	; 0x4c
10005056:	4282      	cmp	r2, r0
10005058:	d018      	beq.n	1000508c <vQueueUnregisterQueue+0x70>
1000505a:	4770      	bx	lr
1000505c:	2200      	movs	r2, #0
1000505e:	2000      	movs	r0, #0
10005060:	2100      	movs	r1, #0
10005062:	00d2      	lsls	r2, r2, #3
10005064:	189b      	adds	r3, r3, r2
10005066:	6018      	str	r0, [r3, #0]
10005068:	6059      	str	r1, [r3, #4]
1000506a:	e7f6      	b.n	1000505a <vQueueUnregisterQueue+0x3e>
1000506c:	2201      	movs	r2, #1
1000506e:	e7f6      	b.n	1000505e <vQueueUnregisterQueue+0x42>
10005070:	2202      	movs	r2, #2
10005072:	e7f4      	b.n	1000505e <vQueueUnregisterQueue+0x42>
10005074:	2203      	movs	r2, #3
10005076:	e7f2      	b.n	1000505e <vQueueUnregisterQueue+0x42>
10005078:	2204      	movs	r2, #4
1000507a:	e7f0      	b.n	1000505e <vQueueUnregisterQueue+0x42>
1000507c:	2205      	movs	r2, #5
1000507e:	e7ee      	b.n	1000505e <vQueueUnregisterQueue+0x42>
10005080:	2206      	movs	r2, #6
10005082:	e7ec      	b.n	1000505e <vQueueUnregisterQueue+0x42>
10005084:	2207      	movs	r2, #7
10005086:	e7ea      	b.n	1000505e <vQueueUnregisterQueue+0x42>
10005088:	2208      	movs	r2, #8
1000508a:	e7e8      	b.n	1000505e <vQueueUnregisterQueue+0x42>
1000508c:	2209      	movs	r2, #9
1000508e:	e7e6      	b.n	1000505e <vQueueUnregisterQueue+0x42>
10005090:	20000ab0 	.word	0x20000ab0

10005094 <vQueueWaitForMessageRestricted>:
10005094:	b570      	push	{r4, r5, r6, lr}
10005096:	0005      	movs	r5, r0
10005098:	0016      	movs	r6, r2
1000509a:	000c      	movs	r4, r1
1000509c:	f7fe fe92 	bl	10003dc4 <vPortEnterCritical>
100050a0:	2244      	movs	r2, #68	; 0x44
100050a2:	5cab      	ldrb	r3, [r5, r2]
100050a4:	b25b      	sxtb	r3, r3
100050a6:	3301      	adds	r3, #1
100050a8:	d101      	bne.n	100050ae <vQueueWaitForMessageRestricted+0x1a>
100050aa:	2300      	movs	r3, #0
100050ac:	54ab      	strb	r3, [r5, r2]
100050ae:	2245      	movs	r2, #69	; 0x45
100050b0:	5cab      	ldrb	r3, [r5, r2]
100050b2:	b25b      	sxtb	r3, r3
100050b4:	3301      	adds	r3, #1
100050b6:	d101      	bne.n	100050bc <vQueueWaitForMessageRestricted+0x28>
100050b8:	2300      	movs	r3, #0
100050ba:	54ab      	strb	r3, [r5, r2]
100050bc:	f7fe fe8e 	bl	10003ddc <vPortExitCritical>
100050c0:	6bab      	ldr	r3, [r5, #56]	; 0x38
100050c2:	2b00      	cmp	r3, #0
100050c4:	d046      	beq.n	10005154 <vQueueWaitForMessageRestricted+0xc0>
100050c6:	f7fe fe7d 	bl	10003dc4 <vPortEnterCritical>
100050ca:	2345      	movs	r3, #69	; 0x45
100050cc:	5cec      	ldrb	r4, [r5, r3]
100050ce:	b264      	sxtb	r4, r4
100050d0:	2c00      	cmp	r4, #0
100050d2:	dd16      	ble.n	10005102 <vQueueWaitForMessageRestricted+0x6e>
100050d4:	002e      	movs	r6, r5
100050d6:	3624      	adds	r6, #36	; 0x24
100050d8:	e004      	b.n	100050e4 <vQueueWaitForMessageRestricted+0x50>
100050da:	3c01      	subs	r4, #1
100050dc:	b2e2      	uxtb	r2, r4
100050de:	b264      	sxtb	r4, r4
100050e0:	2a00      	cmp	r2, #0
100050e2:	d00e      	beq.n	10005102 <vQueueWaitForMessageRestricted+0x6e>
100050e4:	6a6b      	ldr	r3, [r5, #36]	; 0x24
100050e6:	2b00      	cmp	r3, #0
100050e8:	d00b      	beq.n	10005102 <vQueueWaitForMessageRestricted+0x6e>
100050ea:	0030      	movs	r0, r6
100050ec:	f7fe f800 	bl	100030f0 <xTaskRemoveFromEventList>
100050f0:	2800      	cmp	r0, #0
100050f2:	d0f2      	beq.n	100050da <vQueueWaitForMessageRestricted+0x46>
100050f4:	3c01      	subs	r4, #1
100050f6:	f7fe f8e7 	bl	100032c8 <vTaskMissedYield>
100050fa:	b2e2      	uxtb	r2, r4
100050fc:	b264      	sxtb	r4, r4
100050fe:	2a00      	cmp	r2, #0
10005100:	d1f0      	bne.n	100050e4 <vQueueWaitForMessageRestricted+0x50>
10005102:	2345      	movs	r3, #69	; 0x45
10005104:	22ff      	movs	r2, #255	; 0xff
10005106:	54ea      	strb	r2, [r5, r3]
10005108:	f7fe fe68 	bl	10003ddc <vPortExitCritical>
1000510c:	f7fe fe5a 	bl	10003dc4 <vPortEnterCritical>
10005110:	2344      	movs	r3, #68	; 0x44
10005112:	5cec      	ldrb	r4, [r5, r3]
10005114:	b264      	sxtb	r4, r4
10005116:	2c00      	cmp	r4, #0
10005118:	dd16      	ble.n	10005148 <vQueueWaitForMessageRestricted+0xb4>
1000511a:	002e      	movs	r6, r5
1000511c:	3610      	adds	r6, #16
1000511e:	e004      	b.n	1000512a <vQueueWaitForMessageRestricted+0x96>
10005120:	3c01      	subs	r4, #1
10005122:	b2e2      	uxtb	r2, r4
10005124:	b264      	sxtb	r4, r4
10005126:	2a00      	cmp	r2, #0
10005128:	d00e      	beq.n	10005148 <vQueueWaitForMessageRestricted+0xb4>
1000512a:	692b      	ldr	r3, [r5, #16]
1000512c:	2b00      	cmp	r3, #0
1000512e:	d00b      	beq.n	10005148 <vQueueWaitForMessageRestricted+0xb4>
10005130:	0030      	movs	r0, r6
10005132:	f7fd ffdd 	bl	100030f0 <xTaskRemoveFromEventList>
10005136:	2800      	cmp	r0, #0
10005138:	d0f2      	beq.n	10005120 <vQueueWaitForMessageRestricted+0x8c>
1000513a:	3c01      	subs	r4, #1
1000513c:	f7fe f8c4 	bl	100032c8 <vTaskMissedYield>
10005140:	b2e2      	uxtb	r2, r4
10005142:	b264      	sxtb	r4, r4
10005144:	2a00      	cmp	r2, #0
10005146:	d1f0      	bne.n	1000512a <vQueueWaitForMessageRestricted+0x96>
10005148:	2344      	movs	r3, #68	; 0x44
1000514a:	22ff      	movs	r2, #255	; 0xff
1000514c:	54ea      	strb	r2, [r5, r3]
1000514e:	f7fe fe45 	bl	10003ddc <vPortExitCritical>
10005152:	bd70      	pop	{r4, r5, r6, pc}
10005154:	0028      	movs	r0, r5
10005156:	0032      	movs	r2, r6
10005158:	0021      	movs	r1, r4
1000515a:	3024      	adds	r0, #36	; 0x24
1000515c:	f7fd ff7a 	bl	10003054 <vTaskPlaceOnEventListRestricted>
10005160:	e7b1      	b.n	100050c6 <vQueueWaitForMessageRestricted+0x32>
10005162:	46c0      	nop			; (mov r8, r8)

10005164 <malloc>:
10005164:	b510      	push	{r4, lr}
10005166:	4b03      	ldr	r3, [pc, #12]	; (10005174 <malloc+0x10>)
10005168:	0001      	movs	r1, r0
1000516a:	6818      	ldr	r0, [r3, #0]
1000516c:	f000 f80e 	bl	1000518c <_malloc_r>
10005170:	bd10      	pop	{r4, pc}
10005172:	46c0      	nop			; (mov r8, r8)
10005174:	20000250 	.word	0x20000250

10005178 <free>:
10005178:	b510      	push	{r4, lr}
1000517a:	4b03      	ldr	r3, [pc, #12]	; (10005188 <free+0x10>)
1000517c:	0001      	movs	r1, r0
1000517e:	6818      	ldr	r0, [r3, #0]
10005180:	f000 fb50 	bl	10005824 <_free_r>
10005184:	bd10      	pop	{r4, pc}
10005186:	46c0      	nop			; (mov r8, r8)
10005188:	20000250 	.word	0x20000250

1000518c <_malloc_r>:
1000518c:	b5f0      	push	{r4, r5, r6, r7, lr}
1000518e:	464e      	mov	r6, r9
10005190:	4645      	mov	r5, r8
10005192:	46de      	mov	lr, fp
10005194:	4657      	mov	r7, sl
10005196:	b5e0      	push	{r5, r6, r7, lr}
10005198:	000d      	movs	r5, r1
1000519a:	350b      	adds	r5, #11
1000519c:	0006      	movs	r6, r0
1000519e:	b083      	sub	sp, #12
100051a0:	2d16      	cmp	r5, #22
100051a2:	d822      	bhi.n	100051ea <_malloc_r+0x5e>
100051a4:	2910      	cmp	r1, #16
100051a6:	d900      	bls.n	100051aa <_malloc_r+0x1e>
100051a8:	e0b2      	b.n	10005310 <_malloc_r+0x184>
100051aa:	f000 faa9 	bl	10005700 <__malloc_lock>
100051ae:	2510      	movs	r5, #16
100051b0:	2318      	movs	r3, #24
100051b2:	2002      	movs	r0, #2
100051b4:	4fcc      	ldr	r7, [pc, #816]	; (100054e8 <_malloc_r+0x35c>)
100051b6:	18fb      	adds	r3, r7, r3
100051b8:	001a      	movs	r2, r3
100051ba:	685c      	ldr	r4, [r3, #4]
100051bc:	3a08      	subs	r2, #8
100051be:	4294      	cmp	r4, r2
100051c0:	d100      	bne.n	100051c4 <_malloc_r+0x38>
100051c2:	e0b5      	b.n	10005330 <_malloc_r+0x1a4>
100051c4:	2303      	movs	r3, #3
100051c6:	6862      	ldr	r2, [r4, #4]
100051c8:	439a      	bics	r2, r3
100051ca:	0013      	movs	r3, r2
100051cc:	68e2      	ldr	r2, [r4, #12]
100051ce:	68a1      	ldr	r1, [r4, #8]
100051d0:	60ca      	str	r2, [r1, #12]
100051d2:	6091      	str	r1, [r2, #8]
100051d4:	2201      	movs	r2, #1
100051d6:	18e3      	adds	r3, r4, r3
100051d8:	6859      	ldr	r1, [r3, #4]
100051da:	0030      	movs	r0, r6
100051dc:	430a      	orrs	r2, r1
100051de:	605a      	str	r2, [r3, #4]
100051e0:	f000 fa90 	bl	10005704 <__malloc_unlock>
100051e4:	0020      	movs	r0, r4
100051e6:	3008      	adds	r0, #8
100051e8:	e095      	b.n	10005316 <_malloc_r+0x18a>
100051ea:	2307      	movs	r3, #7
100051ec:	439d      	bics	r5, r3
100051ee:	d500      	bpl.n	100051f2 <_malloc_r+0x66>
100051f0:	e08e      	b.n	10005310 <_malloc_r+0x184>
100051f2:	42a9      	cmp	r1, r5
100051f4:	d900      	bls.n	100051f8 <_malloc_r+0x6c>
100051f6:	e08b      	b.n	10005310 <_malloc_r+0x184>
100051f8:	f000 fa82 	bl	10005700 <__malloc_lock>
100051fc:	23fc      	movs	r3, #252	; 0xfc
100051fe:	005b      	lsls	r3, r3, #1
10005200:	429d      	cmp	r5, r3
10005202:	d200      	bcs.n	10005206 <_malloc_r+0x7a>
10005204:	e1a1      	b.n	1000554a <_malloc_r+0x3be>
10005206:	0a68      	lsrs	r0, r5, #9
10005208:	d100      	bne.n	1000520c <_malloc_r+0x80>
1000520a:	e08b      	b.n	10005324 <_malloc_r+0x198>
1000520c:	2804      	cmp	r0, #4
1000520e:	d900      	bls.n	10005212 <_malloc_r+0x86>
10005210:	e174      	b.n	100054fc <_malloc_r+0x370>
10005212:	2338      	movs	r3, #56	; 0x38
10005214:	4698      	mov	r8, r3
10005216:	09a8      	lsrs	r0, r5, #6
10005218:	4480      	add	r8, r0
1000521a:	3039      	adds	r0, #57	; 0x39
1000521c:	00c1      	lsls	r1, r0, #3
1000521e:	4fb2      	ldr	r7, [pc, #712]	; (100054e8 <_malloc_r+0x35c>)
10005220:	1879      	adds	r1, r7, r1
10005222:	684c      	ldr	r4, [r1, #4]
10005224:	3908      	subs	r1, #8
10005226:	42a1      	cmp	r1, r4
10005228:	d00e      	beq.n	10005248 <_malloc_r+0xbc>
1000522a:	2303      	movs	r3, #3
1000522c:	469c      	mov	ip, r3
1000522e:	e004      	b.n	1000523a <_malloc_r+0xae>
10005230:	2a00      	cmp	r2, #0
10005232:	dacb      	bge.n	100051cc <_malloc_r+0x40>
10005234:	68e4      	ldr	r4, [r4, #12]
10005236:	42a1      	cmp	r1, r4
10005238:	d006      	beq.n	10005248 <_malloc_r+0xbc>
1000523a:	4662      	mov	r2, ip
1000523c:	6863      	ldr	r3, [r4, #4]
1000523e:	4393      	bics	r3, r2
10005240:	1b5a      	subs	r2, r3, r5
10005242:	2a0f      	cmp	r2, #15
10005244:	ddf4      	ble.n	10005230 <_malloc_r+0xa4>
10005246:	4640      	mov	r0, r8
10005248:	003a      	movs	r2, r7
1000524a:	693c      	ldr	r4, [r7, #16]
1000524c:	3208      	adds	r2, #8
1000524e:	4294      	cmp	r4, r2
10005250:	d100      	bne.n	10005254 <_malloc_r+0xc8>
10005252:	e078      	b.n	10005346 <_malloc_r+0x1ba>
10005254:	2303      	movs	r3, #3
10005256:	6861      	ldr	r1, [r4, #4]
10005258:	4399      	bics	r1, r3
1000525a:	4689      	mov	r9, r1
1000525c:	000b      	movs	r3, r1
1000525e:	1b49      	subs	r1, r1, r5
10005260:	290f      	cmp	r1, #15
10005262:	dd00      	ble.n	10005266 <_malloc_r+0xda>
10005264:	e175      	b.n	10005552 <_malloc_r+0x3c6>
10005266:	617a      	str	r2, [r7, #20]
10005268:	613a      	str	r2, [r7, #16]
1000526a:	2900      	cmp	r1, #0
1000526c:	dab2      	bge.n	100051d4 <_malloc_r+0x48>
1000526e:	2280      	movs	r2, #128	; 0x80
10005270:	0092      	lsls	r2, r2, #2
10005272:	4591      	cmp	r9, r2
10005274:	d300      	bcc.n	10005278 <_malloc_r+0xec>
10005276:	e110      	b.n	1000549a <_malloc_r+0x30e>
10005278:	0959      	lsrs	r1, r3, #5
1000527a:	08da      	lsrs	r2, r3, #3
1000527c:	2301      	movs	r3, #1
1000527e:	408b      	lsls	r3, r1
10005280:	00d2      	lsls	r2, r2, #3
10005282:	6879      	ldr	r1, [r7, #4]
10005284:	19d2      	adds	r2, r2, r7
10005286:	430b      	orrs	r3, r1
10005288:	6891      	ldr	r1, [r2, #8]
1000528a:	607b      	str	r3, [r7, #4]
1000528c:	60e2      	str	r2, [r4, #12]
1000528e:	60a1      	str	r1, [r4, #8]
10005290:	6094      	str	r4, [r2, #8]
10005292:	60cc      	str	r4, [r1, #12]
10005294:	2101      	movs	r1, #1
10005296:	1082      	asrs	r2, r0, #2
10005298:	4091      	lsls	r1, r2
1000529a:	4299      	cmp	r1, r3
1000529c:	d859      	bhi.n	10005352 <_malloc_r+0x1c6>
1000529e:	420b      	tst	r3, r1
100052a0:	d105      	bne.n	100052ae <_malloc_r+0x122>
100052a2:	2203      	movs	r2, #3
100052a4:	4390      	bics	r0, r2
100052a6:	0049      	lsls	r1, r1, #1
100052a8:	3004      	adds	r0, #4
100052aa:	420b      	tst	r3, r1
100052ac:	d0fb      	beq.n	100052a6 <_malloc_r+0x11a>
100052ae:	2303      	movs	r3, #3
100052b0:	4698      	mov	r8, r3
100052b2:	00c3      	lsls	r3, r0, #3
100052b4:	4699      	mov	r9, r3
100052b6:	44b9      	add	r9, r7
100052b8:	46cc      	mov	ip, r9
100052ba:	4682      	mov	sl, r0
100052bc:	4663      	mov	r3, ip
100052be:	68dc      	ldr	r4, [r3, #12]
100052c0:	45a4      	cmp	ip, r4
100052c2:	d107      	bne.n	100052d4 <_malloc_r+0x148>
100052c4:	e126      	b.n	10005514 <_malloc_r+0x388>
100052c6:	2a00      	cmp	r2, #0
100052c8:	db00      	blt.n	100052cc <_malloc_r+0x140>
100052ca:	e12f      	b.n	1000552c <_malloc_r+0x3a0>
100052cc:	68e4      	ldr	r4, [r4, #12]
100052ce:	45a4      	cmp	ip, r4
100052d0:	d100      	bne.n	100052d4 <_malloc_r+0x148>
100052d2:	e11f      	b.n	10005514 <_malloc_r+0x388>
100052d4:	4642      	mov	r2, r8
100052d6:	6863      	ldr	r3, [r4, #4]
100052d8:	4393      	bics	r3, r2
100052da:	1b5a      	subs	r2, r3, r5
100052dc:	2a0f      	cmp	r2, #15
100052de:	ddf2      	ble.n	100052c6 <_malloc_r+0x13a>
100052e0:	2001      	movs	r0, #1
100052e2:	4680      	mov	r8, r0
100052e4:	1961      	adds	r1, r4, r5
100052e6:	4305      	orrs	r5, r0
100052e8:	6065      	str	r5, [r4, #4]
100052ea:	68a0      	ldr	r0, [r4, #8]
100052ec:	68e5      	ldr	r5, [r4, #12]
100052ee:	3708      	adds	r7, #8
100052f0:	60c5      	str	r5, [r0, #12]
100052f2:	60a8      	str	r0, [r5, #8]
100052f4:	4640      	mov	r0, r8
100052f6:	4310      	orrs	r0, r2
100052f8:	60f9      	str	r1, [r7, #12]
100052fa:	60b9      	str	r1, [r7, #8]
100052fc:	6048      	str	r0, [r1, #4]
100052fe:	60cf      	str	r7, [r1, #12]
10005300:	0030      	movs	r0, r6
10005302:	608f      	str	r7, [r1, #8]
10005304:	50e2      	str	r2, [r4, r3]
10005306:	f000 f9fd 	bl	10005704 <__malloc_unlock>
1000530a:	0020      	movs	r0, r4
1000530c:	3008      	adds	r0, #8
1000530e:	e002      	b.n	10005316 <_malloc_r+0x18a>
10005310:	230c      	movs	r3, #12
10005312:	2000      	movs	r0, #0
10005314:	6033      	str	r3, [r6, #0]
10005316:	b003      	add	sp, #12
10005318:	bcf0      	pop	{r4, r5, r6, r7}
1000531a:	46bb      	mov	fp, r7
1000531c:	46b2      	mov	sl, r6
1000531e:	46a9      	mov	r9, r5
10005320:	46a0      	mov	r8, r4
10005322:	bdf0      	pop	{r4, r5, r6, r7, pc}
10005324:	2180      	movs	r1, #128	; 0x80
10005326:	233f      	movs	r3, #63	; 0x3f
10005328:	2040      	movs	r0, #64	; 0x40
1000532a:	4698      	mov	r8, r3
1000532c:	0089      	lsls	r1, r1, #2
1000532e:	e776      	b.n	1000521e <_malloc_r+0x92>
10005330:	68dc      	ldr	r4, [r3, #12]
10005332:	3002      	adds	r0, #2
10005334:	42a3      	cmp	r3, r4
10005336:	d000      	beq.n	1000533a <_malloc_r+0x1ae>
10005338:	e744      	b.n	100051c4 <_malloc_r+0x38>
1000533a:	003a      	movs	r2, r7
1000533c:	693c      	ldr	r4, [r7, #16]
1000533e:	3208      	adds	r2, #8
10005340:	4294      	cmp	r4, r2
10005342:	d000      	beq.n	10005346 <_malloc_r+0x1ba>
10005344:	e786      	b.n	10005254 <_malloc_r+0xc8>
10005346:	2101      	movs	r1, #1
10005348:	687b      	ldr	r3, [r7, #4]
1000534a:	1082      	asrs	r2, r0, #2
1000534c:	4091      	lsls	r1, r2
1000534e:	4299      	cmp	r1, r3
10005350:	d9a5      	bls.n	1000529e <_malloc_r+0x112>
10005352:	2303      	movs	r3, #3
10005354:	68bc      	ldr	r4, [r7, #8]
10005356:	6862      	ldr	r2, [r4, #4]
10005358:	439a      	bics	r2, r3
1000535a:	4691      	mov	r9, r2
1000535c:	4295      	cmp	r5, r2
1000535e:	d803      	bhi.n	10005368 <_malloc_r+0x1dc>
10005360:	1b53      	subs	r3, r2, r5
10005362:	2b0f      	cmp	r3, #15
10005364:	dd00      	ble.n	10005368 <_malloc_r+0x1dc>
10005366:	e08a      	b.n	1000547e <_malloc_r+0x2f2>
10005368:	0023      	movs	r3, r4
1000536a:	444b      	add	r3, r9
1000536c:	4a5f      	ldr	r2, [pc, #380]	; (100054ec <_malloc_r+0x360>)
1000536e:	9301      	str	r3, [sp, #4]
10005370:	4b5f      	ldr	r3, [pc, #380]	; (100054f0 <_malloc_r+0x364>)
10005372:	4693      	mov	fp, r2
10005374:	469a      	mov	sl, r3
10005376:	6812      	ldr	r2, [r2, #0]
10005378:	681b      	ldr	r3, [r3, #0]
1000537a:	18eb      	adds	r3, r5, r3
1000537c:	3201      	adds	r2, #1
1000537e:	d100      	bne.n	10005382 <_malloc_r+0x1f6>
10005380:	e136      	b.n	100055f0 <_malloc_r+0x464>
10005382:	4a5c      	ldr	r2, [pc, #368]	; (100054f4 <_malloc_r+0x368>)
10005384:	4694      	mov	ip, r2
10005386:	4463      	add	r3, ip
10005388:	0b1b      	lsrs	r3, r3, #12
1000538a:	031b      	lsls	r3, r3, #12
1000538c:	9300      	str	r3, [sp, #0]
1000538e:	0030      	movs	r0, r6
10005390:	9900      	ldr	r1, [sp, #0]
10005392:	f000 f9b9 	bl	10005708 <_sbrk_r>
10005396:	0003      	movs	r3, r0
10005398:	4680      	mov	r8, r0
1000539a:	3301      	adds	r3, #1
1000539c:	d100      	bne.n	100053a0 <_malloc_r+0x214>
1000539e:	e0f3      	b.n	10005588 <_malloc_r+0x3fc>
100053a0:	9b01      	ldr	r3, [sp, #4]
100053a2:	4283      	cmp	r3, r0
100053a4:	d900      	bls.n	100053a8 <_malloc_r+0x21c>
100053a6:	e0ed      	b.n	10005584 <_malloc_r+0x3f8>
100053a8:	4652      	mov	r2, sl
100053aa:	9800      	ldr	r0, [sp, #0]
100053ac:	6852      	ldr	r2, [r2, #4]
100053ae:	0003      	movs	r3, r0
100053b0:	4694      	mov	ip, r2
100053b2:	4651      	mov	r1, sl
100053b4:	4463      	add	r3, ip
100053b6:	604b      	str	r3, [r1, #4]
100053b8:	9901      	ldr	r1, [sp, #4]
100053ba:	001a      	movs	r2, r3
100053bc:	4541      	cmp	r1, r8
100053be:	d100      	bne.n	100053c2 <_malloc_r+0x236>
100053c0:	e14b      	b.n	1000565a <_malloc_r+0x4ce>
100053c2:	465b      	mov	r3, fp
100053c4:	681b      	ldr	r3, [r3, #0]
100053c6:	3301      	adds	r3, #1
100053c8:	d100      	bne.n	100053cc <_malloc_r+0x240>
100053ca:	e150      	b.n	1000566e <_malloc_r+0x4e2>
100053cc:	4643      	mov	r3, r8
100053ce:	9901      	ldr	r1, [sp, #4]
100053d0:	1a5b      	subs	r3, r3, r1
100053d2:	189a      	adds	r2, r3, r2
100053d4:	4653      	mov	r3, sl
100053d6:	605a      	str	r2, [r3, #4]
100053d8:	2307      	movs	r3, #7
100053da:	4642      	mov	r2, r8
100053dc:	4641      	mov	r1, r8
100053de:	401a      	ands	r2, r3
100053e0:	9201      	str	r2, [sp, #4]
100053e2:	4219      	tst	r1, r3
100053e4:	d100      	bne.n	100053e8 <_malloc_r+0x25c>
100053e6:	e10d      	b.n	10005604 <_malloc_r+0x478>
100053e8:	2308      	movs	r3, #8
100053ea:	4698      	mov	r8, r3
100053ec:	1a88      	subs	r0, r1, r2
100053ee:	4b42      	ldr	r3, [pc, #264]	; (100054f8 <_malloc_r+0x36c>)
100053f0:	9900      	ldr	r1, [sp, #0]
100053f2:	4480      	add	r8, r0
100053f4:	4441      	add	r1, r8
100053f6:	1a9b      	subs	r3, r3, r2
100053f8:	1a5b      	subs	r3, r3, r1
100053fa:	051b      	lsls	r3, r3, #20
100053fc:	0d1b      	lsrs	r3, r3, #20
100053fe:	9100      	str	r1, [sp, #0]
10005400:	0030      	movs	r0, r6
10005402:	0019      	movs	r1, r3
10005404:	469b      	mov	fp, r3
10005406:	f000 f97f 	bl	10005708 <_sbrk_r>
1000540a:	1c43      	adds	r3, r0, #1
1000540c:	d100      	bne.n	10005410 <_malloc_r+0x284>
1000540e:	e14a      	b.n	100056a6 <_malloc_r+0x51a>
10005410:	4643      	mov	r3, r8
10005412:	1ac0      	subs	r0, r0, r3
10005414:	0003      	movs	r3, r0
10005416:	445b      	add	r3, fp
10005418:	9300      	str	r3, [sp, #0]
1000541a:	4653      	mov	r3, sl
1000541c:	4652      	mov	r2, sl
1000541e:	685b      	ldr	r3, [r3, #4]
10005420:	2101      	movs	r1, #1
10005422:	445b      	add	r3, fp
10005424:	6053      	str	r3, [r2, #4]
10005426:	4642      	mov	r2, r8
10005428:	4640      	mov	r0, r8
1000542a:	60ba      	str	r2, [r7, #8]
1000542c:	9a00      	ldr	r2, [sp, #0]
1000542e:	430a      	orrs	r2, r1
10005430:	6042      	str	r2, [r0, #4]
10005432:	42bc      	cmp	r4, r7
10005434:	d100      	bne.n	10005438 <_malloc_r+0x2ac>
10005436:	e11e      	b.n	10005676 <_malloc_r+0x4ea>
10005438:	464a      	mov	r2, r9
1000543a:	2a0f      	cmp	r2, #15
1000543c:	d800      	bhi.n	10005440 <_malloc_r+0x2b4>
1000543e:	e11c      	b.n	1000567a <_malloc_r+0x4ee>
10005440:	2007      	movs	r0, #7
10005442:	3a0c      	subs	r2, #12
10005444:	4382      	bics	r2, r0
10005446:	6860      	ldr	r0, [r4, #4]
10005448:	4001      	ands	r1, r0
1000544a:	2005      	movs	r0, #5
1000544c:	4311      	orrs	r1, r2
1000544e:	6061      	str	r1, [r4, #4]
10005450:	18a1      	adds	r1, r4, r2
10005452:	6048      	str	r0, [r1, #4]
10005454:	6088      	str	r0, [r1, #8]
10005456:	2a0f      	cmp	r2, #15
10005458:	d900      	bls.n	1000545c <_malloc_r+0x2d0>
1000545a:	e12f      	b.n	100056bc <_malloc_r+0x530>
1000545c:	4642      	mov	r2, r8
1000545e:	4644      	mov	r4, r8
10005460:	6852      	ldr	r2, [r2, #4]
10005462:	4651      	mov	r1, sl
10005464:	6ac9      	ldr	r1, [r1, #44]	; 0x2c
10005466:	4299      	cmp	r1, r3
10005468:	d201      	bcs.n	1000546e <_malloc_r+0x2e2>
1000546a:	4651      	mov	r1, sl
1000546c:	62cb      	str	r3, [r1, #44]	; 0x2c
1000546e:	4651      	mov	r1, sl
10005470:	6b09      	ldr	r1, [r1, #48]	; 0x30
10005472:	4299      	cmp	r1, r3
10005474:	d300      	bcc.n	10005478 <_malloc_r+0x2ec>
10005476:	e089      	b.n	1000558c <_malloc_r+0x400>
10005478:	4651      	mov	r1, sl
1000547a:	630b      	str	r3, [r1, #48]	; 0x30
1000547c:	e086      	b.n	1000558c <_malloc_r+0x400>
1000547e:	2201      	movs	r2, #1
10005480:	0029      	movs	r1, r5
10005482:	4313      	orrs	r3, r2
10005484:	4311      	orrs	r1, r2
10005486:	1965      	adds	r5, r4, r5
10005488:	6061      	str	r1, [r4, #4]
1000548a:	0030      	movs	r0, r6
1000548c:	60bd      	str	r5, [r7, #8]
1000548e:	606b      	str	r3, [r5, #4]
10005490:	f000 f938 	bl	10005704 <__malloc_unlock>
10005494:	0020      	movs	r0, r4
10005496:	3008      	adds	r0, #8
10005498:	e73d      	b.n	10005316 <_malloc_r+0x18a>
1000549a:	0a5a      	lsrs	r2, r3, #9
1000549c:	2a04      	cmp	r2, #4
1000549e:	d96b      	bls.n	10005578 <_malloc_r+0x3ec>
100054a0:	2a14      	cmp	r2, #20
100054a2:	d900      	bls.n	100054a6 <_malloc_r+0x31a>
100054a4:	e0be      	b.n	10005624 <_malloc_r+0x498>
100054a6:	0011      	movs	r1, r2
100054a8:	325c      	adds	r2, #92	; 0x5c
100054aa:	315b      	adds	r1, #91	; 0x5b
100054ac:	00d2      	lsls	r2, r2, #3
100054ae:	2308      	movs	r3, #8
100054b0:	425b      	negs	r3, r3
100054b2:	469c      	mov	ip, r3
100054b4:	18ba      	adds	r2, r7, r2
100054b6:	4494      	add	ip, r2
100054b8:	4663      	mov	r3, ip
100054ba:	689a      	ldr	r2, [r3, #8]
100054bc:	2303      	movs	r3, #3
100054be:	4698      	mov	r8, r3
100054c0:	4594      	cmp	ip, r2
100054c2:	d100      	bne.n	100054c6 <_malloc_r+0x33a>
100054c4:	e097      	b.n	100055f6 <_malloc_r+0x46a>
100054c6:	4643      	mov	r3, r8
100054c8:	6851      	ldr	r1, [r2, #4]
100054ca:	4399      	bics	r1, r3
100054cc:	4549      	cmp	r1, r9
100054ce:	d902      	bls.n	100054d6 <_malloc_r+0x34a>
100054d0:	6892      	ldr	r2, [r2, #8]
100054d2:	4594      	cmp	ip, r2
100054d4:	d1f7      	bne.n	100054c6 <_malloc_r+0x33a>
100054d6:	68d3      	ldr	r3, [r2, #12]
100054d8:	469c      	mov	ip, r3
100054da:	687b      	ldr	r3, [r7, #4]
100054dc:	4661      	mov	r1, ip
100054de:	60a2      	str	r2, [r4, #8]
100054e0:	60e1      	str	r1, [r4, #12]
100054e2:	608c      	str	r4, [r1, #8]
100054e4:	60d4      	str	r4, [r2, #12]
100054e6:	e6d5      	b.n	10005294 <_malloc_r+0x108>
100054e8:	20000688 	.word	0x20000688
100054ec:	20000680 	.word	0x20000680
100054f0:	20000f5c 	.word	0x20000f5c
100054f4:	0000100f 	.word	0x0000100f
100054f8:	00001008 	.word	0x00001008
100054fc:	2814      	cmp	r0, #20
100054fe:	d952      	bls.n	100055a6 <_malloc_r+0x41a>
10005500:	2854      	cmp	r0, #84	; 0x54
10005502:	d900      	bls.n	10005506 <_malloc_r+0x37a>
10005504:	e096      	b.n	10005634 <_malloc_r+0x4a8>
10005506:	236e      	movs	r3, #110	; 0x6e
10005508:	4698      	mov	r8, r3
1000550a:	0b28      	lsrs	r0, r5, #12
1000550c:	4480      	add	r8, r0
1000550e:	306f      	adds	r0, #111	; 0x6f
10005510:	00c1      	lsls	r1, r0, #3
10005512:	e684      	b.n	1000521e <_malloc_r+0x92>
10005514:	2308      	movs	r3, #8
10005516:	469b      	mov	fp, r3
10005518:	3b07      	subs	r3, #7
1000551a:	44dc      	add	ip, fp
1000551c:	469b      	mov	fp, r3
1000551e:	44da      	add	sl, fp
10005520:	4643      	mov	r3, r8
10005522:	4652      	mov	r2, sl
10005524:	4213      	tst	r3, r2
10005526:	d000      	beq.n	1000552a <_malloc_r+0x39e>
10005528:	e6c8      	b.n	100052bc <_malloc_r+0x130>
1000552a:	e04c      	b.n	100055c6 <_malloc_r+0x43a>
1000552c:	2201      	movs	r2, #1
1000552e:	18e3      	adds	r3, r4, r3
10005530:	6859      	ldr	r1, [r3, #4]
10005532:	0030      	movs	r0, r6
10005534:	430a      	orrs	r2, r1
10005536:	605a      	str	r2, [r3, #4]
10005538:	68e3      	ldr	r3, [r4, #12]
1000553a:	68a2      	ldr	r2, [r4, #8]
1000553c:	60d3      	str	r3, [r2, #12]
1000553e:	609a      	str	r2, [r3, #8]
10005540:	f000 f8e0 	bl	10005704 <__malloc_unlock>
10005544:	0020      	movs	r0, r4
10005546:	3008      	adds	r0, #8
10005548:	e6e5      	b.n	10005316 <_malloc_r+0x18a>
1000554a:	002b      	movs	r3, r5
1000554c:	08e8      	lsrs	r0, r5, #3
1000554e:	3308      	adds	r3, #8
10005550:	e630      	b.n	100051b4 <_malloc_r+0x28>
10005552:	2301      	movs	r3, #1
10005554:	1960      	adds	r0, r4, r5
10005556:	431d      	orrs	r5, r3
10005558:	6065      	str	r5, [r4, #4]
1000555a:	6178      	str	r0, [r7, #20]
1000555c:	6138      	str	r0, [r7, #16]
1000555e:	60c2      	str	r2, [r0, #12]
10005560:	6082      	str	r2, [r0, #8]
10005562:	001a      	movs	r2, r3
10005564:	464b      	mov	r3, r9
10005566:	430a      	orrs	r2, r1
10005568:	6042      	str	r2, [r0, #4]
1000556a:	0030      	movs	r0, r6
1000556c:	50e1      	str	r1, [r4, r3]
1000556e:	f000 f8c9 	bl	10005704 <__malloc_unlock>
10005572:	0020      	movs	r0, r4
10005574:	3008      	adds	r0, #8
10005576:	e6ce      	b.n	10005316 <_malloc_r+0x18a>
10005578:	099a      	lsrs	r2, r3, #6
1000557a:	0011      	movs	r1, r2
1000557c:	3239      	adds	r2, #57	; 0x39
1000557e:	3138      	adds	r1, #56	; 0x38
10005580:	00d2      	lsls	r2, r2, #3
10005582:	e794      	b.n	100054ae <_malloc_r+0x322>
10005584:	42bc      	cmp	r4, r7
10005586:	d060      	beq.n	1000564a <_malloc_r+0x4be>
10005588:	68bc      	ldr	r4, [r7, #8]
1000558a:	6862      	ldr	r2, [r4, #4]
1000558c:	2303      	movs	r3, #3
1000558e:	439a      	bics	r2, r3
10005590:	1b53      	subs	r3, r2, r5
10005592:	4295      	cmp	r5, r2
10005594:	d802      	bhi.n	1000559c <_malloc_r+0x410>
10005596:	2b0f      	cmp	r3, #15
10005598:	dd00      	ble.n	1000559c <_malloc_r+0x410>
1000559a:	e770      	b.n	1000547e <_malloc_r+0x2f2>
1000559c:	0030      	movs	r0, r6
1000559e:	f000 f8b1 	bl	10005704 <__malloc_unlock>
100055a2:	2000      	movs	r0, #0
100055a4:	e6b7      	b.n	10005316 <_malloc_r+0x18a>
100055a6:	235b      	movs	r3, #91	; 0x5b
100055a8:	4698      	mov	r8, r3
100055aa:	4480      	add	r8, r0
100055ac:	305c      	adds	r0, #92	; 0x5c
100055ae:	00c1      	lsls	r1, r0, #3
100055b0:	e635      	b.n	1000521e <_malloc_r+0x92>
100055b2:	2308      	movs	r3, #8
100055b4:	425b      	negs	r3, r3
100055b6:	469c      	mov	ip, r3
100055b8:	44e1      	add	r9, ip
100055ba:	464b      	mov	r3, r9
100055bc:	689b      	ldr	r3, [r3, #8]
100055be:	3801      	subs	r0, #1
100055c0:	454b      	cmp	r3, r9
100055c2:	d000      	beq.n	100055c6 <_malloc_r+0x43a>
100055c4:	e097      	b.n	100056f6 <_malloc_r+0x56a>
100055c6:	4643      	mov	r3, r8
100055c8:	4203      	tst	r3, r0
100055ca:	d1f2      	bne.n	100055b2 <_malloc_r+0x426>
100055cc:	687b      	ldr	r3, [r7, #4]
100055ce:	438b      	bics	r3, r1
100055d0:	607b      	str	r3, [r7, #4]
100055d2:	0049      	lsls	r1, r1, #1
100055d4:	4299      	cmp	r1, r3
100055d6:	d900      	bls.n	100055da <_malloc_r+0x44e>
100055d8:	e6bb      	b.n	10005352 <_malloc_r+0x1c6>
100055da:	2900      	cmp	r1, #0
100055dc:	d104      	bne.n	100055e8 <_malloc_r+0x45c>
100055de:	e6b8      	b.n	10005352 <_malloc_r+0x1c6>
100055e0:	2204      	movs	r2, #4
100055e2:	4694      	mov	ip, r2
100055e4:	0049      	lsls	r1, r1, #1
100055e6:	44e2      	add	sl, ip
100055e8:	420b      	tst	r3, r1
100055ea:	d0f9      	beq.n	100055e0 <_malloc_r+0x454>
100055ec:	4650      	mov	r0, sl
100055ee:	e660      	b.n	100052b2 <_malloc_r+0x126>
100055f0:	3310      	adds	r3, #16
100055f2:	9300      	str	r3, [sp, #0]
100055f4:	e6cb      	b.n	1000538e <_malloc_r+0x202>
100055f6:	1089      	asrs	r1, r1, #2
100055f8:	3b02      	subs	r3, #2
100055fa:	408b      	lsls	r3, r1
100055fc:	6879      	ldr	r1, [r7, #4]
100055fe:	430b      	orrs	r3, r1
10005600:	607b      	str	r3, [r7, #4]
10005602:	e76b      	b.n	100054dc <_malloc_r+0x350>
10005604:	9b00      	ldr	r3, [sp, #0]
10005606:	0030      	movs	r0, r6
10005608:	4443      	add	r3, r8
1000560a:	425b      	negs	r3, r3
1000560c:	051b      	lsls	r3, r3, #20
1000560e:	0d1b      	lsrs	r3, r3, #20
10005610:	0019      	movs	r1, r3
10005612:	469b      	mov	fp, r3
10005614:	f000 f878 	bl	10005708 <_sbrk_r>
10005618:	1c43      	adds	r3, r0, #1
1000561a:	d000      	beq.n	1000561e <_malloc_r+0x492>
1000561c:	e6f8      	b.n	10005410 <_malloc_r+0x284>
1000561e:	2300      	movs	r3, #0
10005620:	469b      	mov	fp, r3
10005622:	e6fa      	b.n	1000541a <_malloc_r+0x28e>
10005624:	2a54      	cmp	r2, #84	; 0x54
10005626:	d82a      	bhi.n	1000567e <_malloc_r+0x4f2>
10005628:	0b1a      	lsrs	r2, r3, #12
1000562a:	0011      	movs	r1, r2
1000562c:	326f      	adds	r2, #111	; 0x6f
1000562e:	316e      	adds	r1, #110	; 0x6e
10005630:	00d2      	lsls	r2, r2, #3
10005632:	e73c      	b.n	100054ae <_malloc_r+0x322>
10005634:	23aa      	movs	r3, #170	; 0xaa
10005636:	005b      	lsls	r3, r3, #1
10005638:	4298      	cmp	r0, r3
1000563a:	d82a      	bhi.n	10005692 <_malloc_r+0x506>
1000563c:	3bdd      	subs	r3, #221	; 0xdd
1000563e:	4698      	mov	r8, r3
10005640:	0be8      	lsrs	r0, r5, #15
10005642:	4480      	add	r8, r0
10005644:	3078      	adds	r0, #120	; 0x78
10005646:	00c1      	lsls	r1, r0, #3
10005648:	e5e9      	b.n	1000521e <_malloc_r+0x92>
1000564a:	4653      	mov	r3, sl
1000564c:	685b      	ldr	r3, [r3, #4]
1000564e:	9a00      	ldr	r2, [sp, #0]
10005650:	469c      	mov	ip, r3
10005652:	4653      	mov	r3, sl
10005654:	4462      	add	r2, ip
10005656:	605a      	str	r2, [r3, #4]
10005658:	e6b3      	b.n	100053c2 <_malloc_r+0x236>
1000565a:	0509      	lsls	r1, r1, #20
1000565c:	d000      	beq.n	10005660 <_malloc_r+0x4d4>
1000565e:	e6b0      	b.n	100053c2 <_malloc_r+0x236>
10005660:	0002      	movs	r2, r0
10005662:	68bc      	ldr	r4, [r7, #8]
10005664:	444a      	add	r2, r9
10005666:	3101      	adds	r1, #1
10005668:	430a      	orrs	r2, r1
1000566a:	6062      	str	r2, [r4, #4]
1000566c:	e6f9      	b.n	10005462 <_malloc_r+0x2d6>
1000566e:	465b      	mov	r3, fp
10005670:	4642      	mov	r2, r8
10005672:	601a      	str	r2, [r3, #0]
10005674:	e6b0      	b.n	100053d8 <_malloc_r+0x24c>
10005676:	4644      	mov	r4, r8
10005678:	e6f3      	b.n	10005462 <_malloc_r+0x2d6>
1000567a:	6041      	str	r1, [r0, #4]
1000567c:	e78e      	b.n	1000559c <_malloc_r+0x410>
1000567e:	21aa      	movs	r1, #170	; 0xaa
10005680:	0049      	lsls	r1, r1, #1
10005682:	428a      	cmp	r2, r1
10005684:	d824      	bhi.n	100056d0 <_malloc_r+0x544>
10005686:	0bda      	lsrs	r2, r3, #15
10005688:	0011      	movs	r1, r2
1000568a:	3278      	adds	r2, #120	; 0x78
1000568c:	3177      	adds	r1, #119	; 0x77
1000568e:	00d2      	lsls	r2, r2, #3
10005690:	e70d      	b.n	100054ae <_malloc_r+0x322>
10005692:	4b1a      	ldr	r3, [pc, #104]	; (100056fc <_malloc_r+0x570>)
10005694:	4298      	cmp	r0, r3
10005696:	d824      	bhi.n	100056e2 <_malloc_r+0x556>
10005698:	237c      	movs	r3, #124	; 0x7c
1000569a:	4698      	mov	r8, r3
1000569c:	0ca8      	lsrs	r0, r5, #18
1000569e:	4480      	add	r8, r0
100056a0:	307d      	adds	r0, #125	; 0x7d
100056a2:	00c1      	lsls	r1, r0, #3
100056a4:	e5bb      	b.n	1000521e <_malloc_r+0x92>
100056a6:	9a00      	ldr	r2, [sp, #0]
100056a8:	9b01      	ldr	r3, [sp, #4]
100056aa:	4694      	mov	ip, r2
100056ac:	4642      	mov	r2, r8
100056ae:	3b08      	subs	r3, #8
100056b0:	4463      	add	r3, ip
100056b2:	1a9b      	subs	r3, r3, r2
100056b4:	9300      	str	r3, [sp, #0]
100056b6:	2300      	movs	r3, #0
100056b8:	469b      	mov	fp, r3
100056ba:	e6ae      	b.n	1000541a <_malloc_r+0x28e>
100056bc:	0021      	movs	r1, r4
100056be:	0030      	movs	r0, r6
100056c0:	3108      	adds	r1, #8
100056c2:	f000 f8af 	bl	10005824 <_free_r>
100056c6:	4653      	mov	r3, sl
100056c8:	68bc      	ldr	r4, [r7, #8]
100056ca:	685b      	ldr	r3, [r3, #4]
100056cc:	6862      	ldr	r2, [r4, #4]
100056ce:	e6c8      	b.n	10005462 <_malloc_r+0x2d6>
100056d0:	490a      	ldr	r1, [pc, #40]	; (100056fc <_malloc_r+0x570>)
100056d2:	428a      	cmp	r2, r1
100056d4:	d80b      	bhi.n	100056ee <_malloc_r+0x562>
100056d6:	0c9a      	lsrs	r2, r3, #18
100056d8:	0011      	movs	r1, r2
100056da:	327d      	adds	r2, #125	; 0x7d
100056dc:	317c      	adds	r1, #124	; 0x7c
100056de:	00d2      	lsls	r2, r2, #3
100056e0:	e6e5      	b.n	100054ae <_malloc_r+0x322>
100056e2:	21fe      	movs	r1, #254	; 0xfe
100056e4:	237e      	movs	r3, #126	; 0x7e
100056e6:	207f      	movs	r0, #127	; 0x7f
100056e8:	4698      	mov	r8, r3
100056ea:	0089      	lsls	r1, r1, #2
100056ec:	e597      	b.n	1000521e <_malloc_r+0x92>
100056ee:	22fe      	movs	r2, #254	; 0xfe
100056f0:	217e      	movs	r1, #126	; 0x7e
100056f2:	0092      	lsls	r2, r2, #2
100056f4:	e6db      	b.n	100054ae <_malloc_r+0x322>
100056f6:	687b      	ldr	r3, [r7, #4]
100056f8:	e76b      	b.n	100055d2 <_malloc_r+0x446>
100056fa:	46c0      	nop			; (mov r8, r8)
100056fc:	00000554 	.word	0x00000554

10005700 <__malloc_lock>:
10005700:	4770      	bx	lr
10005702:	46c0      	nop			; (mov r8, r8)

10005704 <__malloc_unlock>:
10005704:	4770      	bx	lr
10005706:	46c0      	nop			; (mov r8, r8)

10005708 <_sbrk_r>:
10005708:	2300      	movs	r3, #0
1000570a:	b570      	push	{r4, r5, r6, lr}
1000570c:	4d06      	ldr	r5, [pc, #24]	; (10005728 <_sbrk_r+0x20>)
1000570e:	0004      	movs	r4, r0
10005710:	0008      	movs	r0, r1
10005712:	602b      	str	r3, [r5, #0]
10005714:	f7fc f9da 	bl	10001acc <_sbrk>
10005718:	1c43      	adds	r3, r0, #1
1000571a:	d000      	beq.n	1000571e <_sbrk_r+0x16>
1000571c:	bd70      	pop	{r4, r5, r6, pc}
1000571e:	682b      	ldr	r3, [r5, #0]
10005720:	2b00      	cmp	r3, #0
10005722:	d0fb      	beq.n	1000571c <_sbrk_r+0x14>
10005724:	6023      	str	r3, [r4, #0]
10005726:	e7f9      	b.n	1000571c <_sbrk_r+0x14>
10005728:	20000f90 	.word	0x20000f90

1000572c <strlen>:
1000572c:	b510      	push	{r4, lr}
1000572e:	0783      	lsls	r3, r0, #30
10005730:	d00a      	beq.n	10005748 <strlen+0x1c>
10005732:	0003      	movs	r3, r0
10005734:	2103      	movs	r1, #3
10005736:	e002      	b.n	1000573e <strlen+0x12>
10005738:	3301      	adds	r3, #1
1000573a:	420b      	tst	r3, r1
1000573c:	d005      	beq.n	1000574a <strlen+0x1e>
1000573e:	781a      	ldrb	r2, [r3, #0]
10005740:	2a00      	cmp	r2, #0
10005742:	d1f9      	bne.n	10005738 <strlen+0xc>
10005744:	1a18      	subs	r0, r3, r0
10005746:	bd10      	pop	{r4, pc}
10005748:	0003      	movs	r3, r0
1000574a:	6819      	ldr	r1, [r3, #0]
1000574c:	4a0c      	ldr	r2, [pc, #48]	; (10005780 <strlen+0x54>)
1000574e:	4c0d      	ldr	r4, [pc, #52]	; (10005784 <strlen+0x58>)
10005750:	188a      	adds	r2, r1, r2
10005752:	438a      	bics	r2, r1
10005754:	4222      	tst	r2, r4
10005756:	d10f      	bne.n	10005778 <strlen+0x4c>
10005758:	6859      	ldr	r1, [r3, #4]
1000575a:	4a09      	ldr	r2, [pc, #36]	; (10005780 <strlen+0x54>)
1000575c:	3304      	adds	r3, #4
1000575e:	188a      	adds	r2, r1, r2
10005760:	438a      	bics	r2, r1
10005762:	4222      	tst	r2, r4
10005764:	d108      	bne.n	10005778 <strlen+0x4c>
10005766:	6859      	ldr	r1, [r3, #4]
10005768:	4a05      	ldr	r2, [pc, #20]	; (10005780 <strlen+0x54>)
1000576a:	3304      	adds	r3, #4
1000576c:	188a      	adds	r2, r1, r2
1000576e:	438a      	bics	r2, r1
10005770:	4222      	tst	r2, r4
10005772:	d0f1      	beq.n	10005758 <strlen+0x2c>
10005774:	e000      	b.n	10005778 <strlen+0x4c>
10005776:	3301      	adds	r3, #1
10005778:	781a      	ldrb	r2, [r3, #0]
1000577a:	2a00      	cmp	r2, #0
1000577c:	d1fb      	bne.n	10005776 <strlen+0x4a>
1000577e:	e7e1      	b.n	10005744 <strlen+0x18>
10005780:	fefefeff 	.word	0xfefefeff
10005784:	80808080 	.word	0x80808080

10005788 <_malloc_trim_r>:
10005788:	b5f8      	push	{r3, r4, r5, r6, r7, lr}
1000578a:	000c      	movs	r4, r1
1000578c:	0005      	movs	r5, r0
1000578e:	f7ff ffb7 	bl	10005700 <__malloc_lock>
10005792:	4f20      	ldr	r7, [pc, #128]	; (10005814 <_malloc_trim_r+0x8c>)
10005794:	68bb      	ldr	r3, [r7, #8]
10005796:	685e      	ldr	r6, [r3, #4]
10005798:	2303      	movs	r3, #3
1000579a:	439e      	bics	r6, r3
1000579c:	4b1e      	ldr	r3, [pc, #120]	; (10005818 <_malloc_trim_r+0x90>)
1000579e:	1b34      	subs	r4, r6, r4
100057a0:	469c      	mov	ip, r3
100057a2:	4464      	add	r4, ip
100057a4:	0b24      	lsrs	r4, r4, #12
100057a6:	3c01      	subs	r4, #1
100057a8:	3311      	adds	r3, #17
100057aa:	0324      	lsls	r4, r4, #12
100057ac:	429c      	cmp	r4, r3
100057ae:	db07      	blt.n	100057c0 <_malloc_trim_r+0x38>
100057b0:	2100      	movs	r1, #0
100057b2:	0028      	movs	r0, r5
100057b4:	f7ff ffa8 	bl	10005708 <_sbrk_r>
100057b8:	68bb      	ldr	r3, [r7, #8]
100057ba:	199b      	adds	r3, r3, r6
100057bc:	4298      	cmp	r0, r3
100057be:	d004      	beq.n	100057ca <_malloc_trim_r+0x42>
100057c0:	0028      	movs	r0, r5
100057c2:	f7ff ff9f 	bl	10005704 <__malloc_unlock>
100057c6:	2000      	movs	r0, #0
100057c8:	bdf8      	pop	{r3, r4, r5, r6, r7, pc}
100057ca:	0028      	movs	r0, r5
100057cc:	4261      	negs	r1, r4
100057ce:	f7ff ff9b 	bl	10005708 <_sbrk_r>
100057d2:	1c43      	adds	r3, r0, #1
100057d4:	d00d      	beq.n	100057f2 <_malloc_trim_r+0x6a>
100057d6:	2201      	movs	r2, #1
100057d8:	68bb      	ldr	r3, [r7, #8]
100057da:	1b36      	subs	r6, r6, r4
100057dc:	4316      	orrs	r6, r2
100057de:	605e      	str	r6, [r3, #4]
100057e0:	4b0e      	ldr	r3, [pc, #56]	; (1000581c <_malloc_trim_r+0x94>)
100057e2:	0028      	movs	r0, r5
100057e4:	681a      	ldr	r2, [r3, #0]
100057e6:	1b14      	subs	r4, r2, r4
100057e8:	601c      	str	r4, [r3, #0]
100057ea:	f7ff ff8b 	bl	10005704 <__malloc_unlock>
100057ee:	2001      	movs	r0, #1
100057f0:	e7ea      	b.n	100057c8 <_malloc_trim_r+0x40>
100057f2:	2100      	movs	r1, #0
100057f4:	0028      	movs	r0, r5
100057f6:	f7ff ff87 	bl	10005708 <_sbrk_r>
100057fa:	68ba      	ldr	r2, [r7, #8]
100057fc:	1a83      	subs	r3, r0, r2
100057fe:	2b0f      	cmp	r3, #15
10005800:	ddde      	ble.n	100057c0 <_malloc_trim_r+0x38>
10005802:	4907      	ldr	r1, [pc, #28]	; (10005820 <_malloc_trim_r+0x98>)
10005804:	6809      	ldr	r1, [r1, #0]
10005806:	1a40      	subs	r0, r0, r1
10005808:	4904      	ldr	r1, [pc, #16]	; (1000581c <_malloc_trim_r+0x94>)
1000580a:	6008      	str	r0, [r1, #0]
1000580c:	2101      	movs	r1, #1
1000580e:	430b      	orrs	r3, r1
10005810:	6053      	str	r3, [r2, #4]
10005812:	e7d5      	b.n	100057c0 <_malloc_trim_r+0x38>
10005814:	20000688 	.word	0x20000688
10005818:	00000fef 	.word	0x00000fef
1000581c:	20000f60 	.word	0x20000f60
10005820:	20000680 	.word	0x20000680

10005824 <_free_r>:
10005824:	b5f0      	push	{r4, r5, r6, r7, lr}
10005826:	46c6      	mov	lr, r8
10005828:	0005      	movs	r5, r0
1000582a:	000c      	movs	r4, r1
1000582c:	b500      	push	{lr}
1000582e:	2900      	cmp	r1, #0
10005830:	d04f      	beq.n	100058d2 <_free_r+0xae>
10005832:	f7ff ff65 	bl	10005700 <__malloc_lock>
10005836:	0021      	movs	r1, r4
10005838:	3908      	subs	r1, #8
1000583a:	684c      	ldr	r4, [r1, #4]
1000583c:	2601      	movs	r6, #1
1000583e:	0022      	movs	r2, r4
10005840:	2003      	movs	r0, #3
10005842:	43b2      	bics	r2, r6
10005844:	188f      	adds	r7, r1, r2
10005846:	687b      	ldr	r3, [r7, #4]
10005848:	4383      	bics	r3, r0
1000584a:	4862      	ldr	r0, [pc, #392]	; (100059d4 <_free_r+0x1b0>)
1000584c:	4698      	mov	r8, r3
1000584e:	6883      	ldr	r3, [r0, #8]
10005850:	42bb      	cmp	r3, r7
10005852:	d06a      	beq.n	1000592a <_free_r+0x106>
10005854:	4643      	mov	r3, r8
10005856:	607b      	str	r3, [r7, #4]
10005858:	4226      	tst	r6, r4
1000585a:	d11e      	bne.n	1000589a <_free_r+0x76>
1000585c:	2308      	movs	r3, #8
1000585e:	469c      	mov	ip, r3
10005860:	680c      	ldr	r4, [r1, #0]
10005862:	4484      	add	ip, r0
10005864:	1b09      	subs	r1, r1, r4
10005866:	1912      	adds	r2, r2, r4
10005868:	688c      	ldr	r4, [r1, #8]
1000586a:	4564      	cmp	r4, ip
1000586c:	d04f      	beq.n	1000590e <_free_r+0xea>
1000586e:	68cb      	ldr	r3, [r1, #12]
10005870:	60e3      	str	r3, [r4, #12]
10005872:	609c      	str	r4, [r3, #8]
10005874:	4643      	mov	r3, r8
10005876:	18fc      	adds	r4, r7, r3
10005878:	6864      	ldr	r4, [r4, #4]
1000587a:	4234      	tst	r4, r6
1000587c:	d111      	bne.n	100058a2 <_free_r+0x7e>
1000587e:	68bb      	ldr	r3, [r7, #8]
10005880:	4c55      	ldr	r4, [pc, #340]	; (100059d8 <_free_r+0x1b4>)
10005882:	4442      	add	r2, r8
10005884:	42a3      	cmp	r3, r4
10005886:	d100      	bne.n	1000588a <_free_r+0x66>
10005888:	e07e      	b.n	10005988 <_free_r+0x164>
1000588a:	68fc      	ldr	r4, [r7, #12]
1000588c:	60dc      	str	r4, [r3, #12]
1000588e:	60a3      	str	r3, [r4, #8]
10005890:	2301      	movs	r3, #1
10005892:	4313      	orrs	r3, r2
10005894:	604b      	str	r3, [r1, #4]
10005896:	508a      	str	r2, [r1, r2]
10005898:	e006      	b.n	100058a8 <_free_r+0x84>
1000589a:	18fc      	adds	r4, r7, r3
1000589c:	6864      	ldr	r4, [r4, #4]
1000589e:	4234      	tst	r4, r6
100058a0:	d0ed      	beq.n	1000587e <_free_r+0x5a>
100058a2:	4316      	orrs	r6, r2
100058a4:	604e      	str	r6, [r1, #4]
100058a6:	603a      	str	r2, [r7, #0]
100058a8:	2380      	movs	r3, #128	; 0x80
100058aa:	009b      	lsls	r3, r3, #2
100058ac:	429a      	cmp	r2, r3
100058ae:	d213      	bcs.n	100058d8 <_free_r+0xb4>
100058b0:	0954      	lsrs	r4, r2, #5
100058b2:	08d3      	lsrs	r3, r2, #3
100058b4:	2201      	movs	r2, #1
100058b6:	40a2      	lsls	r2, r4
100058b8:	6844      	ldr	r4, [r0, #4]
100058ba:	00db      	lsls	r3, r3, #3
100058bc:	4322      	orrs	r2, r4
100058be:	6042      	str	r2, [r0, #4]
100058c0:	1818      	adds	r0, r3, r0
100058c2:	6883      	ldr	r3, [r0, #8]
100058c4:	60c8      	str	r0, [r1, #12]
100058c6:	608b      	str	r3, [r1, #8]
100058c8:	6081      	str	r1, [r0, #8]
100058ca:	60d9      	str	r1, [r3, #12]
100058cc:	0028      	movs	r0, r5
100058ce:	f7ff ff19 	bl	10005704 <__malloc_unlock>
100058d2:	bc80      	pop	{r7}
100058d4:	46b8      	mov	r8, r7
100058d6:	bdf0      	pop	{r4, r5, r6, r7, pc}
100058d8:	0a53      	lsrs	r3, r2, #9
100058da:	2b04      	cmp	r3, #4
100058dc:	d83e      	bhi.n	1000595c <_free_r+0x138>
100058de:	0994      	lsrs	r4, r2, #6
100058e0:	0026      	movs	r6, r4
100058e2:	3439      	adds	r4, #57	; 0x39
100058e4:	3638      	adds	r6, #56	; 0x38
100058e6:	00e4      	lsls	r4, r4, #3
100058e8:	1904      	adds	r4, r0, r4
100058ea:	6823      	ldr	r3, [r4, #0]
100058ec:	3c08      	subs	r4, #8
100058ee:	2703      	movs	r7, #3
100058f0:	429c      	cmp	r4, r3
100058f2:	d042      	beq.n	1000597a <_free_r+0x156>
100058f4:	6858      	ldr	r0, [r3, #4]
100058f6:	43b8      	bics	r0, r7
100058f8:	4290      	cmp	r0, r2
100058fa:	d902      	bls.n	10005902 <_free_r+0xde>
100058fc:	689b      	ldr	r3, [r3, #8]
100058fe:	429c      	cmp	r4, r3
10005900:	d1f8      	bne.n	100058f4 <_free_r+0xd0>
10005902:	68dc      	ldr	r4, [r3, #12]
10005904:	60cc      	str	r4, [r1, #12]
10005906:	608b      	str	r3, [r1, #8]
10005908:	60a1      	str	r1, [r4, #8]
1000590a:	60d9      	str	r1, [r3, #12]
1000590c:	e7de      	b.n	100058cc <_free_r+0xa8>
1000590e:	4643      	mov	r3, r8
10005910:	18f8      	adds	r0, r7, r3
10005912:	6840      	ldr	r0, [r0, #4]
10005914:	4230      	tst	r0, r6
10005916:	d157      	bne.n	100059c8 <_free_r+0x1a4>
10005918:	68fb      	ldr	r3, [r7, #12]
1000591a:	68b8      	ldr	r0, [r7, #8]
1000591c:	4442      	add	r2, r8
1000591e:	4316      	orrs	r6, r2
10005920:	60c3      	str	r3, [r0, #12]
10005922:	6098      	str	r0, [r3, #8]
10005924:	604e      	str	r6, [r1, #4]
10005926:	508a      	str	r2, [r1, r2]
10005928:	e7d0      	b.n	100058cc <_free_r+0xa8>
1000592a:	0013      	movs	r3, r2
1000592c:	4443      	add	r3, r8
1000592e:	4226      	tst	r6, r4
10005930:	d106      	bne.n	10005940 <_free_r+0x11c>
10005932:	680a      	ldr	r2, [r1, #0]
10005934:	1a89      	subs	r1, r1, r2
10005936:	688c      	ldr	r4, [r1, #8]
10005938:	189b      	adds	r3, r3, r2
1000593a:	68ca      	ldr	r2, [r1, #12]
1000593c:	60e2      	str	r2, [r4, #12]
1000593e:	6094      	str	r4, [r2, #8]
10005940:	2201      	movs	r2, #1
10005942:	431a      	orrs	r2, r3
10005944:	604a      	str	r2, [r1, #4]
10005946:	4a25      	ldr	r2, [pc, #148]	; (100059dc <_free_r+0x1b8>)
10005948:	6081      	str	r1, [r0, #8]
1000594a:	6812      	ldr	r2, [r2, #0]
1000594c:	429a      	cmp	r2, r3
1000594e:	d8bd      	bhi.n	100058cc <_free_r+0xa8>
10005950:	4b23      	ldr	r3, [pc, #140]	; (100059e0 <_free_r+0x1bc>)
10005952:	0028      	movs	r0, r5
10005954:	6819      	ldr	r1, [r3, #0]
10005956:	f7ff ff17 	bl	10005788 <_malloc_trim_r>
1000595a:	e7b7      	b.n	100058cc <_free_r+0xa8>
1000595c:	2b14      	cmp	r3, #20
1000595e:	d907      	bls.n	10005970 <_free_r+0x14c>
10005960:	2b54      	cmp	r3, #84	; 0x54
10005962:	d81a      	bhi.n	1000599a <_free_r+0x176>
10005964:	0b14      	lsrs	r4, r2, #12
10005966:	0026      	movs	r6, r4
10005968:	346f      	adds	r4, #111	; 0x6f
1000596a:	366e      	adds	r6, #110	; 0x6e
1000596c:	00e4      	lsls	r4, r4, #3
1000596e:	e7bb      	b.n	100058e8 <_free_r+0xc4>
10005970:	001e      	movs	r6, r3
10005972:	335c      	adds	r3, #92	; 0x5c
10005974:	365b      	adds	r6, #91	; 0x5b
10005976:	00dc      	lsls	r4, r3, #3
10005978:	e7b6      	b.n	100058e8 <_free_r+0xc4>
1000597a:	2201      	movs	r2, #1
1000597c:	10b6      	asrs	r6, r6, #2
1000597e:	40b2      	lsls	r2, r6
10005980:	6846      	ldr	r6, [r0, #4]
10005982:	4332      	orrs	r2, r6
10005984:	6042      	str	r2, [r0, #4]
10005986:	e7bd      	b.n	10005904 <_free_r+0xe0>
10005988:	60d9      	str	r1, [r3, #12]
1000598a:	6099      	str	r1, [r3, #8]
1000598c:	60cb      	str	r3, [r1, #12]
1000598e:	608b      	str	r3, [r1, #8]
10005990:	2301      	movs	r3, #1
10005992:	4313      	orrs	r3, r2
10005994:	604b      	str	r3, [r1, #4]
10005996:	508a      	str	r2, [r1, r2]
10005998:	e798      	b.n	100058cc <_free_r+0xa8>
1000599a:	24aa      	movs	r4, #170	; 0xaa
1000599c:	0064      	lsls	r4, r4, #1
1000599e:	42a3      	cmp	r3, r4
100059a0:	d805      	bhi.n	100059ae <_free_r+0x18a>
100059a2:	0bd4      	lsrs	r4, r2, #15
100059a4:	0026      	movs	r6, r4
100059a6:	3478      	adds	r4, #120	; 0x78
100059a8:	3677      	adds	r6, #119	; 0x77
100059aa:	00e4      	lsls	r4, r4, #3
100059ac:	e79c      	b.n	100058e8 <_free_r+0xc4>
100059ae:	4c0d      	ldr	r4, [pc, #52]	; (100059e4 <_free_r+0x1c0>)
100059b0:	42a3      	cmp	r3, r4
100059b2:	d805      	bhi.n	100059c0 <_free_r+0x19c>
100059b4:	0c94      	lsrs	r4, r2, #18
100059b6:	0026      	movs	r6, r4
100059b8:	347d      	adds	r4, #125	; 0x7d
100059ba:	367c      	adds	r6, #124	; 0x7c
100059bc:	00e4      	lsls	r4, r4, #3
100059be:	e793      	b.n	100058e8 <_free_r+0xc4>
100059c0:	24fe      	movs	r4, #254	; 0xfe
100059c2:	267e      	movs	r6, #126	; 0x7e
100059c4:	00a4      	lsls	r4, r4, #2
100059c6:	e78f      	b.n	100058e8 <_free_r+0xc4>
100059c8:	0033      	movs	r3, r6
100059ca:	4313      	orrs	r3, r2
100059cc:	604b      	str	r3, [r1, #4]
100059ce:	603a      	str	r2, [r7, #0]
100059d0:	e77c      	b.n	100058cc <_free_r+0xa8>
100059d2:	46c0      	nop			; (mov r8, r8)
100059d4:	20000688 	.word	0x20000688
100059d8:	20000690 	.word	0x20000690
100059dc:	20000684 	.word	0x20000684
100059e0:	20000f5c 	.word	0x20000f5c
100059e4:	00000554 	.word	0x00000554

100059e8 <_fini>:
100059e8:	b5f8      	push	{r3, r4, r5, r6, r7, lr}
100059ea:	46c0      	nop			; (mov r8, r8)
100059ec:	0000      	movs	r0, r0
	...

100059f0 <__mutex_exit_veneer>:
100059f0:	b401      	push	{r0}
100059f2:	4802      	ldr	r0, [pc, #8]	; (100059fc <__mutex_exit_veneer+0xc>)
100059f4:	4684      	mov	ip, r0
100059f6:	bc01      	pop	{r0}
100059f8:	4760      	bx	ip
100059fa:	bf00      	nop
100059fc:	2000015d 	.word	0x2000015d

10005a00 <____aeabi_idiv0_veneer>:
10005a00:	b401      	push	{r0}
10005a02:	4802      	ldr	r0, [pc, #8]	; (10005a0c <____aeabi_idiv0_veneer+0xc>)
10005a04:	4684      	mov	ip, r0
10005a06:	bc01      	pop	{r0}
10005a08:	4760      	bx	ip
10005a0a:	bf00      	nop
10005a0c:	20000185 	.word	0x20000185

10005a10 <__mutex_try_enter_block_until_veneer>:
10005a10:	b401      	push	{r0}
10005a12:	4802      	ldr	r0, [pc, #8]	; (10005a1c <__mutex_try_enter_block_until_veneer+0xc>)
10005a14:	4684      	mov	ip, r0
10005a16:	bc01      	pop	{r0}
10005a18:	4760      	bx	ip
10005a1a:	bf00      	nop
10005a1c:	200000c1 	.word	0x200000c1

Disassembly of section .data:

200000c0 <mutex_try_enter_block_until>:
200000c0:	b5f0      	push	{r4, r5, r6, r7, lr}
200000c2:	46c6      	mov	lr, r8
200000c4:	0015      	movs	r5, r2
200000c6:	b500      	push	{lr}
200000c8:	0004      	movs	r4, r0
200000ca:	001e      	movs	r6, r3
200000cc:	6802      	ldr	r2, [r0, #0]
200000ce:	f3ef 8110 	mrs	r1, PRIMASK
200000d2:	b672      	cpsid	i
200000d4:	6813      	ldr	r3, [r2, #0]
200000d6:	2b00      	cmp	r3, #0
200000d8:	d0fc      	beq.n	200000d4 <mutex_try_enter_block_until+0x14>
200000da:	f3bf 8f5f 	dmb	sy
200000de:	2304      	movs	r3, #4
200000e0:	56e3      	ldrsb	r3, [r4, r3]
200000e2:	2b00      	cmp	r3, #0
200000e4:	db2d      	blt.n	20000142 <mutex_try_enter_block_until+0x82>
200000e6:	6822      	ldr	r2, [r4, #0]
200000e8:	f3bf 8f5f 	dmb	sy
200000ec:	2000      	movs	r0, #0
200000ee:	6010      	str	r0, [r2, #0]
200000f0:	f381 8810 	msr	PRIMASK, r1
200000f4:	22d0      	movs	r2, #208	; 0xd0
200000f6:	0612      	lsls	r2, r2, #24
200000f8:	7812      	ldrb	r2, [r2, #0]
200000fa:	b252      	sxtb	r2, r2
200000fc:	4690      	mov	r8, r2
200000fe:	429a      	cmp	r2, r3
20000100:	d103      	bne.n	2000010a <mutex_try_enter_block_until+0x4a>
20000102:	2000      	movs	r0, #0
20000104:	bc80      	pop	{r7}
20000106:	46b8      	mov	r8, r7
20000108:	bdf0      	pop	{r4, r5, r6, r7, pc}
2000010a:	2700      	movs	r7, #0
2000010c:	e00b      	b.n	20000126 <mutex_try_enter_block_until+0x66>
2000010e:	6823      	ldr	r3, [r4, #0]
20000110:	f3bf 8f5f 	dmb	sy
20000114:	601f      	str	r7, [r3, #0]
20000116:	f381 8810 	msr	PRIMASK, r1
2000011a:	0028      	movs	r0, r5
2000011c:	0031      	movs	r1, r6
2000011e:	f000 f833 	bl	20000188 <__best_effort_wfe_or_timeout_veneer>
20000122:	2800      	cmp	r0, #0
20000124:	d1ed      	bne.n	20000102 <mutex_try_enter_block_until+0x42>
20000126:	6822      	ldr	r2, [r4, #0]
20000128:	f3ef 8110 	mrs	r1, PRIMASK
2000012c:	b672      	cpsid	i
2000012e:	6813      	ldr	r3, [r2, #0]
20000130:	2b00      	cmp	r3, #0
20000132:	d0fc      	beq.n	2000012e <mutex_try_enter_block_until+0x6e>
20000134:	f3bf 8f5f 	dmb	sy
20000138:	7923      	ldrb	r3, [r4, #4]
2000013a:	2b7f      	cmp	r3, #127	; 0x7f
2000013c:	d9e7      	bls.n	2000010e <mutex_try_enter_block_until+0x4e>
2000013e:	4643      	mov	r3, r8
20000140:	e002      	b.n	20000148 <mutex_try_enter_block_until+0x88>
20000142:	23d0      	movs	r3, #208	; 0xd0
20000144:	061b      	lsls	r3, r3, #24
20000146:	681b      	ldr	r3, [r3, #0]
20000148:	7123      	strb	r3, [r4, #4]
2000014a:	6823      	ldr	r3, [r4, #0]
2000014c:	f3bf 8f5f 	dmb	sy
20000150:	2200      	movs	r2, #0
20000152:	601a      	str	r2, [r3, #0]
20000154:	f381 8810 	msr	PRIMASK, r1
20000158:	2001      	movs	r0, #1
2000015a:	e7d3      	b.n	20000104 <mutex_try_enter_block_until+0x44>

2000015c <mutex_exit>:
2000015c:	6802      	ldr	r2, [r0, #0]
2000015e:	f3ef 8110 	mrs	r1, PRIMASK
20000162:	b672      	cpsid	i
20000164:	6813      	ldr	r3, [r2, #0]
20000166:	2b00      	cmp	r3, #0
20000168:	d0fc      	beq.n	20000164 <mutex_exit+0x8>
2000016a:	f3bf 8f5f 	dmb	sy
2000016e:	23ff      	movs	r3, #255	; 0xff
20000170:	7103      	strb	r3, [r0, #4]
20000172:	6803      	ldr	r3, [r0, #0]
20000174:	f3bf 8f5f 	dmb	sy
20000178:	2200      	movs	r2, #0
2000017a:	601a      	str	r2, [r3, #0]
2000017c:	f381 8810 	msr	PRIMASK, r1
20000180:	bf40      	sev
20000182:	4770      	bx	lr

20000184 <__aeabi_idiv0>:
20000184:	4770      	bx	lr
20000186:	46c0      	nop			; (mov r8, r8)

20000188 <__best_effort_wfe_or_timeout_veneer>:
20000188:	b401      	push	{r0}
2000018a:	4802      	ldr	r0, [pc, #8]	; (20000194 <__best_effort_wfe_or_timeout_veneer+0xc>)
2000018c:	4684      	mov	ip, r0
2000018e:	bc01      	pop	{r0}
20000190:	4760      	bx	ip
20000192:	bf00      	nop
20000194:	10000d3d 	.word	0x10000d3d

20000198 <striped_spin_lock_num>:
20000198:	00000010                                ....

2000019c <irq_handler_chain_slots>:
2000019c:	00000000 	.word	0x00000000
200001a0:	00010000 	.word	0x00010000
	...
200001ac:	00020000 	.word	0x00020000
	...
200001b8:	00030000 	.word	0x00030000
	...
200001c4:	00ff0000 	.word	0x00ff0000
200001c8:	00000000 	.word	0x00000000

200001cc <irq_handler_chain_first_slot>:
200001cc:	b501      	push	{r0, lr}
200001ce:	6848      	ldr	r0, [r1, #4]
200001d0:	3101      	adds	r1, #1
200001d2:	468e      	mov	lr, r1
200001d4:	4700      	bx	r0

200001d6 <irq_handler_chain_remove_tail>:
200001d6:	4670      	mov	r0, lr
200001d8:	3809      	subs	r0, #9
200001da:	4901      	ldr	r1, [pc, #4]	; (200001e0 <irq_handler_chain_remove_tail+0xa>)
200001dc:	4788      	blx	r1
200001de:	bd01      	pop	{r0, pc}
200001e0:	10000719 	.word	0x10000719

200001e4 <default_alarm_pool>:
200001e4:	200001fc 00000000 20000b00 20000fd4     ... ....... ... 
	...

200001fc <default_alarm_pool_heap>:
200001fc:	20000fe4 00000000 00000000 00000010     ... ............
2000020c:	00000000                                ....

20000210 <aeabi_bits_funcs>:
20000210:	00003350 	.word	0x00003350
20000214:	0000334c 	.word	0x0000334c
20000218:	00003354 	.word	0x00003354
2000021c:	00003352 	.word	0x00003352

20000220 <aeabi_bits_funcs_end>:
20000220:	0000534d 	.word	0x0000534d
20000224:	0000434d 	.word	0x0000434d
20000228:	00003453 	.word	0x00003453
2000022c:	00003443 	.word	0x00003443

20000230 <stdio_uart>:
20000230:	100020b9 00000000 10002105 100021b1     . .......!...!..
20000240:	00000000 00000100                       ........

20000248 <uxTopUsedPriority>:
20000248:	00000004                                ....

2000024c <uxCriticalNesting>:
2000024c:	aaaaaaaa                                ....

20000250 <_impure_ptr>:
20000250:	20000258 00000000                       X.. ....

20000258 <impure_data>:
20000258:	00000000 20000544 200005ac 20000614     ....D.. ... ... 
	...
20000300:	00000001 00000000 abcd330e e66d1234     .........3..4.m.
20000310:	0005deec 0000000b 00000000 00000000     ................
	...

20000680 <__malloc_sbrk_base>:
20000680:	ffffffff                                ....

20000684 <__malloc_trim_threshold>:
20000684:	00020000                                ....

20000688 <__malloc_av_>:
	...
20000690:	20000688 20000688 20000690 20000690     ... ... ... ... 
200006a0:	20000698 20000698 200006a0 200006a0     ... ... ... ... 
200006b0:	200006a8 200006a8 200006b0 200006b0     ... ... ... ... 
200006c0:	200006b8 200006b8 200006c0 200006c0     ... ... ... ... 
200006d0:	200006c8 200006c8 200006d0 200006d0     ... ... ... ... 
200006e0:	200006d8 200006d8 200006e0 200006e0     ... ... ... ... 
200006f0:	200006e8 200006e8 200006f0 200006f0     ... ... ... ... 
20000700:	200006f8 200006f8 20000700 20000700     ... ... ... ... 
20000710:	20000708 20000708 20000710 20000710     ... ... ... ... 
20000720:	20000718 20000718 20000720 20000720     ... ...  ..  .. 
20000730:	20000728 20000728 20000730 20000730     (.. (.. 0.. 0.. 
20000740:	20000738 20000738 20000740 20000740     8.. 8.. @.. @.. 
20000750:	20000748 20000748 20000750 20000750     H.. H.. P.. P.. 
20000760:	20000758 20000758 20000760 20000760     X.. X.. `.. `.. 
20000770:	20000768 20000768 20000770 20000770     h.. h.. p.. p.. 
20000780:	20000778 20000778 20000780 20000780     x.. x.. ... ... 
20000790:	20000788 20000788 20000790 20000790     ... ... ... ... 
200007a0:	20000798 20000798 200007a0 200007a0     ... ... ... ... 
200007b0:	200007a8 200007a8 200007b0 200007b0     ... ... ... ... 
200007c0:	200007b8 200007b8 200007c0 200007c0     ... ... ... ... 
200007d0:	200007c8 200007c8 200007d0 200007d0     ... ... ... ... 
200007e0:	200007d8 200007d8 200007e0 200007e0     ... ... ... ... 
200007f0:	200007e8 200007e8 200007f0 200007f0     ... ... ... ... 
20000800:	200007f8 200007f8 20000800 20000800     ... ... ... ... 
20000810:	20000808 20000808 20000810 20000810     ... ... ... ... 
20000820:	20000818 20000818 20000820 20000820     ... ...  ..  .. 
20000830:	20000828 20000828 20000830 20000830     (.. (.. 0.. 0.. 
20000840:	20000838 20000838 20000840 20000840     8.. 8.. @.. @.. 
20000850:	20000848 20000848 20000850 20000850     H.. H.. P.. P.. 
20000860:	20000858 20000858 20000860 20000860     X.. X.. `.. `.. 
20000870:	20000868 20000868 20000870 20000870     h.. h.. p.. p.. 
20000880:	20000878 20000878 20000880 20000880     x.. x.. ... ... 
20000890:	20000888 20000888 20000890 20000890     ... ... ... ... 
200008a0:	20000898 20000898 200008a0 200008a0     ... ... ... ... 
200008b0:	200008a8 200008a8 200008b0 200008b0     ... ... ... ... 
200008c0:	200008b8 200008b8 200008c0 200008c0     ... ... ... ... 
200008d0:	200008c8 200008c8 200008d0 200008d0     ... ... ... ... 
200008e0:	200008d8 200008d8 200008e0 200008e0     ... ... ... ... 
200008f0:	200008e8 200008e8 200008f0 200008f0     ... ... ... ... 
20000900:	200008f8 200008f8 20000900 20000900     ... ... ... ... 
20000910:	20000908 20000908 20000910 20000910     ... ... ... ... 
20000920:	20000918 20000918 20000920 20000920     ... ...  ..  .. 
20000930:	20000928 20000928 20000930 20000930     (.. (.. 0.. 0.. 
20000940:	20000938 20000938 20000940 20000940     8.. 8.. @.. @.. 
20000950:	20000948 20000948 20000950 20000950     H.. H.. P.. P.. 
20000960:	20000958 20000958 20000960 20000960     X.. X.. `.. `.. 
20000970:	20000968 20000968 20000970 20000970     h.. h.. p.. p.. 
20000980:	20000978 20000978 20000980 20000980     x.. x.. ... ... 
20000990:	20000988 20000988 20000990 20000990     ... ... ... ... 
200009a0:	20000998 20000998 200009a0 200009a0     ... ... ... ... 
200009b0:	200009a8 200009a8 200009b0 200009b0     ... ... ... ... 
200009c0:	200009b8 200009b8 200009c0 200009c0     ... ... ... ... 
200009d0:	200009c8 200009c8 200009d0 200009d0     ... ... ... ... 
200009e0:	200009d8 200009d8 200009e0 200009e0     ... ... ... ... 
200009f0:	200009e8 200009e8 200009f0 200009f0     ... ... ... ... 
20000a00:	200009f8 200009f8 20000a00 20000a00     ... ... ... ... 
20000a10:	20000a08 20000a08 20000a10 20000a10     ... ... ... ... 
20000a20:	20000a18 20000a18 20000a20 20000a20     ... ...  ..  .. 
20000a30:	20000a28 20000a28 20000a30 20000a30     (.. (.. 0.. 0.. 
20000a40:	20000a38 20000a38 20000a40 20000a40     8.. 8.. @.. @.. 
20000a50:	20000a48 20000a48 20000a50 20000a50     H.. H.. P.. P.. 
20000a60:	20000a58 20000a58 20000a60 20000a60     X.. X.. `.. `.. 
20000a70:	20000a68 20000a68 20000a70 20000a70     h.. h.. p.. p.. 
20000a80:	20000a78 20000a78 20000a80 20000a80     x.. x.. ... ... 

20000a90 <print_mutex>:
	...

20000a98 <__mutex_array_end>:
20000a98:	10001dc1 	.word	0x10001dc1
20000a9c:	10001b85 	.word	0x10001b85
20000aa0:	10001c45 	.word	0x10001c45
20000aa4:	10001d05 	.word	0x10001d05

20000aa8 <__frame_dummy_init_array_entry>:
20000aa8:	10000331                                1...
